; Disassembly of the file "D:\xxx\dl\nascom\dZ80\pascal12.rom"
; 
; CPU Type: Z80
; 
; Created with dZ80 2.0
; 
; on Monday, 01 of September 2014 at 10:42 PM
; 
1000 C38021    JP      #2180  	; Jump to Cold Start
1003 0E3F      LD      C,#3F	; get keypressed in main menu
1005 21C00C    LD      HL,#0CC0
1008 0600      LD      B,#00
100a E5        PUSH    HL
100b DF        RST     #18
100c 7B        LD      A,E
100d E1        POP     HL
100e 77        LD      (HL),A
100f FE0D      CP      #0D
1011 C8        RET     Z

1012 FE08      CP      #08
1014 2007      JR      NZ,#101D
1016 05        DEC     B
1017 FA0510    JP      M,#1005
101a 2B        DEC     HL
101b 1818      JR      #1035
101d FE1B      CP      #1B
101f 2009      JR      NZ,#102A
1021 05        DEC     B
1022 FA0510    JP      M,#1005
1025 3E08      LD      A,#08
1027 F7        RST     #30
1028 18F7      JR      #1021
102a FE20      CP      #20
102c 38DC      JR      C,#100A
102e 78        LD      A,B
102f B9        CP      C
1030 28D8      JR      Z,#100A
1032 7E        LD      A,(HL)
1033 04        INC     B
1034 23        INC     HL
1035 F7        RST     #30
1036 18D2      JR      #100A
1038 D9        EXX     
1039 CB78      BIT     7,B
103b D9        EXX     
103c C2C610    JP      NZ,#10C6
103f D9        EXX     
1040 7D        LD      A,L
1041 B7        OR      A
1042 D9        EXX     
1043 C8        RET     Z

1044 D9        EXX     
1045 C5        PUSH    BC
1046 D5        PUSH    DE
1047 E5        PUSH    HL
1048 D9        EXX     
1049 7D        LD      A,L
104a B7        OR      A
104b 2005      JR      NZ,#1052
104d D9        EXX     
104e CBB8      RES     7,B
1050 1859      JR      #10AB
1052 C5        PUSH    BC
1053 CBF8      SET     7,B
1055 AF        XOR     A
1056 08        EX      AF,AF'
1057 D9        EXX     
1058 CBF8      SET     7,B
105a 7D        LD      A,L
105b D9        EXX     
105c 95        SUB     L
105d 2813      JR      Z,#1072
105f 3006      JR      NC,#1067
1061 ED44      NEG     
1063 08        EX      AF,AF'
1064 3D        DEC     A
1065 08        EX      AF,AF'
1066 D9        EXX     
1067 CDC011    CALL    #11C0
106a 2C        INC     L
106b 3D        DEC     A
106c 20F9      JR      NZ,#1067
106e 08        EX      AF,AF'
106f 2801      JR      Z,#1072
1071 D9        EXX     
1072 F1        POP     AF
1073 E680      AND     #80
1075 2014      JR      NZ,#108B
1077 CDD811    CALL    #11D8
107a 302A      JR      NC,#10A6
107c CDC111    CALL    #11C1
107f B7        OR      A
1080 2C        INC     L
1081 2023      JR      NZ,#10A6
1083 E1        POP     HL
1084 E1        POP     HL
1085 E1        POP     HL
1086 3E01      LD      A,#01
1088 C31421    JP      #2114
108b CD0C12    CALL    #120C
108e 3F        CCF     
108f F5        PUSH    AF
1090 2810      JR      Z,#10A2
1092 3801      JR      C,#1095
1094 D9        EXX     
1095 CDF211    CALL    #11F2
1098 CB78      BIT     7,B
109a 2009      JR      NZ,#10A5
109c CDCC11    CALL    #11CC
109f 2D        DEC     L
10a0 20F6      JR      NZ,#1098
10a2 CDB811    CALL    #11B8
10a5 F1        POP     AF
10a6 3802      JR      C,#10AA
10a8 CBB8      RES     7,B
10aa B7        OR      A
10ab D9        EXX     
10ac E1        POP     HL
10ad D1        POP     DE
10ae C1        POP     BC
10af D9        EXX     
10b0 C9        RET     

10b1 CDE515    CALL    #15E5
10b4 CD3511    CALL    #1135
10b7 D0        RET     NC

10b8 18CC      JR      #1086
10ba CDD410    CALL    #10D4
10bd 18F8      JR      #10B7
10bf D9        EXX     
10c0 CB78      BIT     7,B
10c2 D9        EXX     
10c3 C23F10    JP      NZ,#103F
10c6 CDCC10    CALL    #10CC
10c9 CD3F10    CALL    #103F
10cc 2C        INC     L
10cd 2D        DEC     L
10ce C8        RET     Z

10cf 78        LD      A,B
10d0 EE80      XOR     #80
10d2 47        LD      B,A
10d3 C9        RET     

10d4 D9        EXX     
10d5 2C        INC     L
10d6 2D        DEC     L
10d7 D9        EXX     
10d8 3E02      LD      A,#02
10da CA2E1F    JP      Z,#1F2E
10dd 7D        LD      A,L
10de B7        OR      A
10df C8        RET     Z

10e0 D9        EXX     
10e1 95        SUB     L
10e2 D9        EXX     
10e3 3F        CCF     
10e4 CD9311    CALL    #1193
10e7 E5        PUSH    HL
10e8 E5        PUSH    HL
10e9 E5        PUSH    HL
10ea DD39      ADD     IX,SP
10ec D9        EXX     
10ed 2E05      LD      L,#05
10ef D9        EXX     
10f0 3E08      LD      A,#08
10f2 08        EX      AF,AF'
10f3 CD0C12    CALL    #120C
10f6 3803      JR      C,#10FB
10f8 CDF211    CALL    #11F2
10fb 3F        CCF     
10fc CB15      RL      L
10fe 08        EX      AF,AF'
10ff 3D        DEC     A
1100 200C      JR      NZ,#110E
1102 DD7505    LD      (IX+#05),L
1105 DD2B      DEC     IX
1107 D9        EXX     
1108 2D        DEC     L
1109 D9        EXX     
110a 280E      JR      Z,#111A
110c 3E08      LD      A,#08
110e CDCC11    CALL    #11CC
1111 30DF      JR      NC,#10F2
1113 08        EX      AF,AF'
1114 CDF211    CALL    #11F2
1117 B7        OR      A
1118 18E1      JR      #10FB
111a CDCC11    CALL    #11CC
111d 3804      JR      C,#1123
111f CD0C12    CALL    #120C
1122 3F        CCF     
1123 E1        POP     HL
1124 D1        POP     DE
1125 C1        POP     BC
1126 CB78      BIT     7,B
1128 2005      JR      NZ,#112F
112a CDCD11    CALL    #11CD
112d 1850      JR      #117F
112f 2C        INC     L
1130 204D      JR      NZ,#117F
1132 37        SCF     
1133 184B      JR      #1180
1135 D9        EXX     
1136 7D        LD      A,L
1137 B7        OR      A
1138 D9        EXX     
1139 CAB811    JP      Z,#11B8
113c 7D        LD      A,L
113d B7        OR      A
113e C8        RET     Z

113f D9        EXX     
1140 85        ADD     A,L
1141 D9        EXX     
1142 CD9311    CALL    #1193
1145 C5        PUSH    BC
1146 D5        PUSH    DE
1147 E5        PUSH    HL
1148 DD39      ADD     IX,SP
114a CDB811    CALL    #11B8
114d D9        EXX     
114e 2E05      LD      L,#05
1150 D9        EXX     
1151 3E08      LD      A,#08
1153 DD23      INC     IX
1155 DD6E00    LD      L,(IX+#00)
1158 08        EX      AF,AF'
1159 CB1D      RR      L
115b 3003      JR      NC,#1160
115d CDD811    CALL    #11D8
1160 CDC111    CALL    #11C1
1163 08        EX      AF,AF'
1164 3D        DEC     A
1165 20F1      JR      NZ,#1158
1167 D9        EXX     
1168 2D        DEC     L
1169 D9        EXX     
116a 20E5      JR      NZ,#1151
116c DD6EFB    LD      L,(IX-#05)
116f CB78      BIT     7,B
1171 2009      JR      NZ,#117C
1173 08        EX      AF,AF'
1174 CDCD11    CALL    #11CD
1177 2C        INC     L
1178 2D        DEC     L
1179 2801      JR      Z,#117C
117b 2D        DEC     L
117c F1        POP     AF
117d F1        POP     AF
117e F1        POP     AF
117f B7        OR      A
1180 08        EX      AF,AF'
1181 F1        POP     AF
1182 D9        EXX     
1183 C1        POP     BC
1184 E1        POP     HL
1185 D9        EXX     
1186 DDE1      POP     IX
1188 CBB8      RES     7,B
118a B0        OR      B
118b 47        LD      B,A
118c 2C        INC     L
118d 2D        DEC     L
118e CCB811    CALL    Z,#11B8
1191 08        EX      AF,AF'
1192 C9        RET     

1193 3806      JR      C,#119B
1195 C680      ADD     A,#80
1197 3806      JR      C,#119F
1199 181B      JR      #11B6
119b C680      ADD     A,#80
119d 3817      JR      C,#11B6
119f 6F        LD      L,A
11a0 DDE3      EX      (SP),IX
11a2 D9        EXX     
11a3 E5        PUSH    HL
11a4 C5        PUSH    BC
11a5 78        LD      A,B
11a6 CBF8      SET     7,B
11a8 D9        EXX     
11a9 A8        XOR     B
11aa E680      AND     #80
11ac F5        PUSH    AF
11ad CBF8      SET     7,B
11af DDE5      PUSH    IX
11b1 DD210000  LD      IX,#0000
11b5 C9        RET     

11b6 E1        POP     HL
11b7 D8        RET     C

11b8 AF        XOR     A
11b9 6F        LD      L,A
11ba 47        LD      B,A
11bb 4F        LD      C,A
11bc 57        LD      D,A
11bd 5F        LD      E,A
11be 67        LD      H,A
11bf C9        RET     

11c0 B7        OR      A
11c1 CB18      RR      B
11c3 CB19      RR      C
11c5 CB1A      RR      D
11c7 CB1B      RR      E
11c9 CB1C      RR      H
11cb C9        RET     

11cc B7        OR      A
11cd CB14      RL      H
11cf CB13      RL      E
11d1 CB12      RL      D
11d3 CB11      RL      C
11d5 CB10      RL      B
11d7 C9        RET     

11d8 7C        LD      A,H
11d9 D9        EXX     
11da 84        ADD     A,H
11db D9        EXX     
11dc 67        LD      H,A
11dd 7B        LD      A,E
11de D9        EXX     
11df 8B        ADC     A,E
11e0 D9        EXX     
11e1 5F        LD      E,A
11e2 7A        LD      A,D
11e3 D9        EXX     
11e4 8A        ADC     A,D
11e5 D9        EXX     
11e6 57        LD      D,A
11e7 79        LD      A,C
11e8 D9        EXX     
11e9 89        ADC     A,C
11ea D9        EXX     
11eb 4F        LD      C,A
11ec 78        LD      A,B
11ed D9        EXX     
11ee 88        ADC     A,B
11ef D9        EXX     
11f0 47        LD      B,A
11f1 C9        RET     

11f2 7C        LD      A,H
11f3 D9        EXX     
11f4 94        SUB     H
11f5 D9        EXX     
11f6 67        LD      H,A
11f7 7B        LD      A,E
11f8 D9        EXX     
11f9 9B        SBC     A,E
11fa D9        EXX     
11fb 5F        LD      E,A
11fc 7A        LD      A,D
11fd D9        EXX     
11fe 9A        SBC     A,D
11ff D9        EXX     
1200 57        LD      D,A
1201 79        LD      A,C
1202 D9        EXX     
1203 99        SBC     A,C
1204 D9        EXX     
1205 4F        LD      C,A
1206 78        LD      A,B
1207 D9        EXX     
1208 98        SBC     A,B
1209 D9        EXX     
120a 47        LD      B,A
120b C9        RET     

120c 78        LD      A,B
120d D9        EXX     
120e B8        CP      B
120f D9        EXX     
1210 C0        RET     NZ

1211 79        LD      A,C
1212 D9        EXX     
1213 B9        CP      C
1214 D9        EXX     
1215 C0        RET     NZ

1216 7A        LD      A,D
1217 D9        EXX     
1218 BA        CP      D
1219 D9        EXX     
121a C0        RET     NZ

121b 7B        LD      A,E
121c D9        EXX     
121d BB        CP      E
121e D9        EXX     
121f C0        RET     NZ

1220 7C        LD      A,H
1221 D9        EXX     
1222 BC        CP      H
1223 D9        EXX     
1224 C9        RET     

1225 D9        EXX     
1226 78        LD      A,B
1227 D9        EXX     
1228 A8        XOR     B
1229 F22F12    JP      P,#122F
122c 78        LD      A,B
122d 17        RLA     
122e C9        RET     

122f CB78      BIT     7,B
1231 2806      JR      Z,#1239
1233 CD3912    CALL    #1239
1236 C8        RET     Z

1237 3F        CCF     
1238 C9        RET     

1239 7D        LD      A,L
123a D9        EXX     
123b BD        CP      L
123c D9        EXX     
123d C0        RET     NZ

123e B7        OR      A
123f C8        RET     Z

1240 C30C12    JP      #120C
1243 DDE1      POP     IX
1245 CDE21A    CALL    #1AE2
1248 ED7B9F0C  LD      SP,(#0C9F)
124c DDE5      PUSH    IX
124e 1809      JR      #1259
1250 CD2512    CALL    #1225
1253 1804      JR      #1259
1255 EB        EX      DE,HL
1256 CD7419    CALL    #1974
1259 E3        EX      (SP),HL
125a 7E        LD      A,(HL)
125b 23        INC     HL
125c E3        EX      (SP),HL
125d 210000    LD      HL,#0000
1260 F5        PUSH    AF
1261 C1        POP     BC
1262 CB7F      BIT     7,A
1264 2004      JR      NZ,#126A
1266 A1        AND     C
1267 C0        RET     NZ

1268 2B        DEC     HL
1269 C9        RET     

126a CBBF      RES     7,A
126c A1        AND     C
126d C8        RET     Z

126e 2B        DEC     HL
126f C9        RET     

1270 7D        LD      A,L
1271 D681      SUB     #81
1273 DAB811    JP      C,#11B8
1276 3C        INC     A
1277 FE28      CP      #28
1279 D0        RET     NC

127a D9        EXX     
127b C5        PUSH    BC
127c D5        PUSH    DE
127d E5        PUSH    HL
127e 08        EX      AF,AF'
127f CDB811    CALL    #11B8
1282 08        EX      AF,AF'
1283 37        SCF     
1284 CDC111    CALL    #11C1
1287 3D        DEC     A
1288 20F9      JR      NZ,#1283
128a D9        EXX     
128b 7C        LD      A,H
128c D9        EXX     
128d A4        AND     H
128e D9        EXX     
128f 67        LD      H,A
1290 7B        LD      A,E
1291 D9        EXX     
1292 A3        AND     E
1293 D9        EXX     
1294 5F        LD      E,A
1295 7A        LD      A,D
1296 D9        EXX     
1297 A2        AND     D
1298 D9        EXX     
1299 57        LD      D,A
129a 79        LD      A,C
129b D9        EXX     
129c A1        AND     C
129d D9        EXX     
129e 4F        LD      C,A
129f 78        LD      A,B
12a0 D9        EXX     
12a1 A0        AND     B
12a2 D9        EXX     
12a3 47        LD      B,A
12a4 C3AB10    JP      #10AB
12a7 D9        EXX     
12a8 C5        PUSH    BC
12a9 D5        PUSH    DE
12aa E5        PUSH    HL
12ab D9        EXX     
12ac CDE515    CALL    #15E5
12af D9        EXX     
12b0 CD7012    CALL    #1270
12b3 D9        EXX     
12b4 CDBF10    CALL    #10BF
12b7 18EB      JR      #12A4
12b9 7D        LD      A,L
12ba B7        OR      A
12bb C8        RET     Z

12bc CB78      BIT     7,B
12be 3E03      LD      A,#03
12c0 C21421    JP      NZ,#2114
12c3 CDE515    CALL    #15E5
12c6 7D        LD      A,L
12c7 C680      ADD     A,#80
12c9 CB2F      SRA     A
12cb C680      ADD     A,#80
12cd 6F        LD      L,A
12ce D614      SUB     #14
12d0 F5        PUSH    AF
12d1 D9        EXX     
12d2 C5        PUSH    BC
12d3 D5        PUSH    DE
12d4 E5        PUSH    HL
12d5 CDD410    CALL    #10D4
12d8 CD3810    CALL    #1038
12db 2D        DEC     L
12dc C5        PUSH    BC
12dd D5        PUSH    DE
12de E5        PUSH    HL
12df CDBF10    CALL    #10BF
12e2 7D        LD      A,L
12e3 E1        POP     HL
12e4 D1        POP     DE
12e5 C1        POP     BC
12e6 D9        EXX     
12e7 E1        POP     HL
12e8 D1        POP     DE
12e9 C1        POP     BC
12ea E3        EX      (SP),HL
12eb BC        CP      H
12ec E3        EX      (SP),HL
12ed 30E3      JR      NC,#12D2
12ef F1        POP     AF
12f0 D9        EXX     
12f1 C9        RET     

12f2 D9        EXX     
12f3 CDD115    CALL    #15D1
12f6 2D        DEC     L
12f7 CDBF10    CALL    #10BF
12fa D9        EXX     
12fb CDD115    CALL    #15D1
12fe 2C        INC     L
12ff D9        EXX     
1300 7D        LD      A,L
1301 FE6C      CP      #6C
1303 D8        RET     C

1304 C5        PUSH    BC
1305 CBB8      RES     7,B
1307 CD2512    CALL    #1225
130a C1        POP     BC
130b 3809      JR      C,#1316
130d CDD410    CALL    #10D4
1310 CDA712    CALL    #12A7
1313 CD3511    CALL    #1135
1316 CB78      BIT     7,B
1318 2803      JR      Z,#131D
131a CD3810    CALL    #1038
131d D9        EXX     
131e 2D        DEC     L
131f D9        EXX     
1320 CD2512    CALL    #1225
1323 F5        PUSH    AF
1324 3803      JR      C,#1329
1326 CDBF10    CALL    #10BF
1329 D9        EXX     
132a 2D        DEC     L
132b D9        EXX     
132c CD2512    CALL    #1225
132f 3805      JR      C,#1336
1331 D9        EXX     
1332 2C        INC     L
1333 CDBF10    CALL    #10BF
1336 7D        LD      A,L
1337 FE6C      CP      #6C
1339 383B      JR      C,#1376
133b D9        EXX     
133c 01AA2A    LD      BC,#2AAA
133f 11AAAA    LD      DE,#AAAA
1342 217FAA    LD      HL,#AA7F
1345 CD3511    CALL    #1135
1348 DDE5      PUSH    IX
134a DD217A13  LD      IX,#137A
134e 3E05      LD      A,#05
1350 CD8415    CALL    #1584
1353 DDE1      POP     IX
1355 CDE515    CALL    #15E5
1358 CD3511    CALL    #1135
135b CD3511    CALL    #1135
135e C5        PUSH    BC
135f D5        PUSH    DE
1360 E5        PUSH    HL
1361 D9        EXX     
1362 CDE515    CALL    #15E5
1365 2D        DEC     L
1366 2D        DEC     L
1367 D9        EXX     
1368 2D        DEC     L
1369 CD3810    CALL    #1038
136c D9        EXX     
136d E1        POP     HL
136e D1        POP     DE
136f C1        POP     BC
1370 D9        EXX     
1371 CDBF10    CALL    #10BF
1374 2C        INC     L
1375 2C        INC     L
1376 F1        POP     AF
1377 2C        INC     L
1378 2D        DEC     L
1379 C8        RET     Z

137a D8        RET     C

137b 78        LD      A,B
137c EE80      XOR     #80
137e 47        LD      B,A
137f C9        RET     

1380 00        NOP     
1381 DC0000    CALL    C,#0000
1384 87        ADD     A,A
1385 00        NOP     
1386 80        ADD     A,B
1387 77        LD      (HL),A
1388 00        NOP     
1389 00        NOP     
138a 8D        ADC     A,L
138b 00        NOP     
138c 6C        LD      L,H
138d A2        AND     D
138e 00        NOP     
138f 00        NOP     
1390 93        SUB     E
1391 00        NOP     
1392 07        RLCA    
1393 4B        LD      C,E
1394 00        NOP     
1395 00        NOP     
1396 97        SUB     A
1397 00        NOP     
1398 45        LD      B,L
1399 98        SBC     A,B
139a 00        NOP     
139b 40        LD      B,B
139c 9A        SBC     A,D
139d 00        NOP     
139e 2C        INC     L
139f 2D        DEC     L
13a0 3E04      LD      A,#04
13a2 CA1421    JP      Z,#2114
13a5 CB78      BIT     7,B
13a7 C21421    JP      NZ,#2114
13aa D9        EXX     
13ab 010435    LD      BC,#3504
13ae 1133F3    LD      DE,#F333
13b1 2180FB    LD      HL,#FB80
13b4 D9        EXX     
13b5 7D        LD      A,L
13b6 2E81      LD      L,#81
13b8 95        SUB     L
13b9 F5        PUSH    AF
13ba CD3511    CALL    #1135
13bd D9        EXX     
13be CD1019    CALL    #1910
13c1 D9        EXX     
13c2 CDBF10    CALL    #10BF
13c5 C5        PUSH    BC
13c6 D5        PUSH    DE
13c7 E5        PUSH    HL
13c8 D9        EXX     
13c9 2C        INC     L
13ca CD3810    CALL    #1038
13cd D9        EXX     
13ce E1        POP     HL
13cf D1        POP     DE
13d0 C1        POP     BC
13d1 CDD410    CALL    #10D4
13d4 DDE5      PUSH    IX
13d6 DD210514  LD      IX,#1405
13da 3E06      LD      A,#06
13dc CD8415    CALL    #1584
13df DDE1      POP     IX
13e1 2C        INC     L
13e2 D9        EXX     
13e3 CDDB15    CALL    #15DB
13e6 2D        DEC     L
13e7 D9        EXX     
13e8 CD3810    CALL    #1038
13eb F1        POP     AF
13ec C5        PUSH    BC
13ed D5        PUSH    DE
13ee E5        PUSH    HL
13ef 6F        LD      L,A
13f0 2600      LD      H,#00
13f2 3001      JR      NC,#13F5
13f4 25        DEC     H
13f5 CD2316    CALL    #1623
13f8 D9        EXX     
13f9 2C        INC     L
13fa CD3511    CALL    #1135
13fd D9        EXX     
13fe E1        POP     HL
13ff D1        POP     DE
1400 C1        POP     BC
1401 CD3810    CALL    #1038
1404 7D        LD      A,L
1405 FE67      CP      #67
1407 DAB811    JP      C,#11B8
140a C9        RET     

140b 45        LD      B,L
140c 17        RLA     
140d 74        LD      (HL),H
140e D1        POP     DE
140f 81        ADD     A,C
1410 5D        LD      E,L
1411 E3        EX      (SP),HL
1412 3838      JR      C,#144C
1414 8E        ADC     A,(HL)
1415 81        ADD     A,C
1416 E4B66D    CALL    PO,#6DB6
1419 6D        LD      L,L
141a DB81      IN      A,(#81)
141c B7        OR      A
141d 66        LD      H,(HL)
141e 2666      LD      H,#66
1420 66        LD      H,(HL)
1421 82        ADD     A,D
1422 66        LD      H,(HL)
1423 AA        XOR     D
1424 0A        LD      A,(BC)
1425 AA        XOR     D
1426 AA        XOR     D
1427 83        ADD     A,E
1428 AB        XOR     E
1429 00        NOP     
142a 50        LD      D,B
142b 00        NOP     
142c 00        NOP     
142d 84        ADD     A,H
142e 00        NOP     
142f D9        EXX     
1430 CDDB15    CALL    #15DB
1433 D9        EXX     
1434 B7        OR      A
1435 CB78      BIT     7,B
1437 F5        PUSH    AF
1438 CBB8      RES     7,B
143a CDD410    CALL    #10D4
143d 7D        LD      A,L
143e FE88      CP      #88
1440 D28510    JP      NC,#1085
1443 CDE515    CALL    #15E5
1446 CDA712    CALL    #12A7
1449 D9        EXX     
144a CDFB15    CALL    #15FB
144d 7D        LD      A,L
144e F5        PUSH    AF
144f D9        EXX     
1450 DDE5      PUSH    IX
1452 DD216614  LD      IX,#1466
1456 3E07      LD      A,#07
1458 CD9915    CALL    #1599
145b DDE1      POP     IX
145d F1        POP     AF
145e 85        ADD     A,L
145f 6F        LD      L,A
1460 DA8510    JP      C,#1085
1463 F1        POP     AF
1464 C8        RET     Z

1465 D9        EXX     
1466 CD1019    CALL    #1910
1469 C3D410    JP      #10D4
146c 56        LD      D,(HL)
146d 53        LD      D,E
146e 0E1A      LD      C,#1A
1470 83        ADD     A,E
1471 DE1B      SBC     A,#1B
1473 78        LD      A,B
1474 FF        RST     #38
1475 C386FB    JP      #FB86
1478 015E18    LD      BC,#185E
147b 53        LD      D,E
147c 89        ADC     A,C
147d F1        POP     AF
147e 39        ADD     HL,SP
147f 2042      JR      NZ,#14C3
1481 118C41    LD      DE,#418C
1484 5C        LD      E,H
1485 2D        DEC     L
1486 F65C      OR      #5C
1488 8E        ADC     A,(HL)
1489 DF        RST     #18
148a 1B        DEC     DE
148b 7A        LD      A,D
148c DB5E      IN      A,(#5E)
148e 8F        ADC     A,A
148f CD6934    CALL    #3469
1492 07        RLCA    
1493 FC90E5    CALL    M,#E590
1496 7D        LD      A,L
1497 B7        OR      A
1498 C8        RET     Z

1499 DDE5      PUSH    IX
149b D9        EXX     
149c CD1019    CALL    #1910
149f D9        EXX     
14a0 AF        XOR     A
14a1 CB78      BIT     7,B
14a3 2803      JR      Z,#14A8
14a5 3C        INC     A
14a6 CBB8      RES     7,B
14a8 F5        PUSH    AF
14a9 CD2512    CALL    #1225
14ac 3808      JR      C,#14B6
14ae D9        EXX     
14af CDD410    CALL    #10D4
14b2 F1        POP     AF
14b3 CBFF      SET     7,A
14b5 F5        PUSH    AF
14b6 D9        EXX     
14b7 01CF06    LD      BC,#06CF
14ba 118EE9    LD      DE,#E98E
14bd 217E4A    LD      HL,#4A7E
14c0 D9        EXX     
14c1 CD2512    CALL    #1225
14c4 3005      JR      NC,#14CB
14c6 CD7E15    CALL    #157E
14c9 184F      JR      #151A
14cb DD211E15  LD      IX,#151E
14cf 3E02      LD      A,#02
14d1 08        EX      AF,AF'
14d2 D9        EXX     
14d3 111200    LD      DE,#0012
14d6 DD19      ADD     IX,DE
14d8 CDC315    CALL    #15C3
14db D9        EXX     
14dc CD2512    CALL    #1225
14df 380B      JR      C,#14EC
14e1 08        EX      AF,AF'
14e2 3D        DEC     A
14e3 20EC      JR      NZ,#14D1
14e5 D9        EXX     
14e6 110C00    LD      DE,#000C
14e9 DD19      ADD     IX,DE
14eb D9        EXX     
14ec D9        EXX     
14ed CDBE15    CALL    #15BE
14f0 CBF8      SET     7,B
14f2 CD3810    CALL    #1038
14f5 C5        PUSH    BC
14f6 D5        PUSH    DE
14f7 E5        PUSH    HL
14f8 CDC315    CALL    #15C3
14fb CD3511    CALL    #1135
14fe D9        EXX     
14ff CD1019    CALL    #1910
1502 CD3810    CALL    #1038
1505 D9        EXX     
1506 E1        POP     HL
1507 D1        POP     DE
1508 C1        POP     BC
1509 CDD410    CALL    #10D4
150c DDE5      PUSH    IX
150e CD7E15    CALL    #157E
1511 DDE1      POP     IX
1513 D9        EXX     
1514 CDBE15    CALL    #15BE
1517 CD3810    CALL    #1038
151a F1        POP     AF
151b 17        RLA     
151c 300A      JR      NC,#1528
151e F5        PUSH    AF
151f D9        EXX     
1520 CDD115    CALL    #15D1
1523 2D        DEC     L
1524 CDBF10    CALL    #10BF
1527 F1        POP     AF
1528 DDE1      POP     IX
152a CB4F      BIT     1,A
152c C8        RET     Z

152d CBF8      SET     7,B
152f C9        RET     

1530 13        INC     DE
1531 54        LD      D,H
1532 CF        RST     #08
1533 CC7FE7    CALL    Z,#E77F
1536 3009      JR      NC,#1541
1538 F4A27F    CALL    P,#7FA2
153b F60A      OR      #0A
153d 06C1      LD      B,#C1
153f 91        SUB     C
1540 7F        LD      A,A
1541 6A        LD      L,D
1542 6F        LD      L,A
1543 44        LD      B,H
1544 9E        SBC     A,(HL)
1545 8A        ADC     A,D
1546 80        ADD     A,B
1547 B5        OR      L
1548 CD132C    CALL    #2C13
154b 3A8082    LD      A,(#8280)
154e 0A        LD      A,(BC)
154f 06C1      LD      B,#C1
1551 91        SUB     C
1552 80        ADD     A,B
1553 6A        LD      L,D
1554 00        NOP     
1555 00        NOP     
1556 00        NOP     
1557 00        NOP     
1558 81        ADD     A,C
1559 00        NOP     
155a 0F        RRCA    
155b 49        LD      C,C
155c A2        AND     D
155d DA8021    JP      C,#2180
1560 71        LD      (HL),C
1561 9C        SBC     A,H
1562 1C        INC     E
1563 C7        RST     #00
1564 81        ADD     A,C
1565 72        LD      (HL),D
1566 24        INC     H
1567 49        LD      C,C
1568 49        LD      C,C
1569 92        SUB     D
156a 81        ADD     A,C
156b 25        DEC     H
156c CC8CCC    CALL    Z,#CC8C
156f CC82CD    CALL    Z,#CD82
1572 AA        XOR     D
1573 6A        LD      L,D
1574 AA        XOR     D
1575 AA        XOR     D
1576 82        ADD     A,D
1577 AB        XOR     E
1578 00        NOP     
1579 B0        OR      B
157a 00        NOP     
157b 00        NOP     
157c 84        ADD     A,H
157d 00        NOP     
157e DD215A15  LD      IX,#155A
1582 3E05      LD      A,#05
1584 C5        PUSH    BC
1585 D5        PUSH    DE
1586 E5        PUSH    HL
1587 F5        PUSH    AF
1588 CDE515    CALL    #15E5
158b CD3511    CALL    #1135
158e F1        POP     AF
158f CD9915    CALL    #1599
1592 D9        EXX     
1593 E1        POP     HL
1594 D1        POP     DE
1595 C1        POP     BC
1596 C33511    JP      #1135
1599 D9        EXX     
159a CD1019    CALL    #1910
159d F5        PUSH    AF
159e CD3511    CALL    #1135
15a1 F1        POP     AF
15a2 F5        PUSH    AF
15a3 D9        EXX     
15a4 C5        PUSH    BC
15a5 D5        PUSH    DE
15a6 E5        PUSH    HL
15a7 CDBE15    CALL    #15BE
15aa CD3810    CALL    #1038
15ad D9        EXX     
15ae E1        POP     HL
15af D1        POP     DE
15b0 C1        POP     BC
15b1 D9        EXX     
15b2 F1        POP     AF
15b3 3D        DEC     A
15b4 20E7      JR      NZ,#159D
15b6 D9        EXX     
15b7 CDC315    CALL    #15C3
15ba D9        EXX     
15bb C3D410    JP      #10D4
15be 110600    LD      DE,#0006
15c1 DD19      ADD     IX,DE
15c3 ED73A50C  LD      (#0CA5),SP
15c7 DDF9      LD      SP,IX
15c9 C1        POP     BC
15ca D1        POP     DE
15cb E1        POP     HL
15cc ED7BA50C  LD      SP,(#0CA5)
15d0 C9        RET     

15d1 010F49    LD      BC,#490F
15d4 11A2DA    LD      DE,#DAA2
15d7 218221    LD      HL,#2182
15da C9        RET     

15db 017231    LD      BC,#3172
15de 11F717    LD      DE,#17F7
15e1 2180D2    LD      HL,#D280
15e4 C9        RET     

15e5 C5        PUSH    BC
15e6 D5        PUSH    DE
15e7 E5        PUSH    HL
15e8 D9        EXX     
15e9 E1        POP     HL
15ea D1        POP     DE
15eb C1        POP     BC
15ec C9        RET     

15ed CB78      BIT     7,B
15ef D9        EXX     
15f0 CD1019    CALL    #1910
15f3 2802      JR      Z,#15F7
15f5 CBF8      SET     7,B
15f7 2D        DEC     L
15f8 CD3810    CALL    #1038
15fb B7        OR      A
15fc CB7D      BIT     7,L
15fe CAA01F    JP      Z,#1FA0
1601 CB78      BIT     7,B
1603 08        EX      AF,AF'
1604 CBF8      SET     7,B
1606 3E8F      LD      A,#8F
1608 BD        CP      L
1609 DA1221    JP      C,#2112
160c 2806      JR      Z,#1614
160e CDC011    CALL    #11C0
1611 2C        INC     L
1612 18F2      JR      #1606
1614 CDC011    CALL    #11C0
1617 08        EX      AF,AF'
1618 2806      JR      Z,#1620
161a 210000    LD      HL,#0000
161d ED42      SBC     HL,BC
161f C9        RET     

1620 60        LD      H,B
1621 69        LD      L,C
1622 C9        RET     

1623 7C        LD      A,H
1624 B5        OR      L
1625 CAB811    JP      Z,#11B8
1628 CD6919    CALL    #1969
162b 08        EX      AF,AF'
162c 44        LD      B,H
162d 4D        LD      C,L
162e 110000    LD      DE,#0000
1631 219000    LD      HL,#0090
1634 CB78      BIT     7,B
1636 2006      JR      NZ,#163E
1638 CDCC11    CALL    #11CC
163b 2D        DEC     L
163c 18F6      JR      #1634
163e 08        EX      AF,AF'
163f D8        RET     C

1640 CBB8      RES     7,B
1642 C9        RET     

1643 FDE1      POP     IY
1645 D1        POP     DE
1646 D9        EXX     
1647 E1        POP     HL
1648 D1        POP     DE
1649 C1        POP     BC
164a D9        EXX     
164b FDE5      PUSH    IY
164d D5        PUSH    DE
164e FD21F3FF  LD      IY,#FFF3
1652 FD39      ADD     IY,SP
1654 FDF9      LD      SP,IY
1656 CD4B1B    CALL    #1B4B
1659 EB        EX      DE,HL
165a 1E00      LD      E,#00
165c 3804      JR      C,#1662
165e FE19      CP      #19
1660 3810      JR      C,#1672
1662 1D        DEC     E
1663 CD4B1B    CALL    #1B4B
1666 D608      SUB     #08
1668 3001      JR      NC,#166B
166a AF        XOR     A
166b FE09      CP      #09
166d 3802      JR      C,#1671
166f 3E09      LD      A,#09
1671 3C        INC     A
1672 57        LD      D,A
1673 D5        PUSH    DE
1674 D9        EXX     
1675 2C        INC     L
1676 2D        DEC     L
1677 2007      JR      NZ,#1680
1679 D1        POP     DE
167a FD7500    LD      (IY+#00),L
167d C34B17    JP      #174B
1680 C5        PUSH    BC
1681 CBB8      RES     7,B
1683 7D        LD      A,L
1684 D9        EXX     
1685 2600      LD      H,#00
1687 D680      SUB     #80
1689 3001      JR      NC,#168C
168b 25        DEC     H
168c 6F        LD      L,A
168d 114D00    LD      DE,#004D
1690 CD1A19    CALL    #191A
1693 110500    LD      DE,#0005
1696 19        ADD     HL,DE
1697 7C        LD      A,H
1698 FED9      CP      #D9
169a 2001      JR      NZ,#169D
169c 3C        INC     A
169d FD7700    LD      (IY+#00),A
16a0 ED44      NEG     
16a2 CDD717    CALL    #17D7
16a5 7D        LD      A,L
16a6 FE81      CP      #81
16a8 3006      JR      NC,#16B0
16aa FD3500    DEC     (IY+#00)
16ad CD4A18    CALL    #184A
16b0 CBF8      SET     7,B
16b2 3E84      LD      A,#84
16b4 95        SUB     L
16b5 2E00      LD      L,#00
16b7 2808      JR      Z,#16C1
16b9 CDC011    CALL    #11C0
16bc CB1D      RR      L
16be 3D        DEC     A
16bf 20F8      JR      NZ,#16B9
16c1 FD7E00    LD      A,(IY+#00)
16c4 FD360000  LD      (IY+#00),#00
16c8 FDE5      PUSH    IY
16ca F5        PUSH    AF
16cb 3E0C      LD      A,#0C
16cd 08        EX      AF,AF'
16ce 78        LD      A,B
16cf 1F        RRA     
16d0 1F        RRA     
16d1 1F        RRA     
16d2 1F        RRA     
16d3 E60F      AND     #0F
16d5 C630      ADD     A,#30
16d7 FD23      INC     IY
16d9 FD7700    LD      (IY+#00),A
16dc 78        LD      A,B
16dd E60F      AND     #0F
16df 47        LD      B,A
16e0 C5        PUSH    BC
16e1 D5        PUSH    DE
16e2 E5        PUSH    HL
16e3 CB25      SLA     L
16e5 CDCD11    CALL    #11CD
16e8 CB25      SLA     L
16ea CDCD11    CALL    #11CD
16ed EB        EX      DE,HL
16ee E3        EX      (SP),HL
16ef 19        ADD     HL,DE
16f0 D1        POP     DE
16f1 E3        EX      (SP),HL
16f2 ED5A      ADC     HL,DE
16f4 EB        EX      DE,HL
16f5 E1        POP     HL
16f6 E3        EX      (SP),HL
16f7 ED4A      ADC     HL,BC
16f9 44        LD      B,H
16fa 4D        LD      C,L
16fb E1        POP     HL
16fc CB25      SLA     L
16fe CDCD11    CALL    #11CD
1701 08        EX      AF,AF'
1702 3D        DEC     A
1703 20C8      JR      NZ,#16CD
1705 F1        POP     AF
1706 FDE1      POP     IY
1708 C1        POP     BC
1709 FD23      INC     IY
170b 4F        LD      C,A
170c D1        POP     DE
170d 7A        LD      A,D
170e 3C        INC     A
170f CB7B      BIT     7,E
1711 200A      JR      NZ,#171D
1713 81        ADD     A,C
1714 FA7A16    JP      M,#167A
1717 FE0C      CP      #0C
1719 3802      JR      C,#171D
171b 3E0B      LD      A,#0B
171d FDE5      PUSH    IY
171f E1        POP     HL
1720 85        ADD     A,L
1721 6F        LD      L,A
1722 3001      JR      NC,#1725
1724 24        INC     H
1725 7E        LD      A,(HL)
1726 3600      LD      (HL),#00
1728 FE35      CP      #35
172a 380F      JR      C,#173B
172c 2B        DEC     HL
172d 7E        LD      A,(HL)
172e B7        OR      A
172f 2813      JR      Z,#1744
1731 3C        INC     A
1732 77        LD      (HL),A
1733 FE3A      CP      #3A
1735 3814      JR      C,#174B
1737 3600      LD      (HL),#00
1739 18F1      JR      #172C
173b 2B        DEC     HL
173c 7E        LD      A,(HL)
173d D630      SUB     #30
173f 200A      JR      NZ,#174B
1741 77        LD      (HL),A
1742 18F7      JR      #173B
1744 23        INC     HL
1745 3631      LD      (HL),#31
1747 23        INC     HL
1748 3600      LD      (HL),#00
174a 0C        INC     C
174b DD21C00C  LD      IX,#0CC0
174f FD7E00    LD      A,(IY+#00)
1752 B7        OR      A
1753 2002      JR      NZ,#1757
1755 47        LD      B,A
1756 4F        LD      C,A
1757 CB78      BIT     7,B
1759 2805      JR      Z,#1760
175b 3E2D      LD      A,#2D
175d CDD117    CALL    #17D1
1760 CB7B      BIT     7,E
1762 2803      JR      Z,#1767
1764 61        LD      H,C
1765 0E00      LD      C,#00
1767 CB79      BIT     7,C
1769 2805      JR      Z,#1770
176b CDCF17    CALL    #17CF
176e 1807      JR      #1777
1770 CDC517    CALL    #17C5
1773 0D        DEC     C
1774 F27017    JP      P,#1770
1777 7A        LD      A,D
1778 B7        OR      A
1779 2817      JR      Z,#1792
177b 3E2E      LD      A,#2E
177d CDD117    CALL    #17D1
1780 0C        INC     C
1781 2806      JR      Z,#1789
1783 CDCF17    CALL    #17CF
1786 15        DEC     D
1787 20F7      JR      NZ,#1780
1789 15        DEC     D
178a FA9217    JP      M,#1792
178d CDC517    CALL    #17C5
1790 18F7      JR      #1789
1792 CB7B      BIT     7,E
1794 2826      JR      Z,#17BC
1796 3E45      LD      A,#45
1798 CDD117    CALL    #17D1
179b 3E2B      LD      A,#2B
179d CB7C      BIT     7,H
179f 2806      JR      Z,#17A7
17a1 7C        LD      A,H
17a2 ED44      NEG     
17a4 67        LD      H,A
17a5 3E2D      LD      A,#2D
17a7 CDD117    CALL    #17D1
17aa 7C        LD      A,H
17ab 062F      LD      B,#2F
17ad 04        INC     B
17ae D60A      SUB     #0A
17b0 30FB      JR      NC,#17AD
17b2 C63A      ADD     A,#3A
17b4 DD7000    LD      (IX+#00),B
17b7 DD23      INC     IX
17b9 CDD117    CALL    #17D1
17bc 210D00    LD      HL,#000D
17bf 39        ADD     HL,SP
17c0 F9        LD      SP,HL
17c1 E1        POP     HL
17c2 C3721B    JP      #1B72
17c5 FD7E00    LD      A,(IY+#00)
17c8 FD23      INC     IY
17ca B7        OR      A
17cb 2004      JR      NZ,#17D1
17cd FD2B      DEC     IY
17cf 3E30      LD      A,#30
17d1 DD7700    LD      (IX+#00),A
17d4 DD23      INC     IX
17d6 C9        RET     

17d7 F5        PUSH    AF
17d8 B7        OR      A
17d9 F2DE17    JP      P,#17DE
17dc ED44      NEG     
17de F5        PUSH    AF
17df CB3F      SRL     A
17e1 CB3F      SRL     A
17e3 21FAFF    LD      HL,#FFFA
17e6 110600    LD      DE,#0006
17e9 3C        INC     A
17ea 19        ADD     HL,DE
17eb 3D        DEC     A
17ec 20FC      JR      NZ,#17EA
17ee EB        EX      DE,HL
17ef DD210E18  LD      IX,#180E
17f3 DD19      ADD     IX,DE
17f5 CDC315    CALL    #15C3
17f8 F1        POP     AF
17f9 E603      AND     #03
17fb 2808      JR      Z,#1805
17fd F5        PUSH    AF
17fe CD4A18    CALL    #184A
1801 F1        POP     AF
1802 3D        DEC     A
1803 18F6      JR      #17FB
1805 F1        POP     AF
1806 B7        OR      A
1807 F23511    JP      P,#1135
180a D9        EXX     
180b C3D410    JP      #10D4
180e 00        NOP     
180f 00        NOP     
1810 00        NOP     
1811 00        NOP     
1812 81        ADD     A,C
1813 00        NOP     
1814 40        LD      B,B
1815 1C        INC     E
1816 00        NOP     
1817 00        NOP     
1818 8E        ADC     A,(HL)
1819 00        NOP     
181a BC        CP      H
181b 3E00      LD      A,#00
181d 209B      JR      NZ,#17BA
181f 00        NOP     
1820 D46810    CALL    NC,#1068
1823 A5        AND     L
1824 A8        XOR     B
1825 00        NOP     
1826 1B        DEC     DE
1827 0EBF      LD      C,#BF
1829 C9        RET     

182a B6        OR      (HL)
182b 04        INC     B
182c 78        LD      A,B
182d 2D        DEC     L
182e C5        PUSH    BC
182f EB        EX      DE,HL
1830 C3ACC2    JP      #C2AC
1833 53        LD      D,E
1834 CE1B      ADC     A,#1B
1836 D0        RET     NC

1837 CD3F01    CALL    #013F
183a 78        LD      A,B
183b 39        ADD     HL,SP
183c DEF9      SBC     A,#F9
183e C5        PUSH    BC
183f 1D        DEC     E
1840 A8        XOR     B
1841 AD        XOR     L
1842 EB        EX      DE,HL
1843 2B        DEC     HL
1844 97        SUB     A
1845 40        LD      B,B
1846 7B        LD      A,E
1847 CEF8      ADC     A,#F8
1849 C9        RET     

184a 7D        LD      A,L
184b B7        OR      A
184c C8        RET     Z

184d CBF8      SET     7,B
184f C5        PUSH    BC
1850 D5        PUSH    DE
1851 7C        LD      A,H
1852 CDC011    CALL    #11C0
1855 CDC011    CALL    #11C0
1858 84        ADD     A,H
1859 67        LD      H,A
185a E3        EX      (SP),HL
185b ED5A      ADC     HL,DE
185d EB        EX      DE,HL
185e E1        POP     HL
185f E3        EX      (SP),HL
1860 ED4A      ADC     HL,BC
1862 44        LD      B,H
1863 4D        LD      C,L
1864 E1        POP     HL
1865 3006      JR      NC,#186D
1867 CDC111    CALL    #11C1
186a 2C        INC     L
186b 37        SCF     
186c C8        RET     Z

186d 7D        LD      A,L
186e C603      ADD     A,#03
1870 6F        LD      L,A
1871 CBB8      RES     7,B
1873 C9        RET     

1874 D9        EXX     
1875 010000    LD      BC,#0000
1878 D9        EXX     
1879 CDB811    CALL    #11B8
187c DD2B      DEC     IX
187e DD23      INC     IX
1880 DD7E00    LD      A,(IX+#00)
1883 FE2E      CP      #2E
1885 200A      JR      NZ,#1891
1887 D9        EXX     
1888 CB70      BIT     6,B
188a 37        SCF     
188b C0        RET     NZ

188c CBF0      SET     6,B
188e D9        EXX     
188f 18ED      JR      #187E
1891 FE45      CP      #45
1893 2821      JR      Z,#18B6
1895 CD0919    CALL    #1909
1898 3054      JR      NC,#18EE
189a 08        EX      AF,AF'
189b CD4A18    CALL    #184A
189e D8        RET     C

189f 08        EX      AF,AF'
18a0 D9        EXX     
18a1 C5        PUSH    BC
18a2 6F        LD      L,A
18a3 2600      LD      H,#00
18a5 CD2316    CALL    #1623
18a8 CD3810    CALL    #1038
18ab D9        EXX     
18ac C1        POP     BC
18ad D8        RET     C

18ae CB70      BIT     6,B
18b0 2801      JR      Z,#18B3
18b2 0D        DEC     C
18b3 D9        EXX     
18b4 18C8      JR      #187E
18b6 CDEE18    CALL    #18EE
18b9 D8        RET     C

18ba D9        EXX     
18bb CBE0      SET     4,B
18bd DD23      INC     IX
18bf DD7E00    LD      A,(IX+#00)
18c2 FE2B      CP      #2B
18c4 2806      JR      Z,#18CC
18c6 FE2D      CP      #2D
18c8 2004      JR      NZ,#18CE
18ca CBE8      SET     5,B
18cc DD23      INC     IX
18ce CD0619    CALL    #1906
18d1 3F        CCF     
18d2 D8        RET     C

18d3 4F        LD      C,A
18d4 DD23      INC     IX
18d6 CD0619    CALL    #1906
18d9 300A      JR      NC,#18E5
18db DD23      INC     IX
18dd 57        LD      D,A
18de 79        LD      A,C
18df 87        ADD     A,A
18e0 87        ADD     A,A
18e1 81        ADD     A,C
18e2 87        ADD     A,A
18e3 82        ADD     A,D
18e4 4F        LD      C,A
18e5 CB68      BIT     5,B
18e7 2804      JR      Z,#18ED
18e9 79        LD      A,C
18ea ED44      NEG     
18ec 4F        LD      C,A
18ed D9        EXX     
18ee D9        EXX     
18ef 79        LD      A,C
18f0 C680      ADD     A,#80
18f2 FE5A      CP      #5A
18f4 D8        RET     C

18f5 FEA6      CP      #A6
18f7 3F        CCF     
18f8 D8        RET     C

18f9 C5        PUSH    BC
18fa DDE5      PUSH    IX
18fc 79        LD      A,C
18fd CDD717    CALL    #17D7
1900 DDE1      POP     IX
1902 D9        EXX     
1903 C1        POP     BC
1904 D9        EXX     
1905 C9        RET     

1906 DD7E00    LD      A,(IX+#00)
1909 D630      SUB     #30
190b 3F        CCF     
190c D0        RET     NC

190d FE0A      CP      #0A
190f C9        RET     

1910 218100    LD      HL,#0081
1913 44        LD      B,H
1914 4C        LD      C,H
1915 54        LD      D,H
1916 5C        LD      E,H
1917 C9        RET     

1918 54        LD      D,H
1919 5D        LD      E,L
191a 4B        LD      C,E
191b 42        LD      B,D
191c EB        EX      DE,HL
191d 210000    LD      HL,#0000
1920 3E10      LD      A,#10
1922 CB38      SRL     B
1924 CB19      RR      C
1926 3001      JR      NC,#1929
1928 19        ADD     HL,DE
1929 EB        EX      DE,HL
192a 29        ADD     HL,HL
192b EB        EX      DE,HL
192c 3D        DEC     A
192d 20F3      JR      NZ,#1922
192f C9        RET     

1930 EB        EX      DE,HL
1931 B7        OR      A
1932 CD6919    CALL    #1969
1935 EB        EX      DE,HL
1936 CD6919    CALL    #1969
1939 F5        PUSH    AF
193a 44        LD      B,H
193b 4D        LD      C,L
193c AF        XOR     A
193d 67        LD      H,A
193e 6F        LD      L,A
193f 3E11      LD      A,#11
1941 ED6A      ADC     HL,HL
1943 ED42      SBC     HL,BC
1945 3002      JR      NC,#1949
1947 09        ADD     HL,BC
1948 37        SCF     
1949 3F        CCF     
194a CB13      RL      E
194c CB12      RL      D
194e 3D        DEC     A
194f 20F0      JR      NZ,#1941
1951 EB        EX      DE,HL
1952 F1        POP     AF
1953 D0        RET     NC

1954 CD5919    CALL    #1959
1957 23        INC     HL
1958 C9        RET     

1959 7C        LD      A,H
195a 2F        CPL     
195b 67        LD      H,A
195c 7D        LD      A,L
195d 2F        CPL     
195e 6F        LD      L,A
195f C9        RET     

1960 CD3019    CALL    #1930
1963 EB        EX      DE,HL
1964 CB7A      BIT     7,D
1966 C8        RET     Z

1967 18EB      JR      #1954
1969 CB7C      BIT     7,H
196b C8        RET     Z

196c F5        PUSH    AF
196d CD5419    CALL    #1954
1970 F1        POP     AF
1971 3F        CCF     
1972 C9        RET     

1973 EB        EX      DE,HL
1974 B7        OR      A
1975 ED52      SBC     HL,DE
1977 19        ADD     HL,DE
1978 C8        RET     Z

1979 37        SCF     
197a EA8019    JP      PE,#1980
197d F8        RET     M

197e 3F        CCF     
197f C9        RET     

1980 F0        RET     P

1981 3F        CCF     
1982 C9        RET     

1983 CB45      BIT     0,L
1985 210000    LD      HL,#0000
1988 C8        RET     Z

1989 2B        DEC     HL
198a C9        RET     

198b 7C        LD      A,H
198c A2        AND     D
198d 67        LD      H,A
198e 7D        LD      A,L
198f A3        AND     E
1990 6F        LD      L,A
1991 C9        RET     

1992 7C        LD      A,H
1993 B2        OR      D
1994 67        LD      H,A
1995 7D        LD      A,L
1996 B3        OR      E
1997 6F        LD      L,A
1998 C9        RET     

1999 7C        LD      A,H
199a AA        XOR     D
199b 67        LD      H,A
199c 7D        LD      A,L
199d AB        XOR     E
199e 6F        LD      L,A
199f C9        RET     

19a0 CB7C      BIT     7,H
19a2 2009      JR      NZ,#19AD
19a4 EB        EX      DE,HL
19a5 CDBC19    CALL    #19BC
19a8 C8        RET     Z

19a9 29        ADD     HL,HL
19aa 10FD      DJNZ    #19A9
19ac C9        RET     

19ad CD5419    CALL    #1954
19b0 EB        EX      DE,HL
19b1 CDBC19    CALL    #19BC
19b4 C8        RET     Z

19b5 CB3C      SRL     H
19b7 CB1D      RR      L
19b9 10FA      DJNZ    #19B5
19bb C9        RET     

19bc 7A        LD      A,D
19bd B7        OR      A
19be 2008      JR      NZ,#19C8
19c0 7B        LD      A,E
19c1 47        LD      B,A
19c2 FE10      CP      #10
19c4 3002      JR      NC,#19C8
19c6 B7        OR      A
19c7 C9        RET     

19c8 AF        XOR     A
19c9 67        LD      H,A
19ca 6F        LD      L,A
19cb C9        RET     

19cc E3        EX      (SP),HL
19cd 5E        LD      E,(HL)
19ce 23        INC     HL
19cf 56        LD      D,(HL)
19d0 23        INC     HL
19d1 E3        EX      (SP),HL
19d2 7C        LD      A,H
19d3 BA        CP      D
19d4 C0        RET     NZ

19d5 7D        LD      A,L
19d6 BB        CP      E
19d7 C9        RET     

19d8 EB        EX      DE,HL
19d9 B7        OR      A
19da ED42      SBC     HL,BC
19dc EB        EX      DE,HL
19dd C37819    JP      #1978
19e0 CDD819    CALL    #19D8
19e3 C8        RET     Z

19e4 3F        CCF     
19e5 C9        RET     

19e6 210000    LD      HL,#0000
19e9 DD7E00    LD      A,(IX+#00)
19ec D630      SUB     #30
19ee 3817      JR      C,#1A07
19f0 FE0A      CP      #0A
19f2 3013      JR      NC,#1A07
19f4 54        LD      D,H
19f5 5D        LD      E,L
19f6 29        ADD     HL,HL
19f7 D8        RET     C

19f8 29        ADD     HL,HL
19f9 D8        RET     C

19fa 19        ADD     HL,DE
19fb D8        RET     C

19fc 29        ADD     HL,HL
19fd D8        RET     C

19fe 5F        LD      E,A
19ff 1600      LD      D,#00
1a01 19        ADD     HL,DE
1a02 D8        RET     C

1a03 DD23      INC     IX
1a05 18E2      JR      #19E9
1a07 B7        OR      A
1a08 CB7C      BIT     7,H
1a0a C8        RET     Z

1a0b 37        SCF     
1a0c C9        RET     

1a0d 01FF05    LD      BC,#05FF
1a10 113A1A    LD      DE,#1A3A
1a13 D5        PUSH    DE
1a14 E3        EX      (SP),HL
1a15 5E        LD      E,(HL)
1a16 23        INC     HL
1a17 56        LD      D,(HL)
1a18 23        INC     HL
1a19 E3        EX      (SP),HL
1a1a AF        XOR     A
1a1b 3C        INC     A
1a1c ED52      SBC     HL,DE
1a1e 30FB      JR      NC,#1A1B
1a20 19        ADD     HL,DE
1a21 3D        DEC     A
1a22 0C        INC     C
1a23 200A      JR      NZ,#1A2F
1a25 B7        OR      A
1a26 2007      JR      NZ,#1A2F
1a28 78        LD      A,B
1a29 3D        DEC     A
1a2a 2803      JR      Z,#1A2F
1a2c 0D        DEC     C
1a2d 1807      JR      #1A36
1a2f C630      ADD     A,#30
1a31 DD7700    LD      (IX+#00),A
1a34 DD23      INC     IX
1a36 10DC      DJNZ    #1A14
1a38 D1        POP     DE
1a39 C9        RET     

1a3a 1027      DJNZ    #1A63
1a3c E8        RET     PE

1a3d 03        INC     BC
1a3e 64        LD      H,H
1a3f 00        NOP     
1a40 0A        LD      A,(BC)
1a41 00        NOP     
1a42 0100DD    LD      BC,#DD00
1a45 E1        POP     HL
1a46 E1        POP     HL
1a47 E5        PUSH    HL
1a48 7D        LD      A,L
1a49 2600      LD      H,#00
1a4b 23        INC     HL
1a4c 39        ADD     HL,SP
1a4d F9        LD      SP,HL
1a4e 6F        LD      L,A
1a4f 2600      LD      H,#00
1a51 DDE9      JP      (IX)
1a53 DDE1      POP     IX
1a55 E1        POP     HL
1a56 E5        PUSH    HL
1a57 2600      LD      H,#00
1a59 39        ADD     HL,SP
1a5a F9        LD      SP,HL
1a5b 6E        LD      L,(HL)
1a5c 33        INC     SP
1a5d 18F0      JR      #1A4F
1a5f DDE1      POP     IX
1a61 DD4600    LD      B,(IX+#00)
1a64 DD23      INC     IX
1a66 05        DEC     B
1a67 2002      JR      NZ,#1A6B
1a69 DDE9      JP      (IX)
1a6b C5        PUSH    BC
1a6c 210200    LD      HL,#0002
1a6f 39        ADD     HL,SP
1a70 4E        LD      C,(HL)
1a71 0600      LD      B,#00
1a73 03        INC     BC
1a74 09        ADD     HL,BC
1a75 7E        LD      A,(HL)
1a76 0B        DEC     BC
1a77 81        ADD     A,C
1a78 DA1821    JP      C,#2118
1a7b 03        INC     BC
1a7c 54        LD      D,H
1a7d 5D        LD      E,L
1a7e 2B        DEC     HL
1a7f EDB8      LDDR    
1a81 13        INC     DE
1a82 12        LD      (DE),A
1a83 C1        POP     BC
1a84 33        INC     SP
1a85 18DF      JR      #1A66
1a87 DDE1      POP     IX
1a89 CD4B1B    CALL    #1B4B
1a8c 4F        LD      C,A
1a8d E1        POP     HL
1a8e CD4B1B    CALL    #1B4B
1a91 B7        OR      A
1a92 CA1821    JP      Z,#2118
1a95 47        LD      B,A
1a96 E1        POP     HL
1a97 E5        PUSH    HL
1a98 7D        LD      A,L
1a99 2600      LD      H,#00
1a9b 39        ADD     HL,SP
1a9c E5        PUSH    HL
1a9d 58        LD      E,B
1a9e 1600      LD      D,#00
1aa0 1B        DEC     DE
1aa1 B7        OR      A
1aa2 ED52      SBC     HL,DE
1aa4 D1        POP     DE
1aa5 90        SUB     B
1aa6 3807      JR      C,#1AAF
1aa8 3C        INC     A
1aa9 B9        CP      C
1aaa 3804      JR      C,#1AB0
1aac 79        LD      A,C
1aad 1801      JR      #1AB0
1aaf AF        XOR     A
1ab0 B7        OR      A
1ab1 2805      JR      Z,#1AB8
1ab3 4F        LD      C,A
1ab4 0600      LD      B,#00
1ab6 EDB8      LDDR    
1ab8 EB        EX      DE,HL
1ab9 77        LD      (HL),A
1aba F9        LD      SP,HL
1abb DDE9      JP      (IX)
1abd DDE1      POP     IX
1abf CD4B1B    CALL    #1B4B
1ac2 4F        LD      C,A
1ac3 0601      LD      B,#01
1ac5 18CF      JR      #1A96
1ac7 DDE1      POP     IX
1ac9 CD4B1B    CALL    #1B4B
1acc E3        EX      (SP),HL
1acd 4D        LD      C,L
1ace E3        EX      (SP),HL
1acf B9        CP      C
1ad0 30E9      JR      NC,#1ABB
1ad2 69        LD      L,C
1ad3 2600      LD      H,#00
1ad5 39        ADD     HL,SP
1ad6 EB        EX      DE,HL
1ad7 6F        LD      L,A
1ad8 2600      LD      H,#00
1ada 39        ADD     HL,SP
1adb 18D3      JR      #1AB0
1add 65        LD      H,L
1ade 2E01      LD      L,#01
1ae0 E3        EX      (SP),HL
1ae1 E9        JP      (HL)
1ae2 210200    LD      HL,#0002
1ae5 39        ADD     HL,SP
1ae6 4E        LD      C,(HL)
1ae7 0600      LD      B,#00
1ae9 09        ADD     HL,BC
1aea 54        LD      D,H
1aeb 5D        LD      E,L
1aec 23        INC     HL
1aed 22A10C    LD      (#0CA1),HL
1af0 C5        PUSH    BC
1af1 4E        LD      C,(HL)
1af2 09        ADD     HL,BC
1af3 23        INC     HL
1af4 229F0C    LD      (#0C9F),HL
1af7 2B        DEC     HL
1af8 EB        EX      DE,HL
1af9 79        LD      A,C
1afa C1        POP     BC
1afb 47        LD      B,A
1afc AF        XOR     A
1afd B8        CP      B
1afe 2803      JR      Z,#1B03
1b00 B9        CP      C
1b01 2003      JR      NZ,#1B06
1b03 78        LD      A,B
1b04 B9        CP      C
1b05 C9        RET     

1b06 1A        LD      A,(DE)
1b07 BE        CP      (HL)
1b08 C0        RET     NZ

1b09 2B        DEC     HL
1b0a 1B        DEC     DE
1b0b 05        DEC     B
1b0c 0D        DEC     C
1b0d 18ED      JR      #1AFC
1b0f E1        POP     HL
1b10 CDBD1C    CALL    #1CBD
1b13 DD2A9F0C  LD      IX,(#0C9F)
1b17 CDE21A    CALL    #1AE2
1b1a ED7BA10C  LD      SP,(#0CA1)
1b1e 2004      JR      NZ,#1B24
1b20 ED7B9F0C  LD      SP,(#0C9F)
1b24 DDE9      JP      (IX)
1b26 DDE1      POP     IX
1b28 CD4B1B    CALL    #1B4B
1b2b E3        EX      (SP),HL
1b2c 4D        LD      C,L
1b2d E3        EX      (SP),HL
1b2e 91        SUB     C
1b2f 3807      JR      C,#1B38
1b31 2805      JR      Z,#1B38
1b33 47        LD      B,A
1b34 DF        RST     #18
1b35 69        LD      L,C
1b36 10FC      DJNZ    #1B34
1b38 69        LD      L,C
1b39 2600      LD      H,#00
1b3b 39        ADD     HL,SP
1b3c E5        PUSH    HL
1b3d 0C        INC     C
1b3e 0D        DEC     C
1b3f 2805      JR      Z,#1B46
1b41 7E        LD      A,(HL)
1b42 2B        DEC     HL
1b43 F7        RST     #30
1b44 18F8      JR      #1B3E
1b46 E1        POP     HL
1b47 23        INC     HL
1b48 F9        LD      SP,HL
1b49 DDE9      JP      (IX)
1b4b AF        XOR     A
1b4c 37        SCF     
1b4d CB7C      BIT     7,H
1b4f C0        RET     NZ

1b50 B7        OR      A
1b51 7D        LD      A,L
1b52 24        INC     H
1b53 25        DEC     H
1b54 C8        RET     Z

1b55 3EFF      LD      A,#FF
1b57 C9        RET     

1b58 C1        POP     BC
1b59 D1        POP     DE
1b5a C5        PUSH    BC
1b5b EB        EX      DE,HL
1b5c D5        PUSH    DE
1b5d DD21C00C  LD      IX,#0CC0
1b61 CB7C      BIT     7,H
1b63 2809      JR      Z,#1B6E
1b65 CD5419    CALL    #1954
1b68 DD36002D  LD      (IX+#00),#2D
1b6c DD23      INC     IX
1b6e CD0D1A    CALL    #1A0D
1b71 E1        POP     HL
1b72 CD4B1B    CALL    #1B4B
1b75 01C00C    LD      BC,#0CC0
1b78 C5        PUSH    BC
1b79 DDE5      PUSH    IX
1b7b E1        POP     HL
1b7c 3600      LD      (HL),#00
1b7e B7        OR      A
1b7f ED42      SBC     HL,BC
1b81 95        SUB     L
1b82 3807      JR      C,#1B8B
1b84 2805      JR      Z,#1B8B
1b86 47        LD      B,A
1b87 DF        RST     #18
1b88 69        LD      L,C
1b89 10FC      DJNZ    #1B87
1b8b E1        POP     HL
1b8c 7E        LD      A,(HL)
1b8d B7        OR      A
1b8e C8        RET     Z

1b8f F7        RST     #30
1b90 23        INC     HL
1b91 18F9      JR      #1B8C
1b93 D5        PUSH    DE
1b94 CDDA1B    CALL    #1BDA
1b97 CDE619    CALL    #19E6
1b9a 3816      JR      C,#1BB2
1b9c DD7E00    LD      A,(IX+#00)
1b9f FE0D      CP      #0D
1ba1 200F      JR      NZ,#1BB2
1ba3 3AA30C    LD      A,(#0CA3)
1ba6 B7        OR      A
1ba7 2803      JR      Z,#1BAC
1ba9 CD5419    CALL    #1954
1bac EB        EX      DE,HL
1bad E1        POP     HL
1bae 73        LD      (HL),E
1baf 23        INC     HL
1bb0 72        LD      (HL),D
1bb1 C9        RET     

1bb2 CD061C    CALL    #1C06
1bb5 18DD      JR      #1B94
1bb7 D5        PUSH    DE
1bb8 CDDA1B    CALL    #1BDA
1bbb CD7418    CALL    #1874
1bbe 3815      JR      C,#1BD5
1bc0 DD7E00    LD      A,(IX+#00)
1bc3 FE0D      CP      #0D
1bc5 200E      JR      NZ,#1BD5
1bc7 3AA30C    LD      A,(#0CA3)
1bca B7        OR      A
1bcb 2803      JR      Z,#1BD0
1bcd CDCC10    CALL    #10CC
1bd0 D9        EXX     
1bd1 E1        POP     HL
1bd2 C3151D    JP      #1D15
1bd5 CD061C    CALL    #1C06
1bd8 18DE      JR      #1BB8
1bda CD0310    CALL    #1003
1bdd 04        INC     B
1bde 05        DEC     B
1bdf 28F9      JR      Z,#1BDA
1be1 78        LD      A,B
1be2 32A40C    LD      (#0CA4),A
1be5 DD21C00C  LD      IX,#0CC0
1be9 DD7E00    LD      A,(IX+#00)
1bec FE20      CP      #20
1bee 2004      JR      NZ,#1BF4
1bf0 DD23      INC     IX
1bf2 18F5      JR      #1BE9
1bf4 0600      LD      B,#00
1bf6 FE2B      CP      #2B
1bf8 2805      JR      Z,#1BFF
1bfa FE2D      CP      #2D
1bfc 2003      JR      NZ,#1C01
1bfe 05        DEC     B
1bff DD23      INC     IX
1c01 78        LD      A,B
1c02 32A30C    LD      (#0CA3),A
1c05 C9        RET     

1c06 3AA40C    LD      A,(#0CA4)
1c09 47        LD      B,A
1c0a 3E08      LD      A,#08
1c0c F7        RST     #30
1c0d 10FD      DJNZ    #1C0C
1c0f C9        RET     

1c10 E3        EX      (SP),HL
1c11 46        LD      B,(HL)
1c12 05        DEC     B
1c13 23        INC     HL
1c14 E3        EX      (SP),HL
1c15 D5        PUSH    DE
1c16 78        LD      A,B
1c17 48        LD      C,B
1c18 05        DEC     B
1c19 2815      JR      Z,#1C30
1c1b FE3F      CP      #3F
1c1d 3802      JR      C,#1C21
1c1f 0E3F      LD      C,#3F
1c21 CD0510    CALL    #1005
1c24 EB        EX      DE,HL
1c25 E1        POP     HL
1c26 70        LD      (HL),B
1c27 04        INC     B
1c28 05        DEC     B
1c29 C8        RET     Z

1c2a 1B        DEC     DE
1c2b 23        INC     HL
1c2c 1A        LD      A,(DE)
1c2d 77        LD      (HL),A
1c2e 18F8      JR      #1C28
1c30 DF        RST     #18
1c31 7B        LD      A,E
1c32 E1        POP     HL
1c33 3601      LD      (HL),#01
1c35 23        INC     HL
1c36 77        LD      (HL),A
1c37 C9        RET     
              ;
		; Function: screen (x,y)
		; llamada: 
		;	ld hl, x
		;	push hl
		;	ld hl, y
		;	call dc3b

1c38 DDE1      POP     IX
1c3a 0611      LD      B,#11
1c3c CD751C    CALL    #1C75
1c3f 57        LD      D,A
1c40 E1        POP     HL
1c41 0631      LD      B,#31
1c43 CD751C    CALL    #1C75
1c46 B7        OR      A
1c47 2007      JR      NZ,#1C50
1c49 3A290C    LD      A,(#0C29)
1c4c E63F      AND     #3F
1c4e D609      SUB     #09
1c50 3D        DEC     A
1c51 5F        LD      E,A
1c52 62        LD      H,D
1c53 2E00      LD      L,#00
1c55 55        LD      D,L
1c56 25        DEC     H
1c57 F2631C    JP      P,#1C63
1c5a D5        PUSH    DE
1c5b 2A290C    LD      HL,(#0C29)
1c5e DF        RST     #18
1c5f 7C        LD      A,H
1c60 D1        POP     DE
1c61 180C      JR      #1C6F
1c63 CB3C      SRL     H
1c65 CB1D      RR      L
1c67 CB3C      SRL     H
1c69 CB1D      RR      L
1c6b 010A08    LD      BC,#080A
1c6e 09        ADD     HL,BC
1c6f 19        ADD     HL,DE
1c70 22290C    LD      (#0C29),HL
1c73 DDE9      JP      (IX)
1c75 7C        LD      A,H
1c76 B7        OR      A
1c77 2003      JR      NZ,#1C7C
1c79 7D        LD      A,L
1c7a B8        CP      B
1c7b D8        RET     C

1c7c AF        XOR     A
1c7d C9        RET     

1c7e EB        EX      DE,HL
1c7f 46        LD      B,(HL)
1c80 23        INC     HL
1c81 4E        LD      C,(HL)
1c82 23        INC     HL
1c83 56        LD      D,(HL)
1c84 23        INC     HL
1c85 5E        LD      E,(HL)
1c86 23        INC     HL
1c87 7E        LD      A,(HL)
1c88 23        INC     HL
1c89 6E        LD      L,(HL)
1c8a 67        LD      H,A
1c8b C9        RET     

1c8c CDD11D    CALL    #1DD1
1c8f 18EE      JR      #1C7F
1c91 E3        EX      (SP),HL
1c92 7E        LD      A,(HL)
1c93 23        INC     HL
1c94 E3        EX      (SP),HL
1c95 CDD61D    CALL    #1DD6
1c98 18E5      JR      #1C7F
1c9a CDE51D    CALL    #1DE5
1c9d 18E0      JR      #1C7F
1c9f E3        EX      (SP),HL
1ca0 7E        LD      A,(HL)
1ca1 23        INC     HL
1ca2 E3        EX      (SP),HL
1ca3 CDEE1D    CALL    #1DEE
1ca6 18D7      JR      #1C7F
1ca8 EB        EX      DE,HL
1ca9 5E        LD      E,(HL)
1caa 23        INC     HL
1cab 56        LD      D,(HL)
1cac EB        EX      DE,HL
1cad C9        RET     

1cae CDE51D    CALL    #1DE5
1cb1 18F6      JR      #1CA9
1cb3 E3        EX      (SP),HL
1cb4 7E        LD      A,(HL)
1cb5 23        INC     HL
1cb6 E3        EX      (SP),HL
1cb7 CDEE1D    CALL    #1DEE
1cba 18ED      JR      #1CA9
1cbc EB        EX      DE,HL
1cbd DDE1      POP     IX
1cbf 4E        LD      C,(HL)
1cc0 0600      LD      B,#00
1cc2 03        INC     BC
1cc3 09        ADD     HL,BC
1cc4 229F0C    LD      (#0C9F),HL
1cc7 2B        DEC     HL
1cc8 EB        EX      DE,HL
1cc9 21FFFF    LD      HL,#FFFF
1ccc 39        ADD     HL,SP
1ccd EB        EX      DE,HL
1cce 3B        DEC     SP
1ccf EDA8      LDD     
1cd1 EACE1C    JP      PE,#1CCE
1cd4 DDE9      JP      (IX)
1cd6 CDD11D    CALL    #1DD1
1cd9 18E2      JR      #1CBD
1cdb E3        EX      (SP),HL
1cdc 7E        LD      A,(HL)
1cdd 23        INC     HL
1cde E3        EX      (SP),HL
1cdf CDD61D    CALL    #1DD6
1ce2 18D9      JR      #1CBD
1ce4 CDE51D    CALL    #1DE5
1ce7 18D4      JR      #1CBD
1ce9 E3        EX      (SP),HL
1cea 7E        LD      A,(HL)
1ceb 23        INC     HL
1cec E3        EX      (SP),HL
1ced CDEE1D    CALL    #1DEE
1cf0 18CB      JR      #1CBD
1cf2 E1        POP     HL
1cf3 CDBD1C    CALL    #1CBD
1cf6 2A9F0C    LD      HL,(#0C9F)
1cf9 E9        JP      (HL)
1cfa 2A920C    LD      HL,(#0C92)
1cfd 110600    LD      DE,#0006
1d00 19        ADD     HL,DE
1d01 CD231F    CALL    #1F23
1d04 2A920C    LD      HL,(#0C92)
1d07 CD151D    CALL    #1D15
1d0a 23        INC     HL
1d0b 22920C    LD      (#0C92),HL
1d0e C9        RET     

1d0f D5        PUSH    DE
1d10 1804      JR      #1D16
1d12 2A9D0C    LD      HL,(#0C9D)
1d15 E5        PUSH    HL
1d16 D9        EXX     
1d17 E3        EX      (SP),HL
1d18 70        LD      (HL),B
1d19 23        INC     HL
1d1a 71        LD      (HL),C
1d1b 23        INC     HL
1d1c 72        LD      (HL),D
1d1d 23        INC     HL
1d1e 73        LD      (HL),E
1d1f 23        INC     HL
1d20 D1        POP     DE
1d21 72        LD      (HL),D
1d22 23        INC     HL
1d23 73        LD      (HL),E
1d24 C9        RET     

1d25 CDD11D    CALL    #1DD1
1d28 18EB      JR      #1D15
1d2a E3        EX      (SP),HL
1d2b 7E        LD      A,(HL)
1d2c 23        INC     HL
1d2d E3        EX      (SP),HL
1d2e CDD61D    CALL    #1DD6
1d31 18E2      JR      #1D15
1d33 CDE51D    CALL    #1DE5
1d36 18DD      JR      #1D15
1d38 E3        EX      (SP),HL
1d39 7E        LD      A,(HL)
1d3a 23        INC     HL
1d3b E3        EX      (SP),HL
1d3c CDEE1D    CALL    #1DEE
1d3f 18D4      JR      #1D15
1d41 EB        EX      DE,HL
1d42 2A920C    LD      HL,(#0C92)
1d45 23        INC     HL
1d46 23        INC     HL
1d47 CD231F    CALL    #1F23
1d4a 22920C    LD      (#0C92),HL
1d4d 2B        DEC     HL
1d4e 72        LD      (HL),D
1d4f 2B        DEC     HL
1d50 73        LD      (HL),E
1d51 C9        RET     

1d52 ED5B9D0C  LD      DE,(#0C9D)
1d56 EB        EX      DE,HL
1d57 1806      JR      #1D5F
1d59 EB        EX      DE,HL
1d5a ED4B900C  LD      BC,(#0C90)
1d5e 09        ADD     HL,BC
1d5f 73        LD      (HL),E
1d60 23        INC     HL
1d61 72        LD      (HL),D
1d62 C9        RET     

1d63 E3        EX      (SP),HL
1d64 7E        LD      A,(HL)
1d65 23        INC     HL
1d66 E3        EX      (SP),HL
1d67 E5        PUSH    HL
1d68 CDD61D    CALL    #1DD6
1d6b D1        POP     DE
1d6c 18F1      JR      #1D5F
1d6e E5        PUSH    HL
1d6f CDE51D    CALL    #1DE5
1d72 18F7      JR      #1D6B
1d74 E3        EX      (SP),HL
1d75 7E        LD      A,(HL)
1d76 23        INC     HL
1d77 E3        EX      (SP),HL
1d78 E5        PUSH    HL
1d79 CDEE1D    CALL    #1DEE
1d7c 18ED      JR      #1D6B
1d7e 58        LD      E,B
1d7f 1D        DEC     E
1d80 1600      LD      D,#00
1d82 13        INC     DE
1d83 2A920C    LD      HL,(#0C92)
1d86 E5        PUSH    HL
1d87 19        ADD     HL,DE
1d88 D1        POP     DE
1d89 22920C    LD      (#0C92),HL
1d8c 78        LD      A,B
1d8d CD231F    CALL    #1F23
1d90 47        LD      B,A
1d91 EB        EX      DE,HL
1d92 1803      JR      #1D97
1d94 2A9D0C    LD      HL,(#0C9D)
1d97 EB        EX      DE,HL
1d98 DDE1      POP     IX
1d9a 78        LD      A,B
1d9b 3D        DEC     A
1d9c 210000    LD      HL,#0000
1d9f 39        ADD     HL,SP
1da0 4E        LD      C,(HL)
1da1 0600      LD      B,#00
1da3 B9        CP      C
1da4 3009      JR      NC,#1DAF
1da6 F5        PUSH    AF
1da7 91        SUB     C
1da8 ED44      NEG     
1daa 4F        LD      C,A
1dab 09        ADD     HL,BC
1dac F1        POP     AF
1dad 4F        LD      C,A
1dae 77        LD      (HL),A
1daf 03        INC     BC
1db0 EDB0      LDIR    
1db2 F9        LD      SP,HL
1db3 DDE9      JP      (IX)
1db5 CDD11D    CALL    #1DD1
1db8 18DD      JR      #1D97
1dba E3        EX      (SP),HL
1dbb 7E        LD      A,(HL)
1dbc 23        INC     HL
1dbd E3        EX      (SP),HL
1dbe CDD61D    CALL    #1DD6
1dc1 18D4      JR      #1D97
1dc3 CDE51D    CALL    #1DE5
1dc6 18CF      JR      #1D97
1dc8 E3        EX      (SP),HL
1dc9 7E        LD      A,(HL)
1dca 23        INC     HL
1dcb E3        EX      (SP),HL
1dcc CDEE1D    CALL    #1DEE
1dcf 18C6      JR      #1D97
1dd1 2A900C    LD      HL,(#0C90)
1dd4 19        ADD     HL,DE
1dd5 C9        RET     

1dd6 D5        PUSH    DE
1dd7 2A900C    LD      HL,(#0C90)
1dda 2B        DEC     HL
1ddb 56        LD      D,(HL)
1ddc 2B        DEC     HL
1ddd 5E        LD      E,(HL)
1dde EB        EX      DE,HL
1ddf BE        CP      (HL)
1de0 20F8      JR      NZ,#1DDA
1de2 D1        POP     DE
1de3 19        ADD     HL,DE
1de4 C9        RET     

1de5 CD031E    CALL    #1E03
1de8 EB        EX      DE,HL
1de9 C9        RET     

1dea E3        EX      (SP),HL
1deb 7E        LD      A,(HL)
1dec 23        INC     HL
1ded E3        EX      (SP),HL
1dee CDD61D    CALL    #1DD6
1df1 C3A91C    JP      #1CA9
1df4 2A900C    LD      HL,(#0C90)
1df7 19        ADD     HL,DE
1df8 EB        EX      DE,HL
1df9 C9        RET     

1dfa E3        EX      (SP),HL
1dfb 7E        LD      A,(HL)
1dfc 23        INC     HL
1dfd E3        EX      (SP),HL
1dfe CDD61D    CALL    #1DD6
1e01 EB        EX      DE,HL
1e02 C9        RET     

1e03 2A900C    LD      HL,(#0C90)
1e06 19        ADD     HL,DE
1e07 5E        LD      E,(HL)
1e08 23        INC     HL
1e09 56        LD      D,(HL)
1e0a C9        RET     

1e0b E3        EX      (SP),HL
1e0c 7E        LD      A,(HL)
1e0d 23        INC     HL
1e0e E3        EX      (SP),HL
1e0f CDD61D    CALL    #1DD6
1e12 18F3      JR      #1E07
1e14 3EAF      LD      A,#AF
1e16 08        EX      AF,AF'
1e17 DDE1      POP     IX
1e19 DD7E00    LD      A,(IX+#00)
1e1c DD23      INC     IX
1e1e CDEE1D    CALL    #1DEE
1e21 1820      JR      #1E43
1e23 3EAF      LD      A,#AF
1e25 08        EX      AF,AF'
1e26 CDE51D    CALL    #1DE5
1e29 1816      JR      #1E41
1e2b 3EAF      LD      A,#AF
1e2d 08        EX      AF,AF'
1e2e DDE1      POP     IX
1e30 DD7E00    LD      A,(IX+#00)
1e33 DD23      INC     IX
1e35 CDD61D    CALL    #1DD6
1e38 1809      JR      #1E43
1e3a 3EAF      LD      A,#AF
1e3c 08        EX      AF,AF'
1e3d 2A900C    LD      HL,(#0C90)
1e40 19        ADD     HL,DE
1e41 DDE1      POP     IX
1e43 E5        PUSH    HL
1e44 DD6E00    LD      L,(IX+#00)
1e47 DD23      INC     IX
1e49 DD6600    LD      H,(IX+#00)
1e4c DD23      INC     IX
1e4e 46        LD      B,(HL)
1e4f 23        INC     HL
1e50 4E        LD      C,(HL)
1e51 23        INC     HL
1e52 22A30C    LD      (#0CA3),HL
1e55 68        LD      L,B
1e56 2C        INC     L
1e57 2600      LD      H,#00
1e59 29        ADD     HL,HL
1e5a 39        ADD     HL,SP
1e5b 229F0C    LD      (#0C9F),HL
1e5e E5        PUSH    HL
1e5f 210000    LD      HL,#0000
1e62 C5        PUSH    BC
1e63 22A10C    LD      (#0CA1),HL
1e66 2A9F0C    LD      HL,(#0C9F)
1e69 2B        DEC     HL
1e6a 56        LD      D,(HL)
1e6b 2B        DEC     HL
1e6c 5E        LD      E,(HL)
1e6d 229F0C    LD      (#0C9F),HL
1e70 2AA30C    LD      HL,(#0CA3)
1e73 4E        LD      C,(HL)
1e74 23        INC     HL
1e75 46        LD      B,(HL)
1e76 23        INC     HL
1e77 EB        EX      DE,HL
1e78 B7        OR      A
1e79 ED42      SBC     HL,BC
1e7b FA1C21    JP      M,#211C
1e7e EB        EX      DE,HL
1e7f 4E        LD      C,(HL)
1e80 23        INC     HL
1e81 46        LD      B,(HL)
1e82 23        INC     HL
1e83 22A30C    LD      (#0CA3),HL
1e86 EB        EX      DE,HL
1e87 B7        OR      A
1e88 ED42      SBC     HL,BC
1e8a D21C21    JP      NC,#211C
1e8d 09        ADD     HL,BC
1e8e ED4BA10C  LD      BC,(#0CA1)
1e92 09        ADD     HL,BC
1e93 C1        POP     BC
1e94 05        DEC     B
1e95 280E      JR      Z,#1EA5
1e97 C5        PUSH    BC
1e98 E5        PUSH    HL
1e99 EB        EX      DE,HL
1e9a 23        INC     HL
1e9b 23        INC     HL
1e9c 5E        LD      E,(HL)
1e9d 23        INC     HL
1e9e 56        LD      D,(HL)
1e9f E1        POP     HL
1ea0 CD1A19    CALL    #191A
1ea3 18BE      JR      #1E63
1ea5 79        LD      A,C
1ea6 FE02      CP      #02
1ea8 2812      JR      Z,#1EBC
1eaa FE06      CP      #06
1eac 280A      JR      Z,#1EB8
1eae 3D        DEC     A
1eaf 5F        LD      E,A
1eb0 1600      LD      D,#00
1eb2 13        INC     DE
1eb3 CD1A19    CALL    #191A
1eb6 1805      JR      #1EBD
1eb8 54        LD      D,H
1eb9 5D        LD      E,L
1eba 29        ADD     HL,HL
1ebb 19        ADD     HL,DE
1ebc 29        ADD     HL,HL
1ebd D1        POP     DE
1ebe C1        POP     BC
1ebf 09        ADD     HL,BC
1ec0 08        EX      AF,AF'
1ec1 B7        OR      A
1ec2 2803      JR      Z,#1EC7
1ec4 229D0C    LD      (#0C9D),HL
1ec7 EB        EX      DE,HL
1ec8 F9        LD      SP,HL
1ec9 DDE9      JP      (IX)
1ecb E3        EX      (SP),HL
1ecc 4E        LD      C,(HL)
1ecd 23        INC     HL
1ece 46        LD      B,(HL)
1ecf 23        INC     HL
1ed0 E3        EX      (SP),HL
1ed1 2A920C    LD      HL,(#0C92)
1ed4 EB        EX      DE,HL
1ed5 EDB0      LDIR    
1ed7 E1        POP     HL
1ed8 1812      JR      #1EEC
1eda 21900C    LD      HL,#0C90
1edd ED5B920C  LD      DE,(#0C92)
1ee1 EDA0      LDI     
1ee3 EDA0      LDI     
1ee5 ED53900C  LD      (#0C90),DE
1ee9 E1        POP     HL
1eea EDA0      LDI     
1eec ED53920C  LD      (#0C92),DE
1ef0 E9        JP      (HL)
1ef1 2A900C    LD      HL,(#0C90)
1ef4 2B        DEC     HL
1ef5 56        LD      D,(HL)
1ef6 2B        DEC     HL
1ef7 5E        LD      E,(HL)
1ef8 ED53900C  LD      (#0C90),DE
1efc 22920C    LD      (#0C92),HL
1eff C9        RET     

1f00 E3        EX      (SP),HL
1f01 5E        LD      E,(HL)
1f02 23        INC     HL
1f03 56        LD      D,(HL)
1f04 23        INC     HL
1f05 E3        EX      (SP),HL
1f06 2A920C    LD      HL,(#0C92)
1f09 19        ADD     HL,DE
1f0a 22920C    LD      (#0C92),HL
1f0d D8        RET     C

1f0e CD231F    CALL    #1F23
1f11 7A        LD      A,D
1f12 B3        OR      E
1f13 C8        RET     Z

1f14 2B        DEC     HL
1f15 3600      LD      (HL),#00
1f17 1B        DEC     DE
1f18 7B        LD      A,E
1f19 B2        OR      D
1f1a C8        RET     Z

1f1b 42        LD      B,D
1f1c 4B        LD      C,E
1f1d 54        LD      D,H
1f1e 5D        LD      E,L
1f1f 1B        DEC     DE
1f20 EDB8      LDDR    
1f22 C9        RET     

1f23 ED4B940C  LD      BC,(#0C94)
1f27 B7        OR      A
1f28 ED42      SBC     HL,BC
1f2a 09        ADD     HL,BC
1f2b D8        RET     C

1f2c 3E99      LD      A,#99
1f2e E1        POP     HL
1f2f C31421    JP      #2114
1f32 ED4B9A0C  LD      BC,(#0C9A)
1f36 ED5B980C  LD      DE,(#0C98)
1f3a C5        PUSH    BC
1f3b D5        PUSH    DE
1f3c 78        LD      A,B
1f3d 41        LD      B,C
1f3e 4A        LD      C,D
1f3f 53        LD      D,E
1f40 1E00      LD      E,#00
1f42 1F        RRA     
1f43 CB18      RR      B
1f45 CB19      RR      C
1f47 CB1A      RR      D
1f49 CB1B      RR      E
1f4b E1        POP     HL
1f4c 19        ADD     HL,DE
1f4d EB        EX      DE,HL
1f4e E1        POP     HL
1f4f ED4A      ADC     HL,BC
1f51 44        LD      B,H
1f52 4D        LD      C,L
1f53 21E962    LD      HL,#62E9
1f56 19        ADD     HL,DE
1f57 22980C    LD      (#0C98),HL
1f5a EB        EX      DE,HL
1f5b 211936    LD      HL,#3619
1f5e ED4A      ADC     HL,BC
1f60 229A0C    LD      (#0C9A),HL
1f63 44        LD      B,H
1f64 4D        LD      C,L
1f65 C9        RET     

1f66 CD321F    CALL    #1F32
1f69 218000    LD      HL,#0080
1f6c 3E20      LD      A,#20
1f6e CB78      BIT     7,B
1f70 200D      JR      NZ,#1F7F
1f72 CB23      SLA     E
1f74 CB12      RL      D
1f76 CB11      RL      C
1f78 CB10      RL      B
1f7a 2D        DEC     L
1f7b 3D        DEC     A
1f7c 20F0      JR      NZ,#1F6E
1f7e 6F        LD      L,A
1f7f CBB8      RES     7,B
1f81 C9        RET     

1f82 E5        PUSH    HL
1f83 CD321F    CALL    #1F32
1f86 CB3C      SRL     H
1f88 CB1D      RR      L
1f8a D1        POP     DE
1f8b EB        EX      DE,HL
1f8c C36019    JP      #1960
1f8f C1        POP     BC
1f90 D1        POP     DE
1f91 C5        PUSH    BC
1f92 CDC51F    CALL    #1FC5
1f95 3009      JR      NC,#1FA0
1f97 BE        CP      (HL)
1f98 3006      JR      NC,#1FA0
1f9a 78        LD      A,B
1f9b A6        AND     (HL)
1f9c 21FFFF    LD      HL,#FFFF
1f9f C0        RET     NZ

1fa0 210000    LD      HL,#0000
1fa3 C9        RET     

1fa4 7D        LD      A,L
1fa5 08        EX      AF,AF'
1fa6 C1        POP     BC
1fa7 E1        POP     HL
1fa8 D1        POP     DE
1fa9 C5        PUSH    BC
1faa CDC51F    CALL    #1FC5
1fad D0        RET     NC

1fae BE        CP      (HL)
1faf 3801      JR      C,#1FB2
1fb1 77        LD      (HL),A
1fb2 08        EX      AF,AF'
1fb3 B7        OR      A
1fb4 2005      JR      NZ,#1FBB
1fb6 78        LD      A,B
1fb7 2F        CPL     
1fb8 A6        AND     (HL)
1fb9 77        LD      (HL),A
1fba C9        RET     

1fbb 3D        DEC     A
1fbc 78        LD      A,B
1fbd 2003      JR      NZ,#1FC2
1fbf B6        OR      (HL)
1fc0 77        LD      (HL),A
1fc1 C9        RET     

1fc2 AE        XOR     (HL)
1fc3 77        LD      (HL),A
1fc4 C9        RET     

1fc5 7C        LD      A,H
1fc6 B7        OR      A
1fc7 C0        RET     NZ

1fc8 7D        LD      A,L
1fc9 FE30      CP      #30
1fcb D0        RET     NC

1fcc 7A        LD      A,D
1fcd B7        OR      A
1fce C0        RET     NZ

1fcf 7B        LD      A,E
1fd0 FE60      CP      #60
1fd2 D0        RET     NC

1fd3 7D        LD      A,L
1fd4 26FF      LD      H,#FF
1fd6 D603      SUB     #03
1fd8 3002      JR      NC,#1FDC
1fda C630      ADD     A,#30
1fdc 24        INC     H
1fdd D603      SUB     #03
1fdf 30FB      JR      NC,#1FDC
1fe1 C604      ADD     A,#04
1fe3 CB3B      SRL     E
1fe5 3002      JR      NC,#1FE9
1fe7 C603      ADD     A,#03
1fe9 47        LD      B,A
1fea AF        XOR     A
1feb 57        LD      D,A
1fec 6F        LD      L,A
1fed 37        SCF     
1fee 17        RLA     
1fef 10FD      DJNZ    #1FEE
1ff1 47        LD      B,A
1ff2 CB3C      SRL     H
1ff4 CB1D      RR      L
1ff6 CB3C      SRL     H
1ff8 CB1D      RR      L
1ffa 19        ADD     HL,DE
1ffb 110A08    LD      DE,#080A
1ffe 19        ADD     HL,DE
1fff 3EC0      LD      A,#C0
2001 37        SCF     
2002 C9        RET     

	; procedure save(i)
              ;
2003 DF5F        LD      E,A
2005 DF5D        LD      E,L
2007 AF        XOR     A
2008 47        LD      B,A
2009 DF6F        
200b 10FC      DJNZ    #2009
200d 3EF0      LD      A,#F0
200f 0604      LD      B,#04
2011 DF        RST     #18
2012 6F        LD      L,A
2013 10FC      DJNZ    #2011
2015 EB        EX      DE,HL
2016 E3        EX      (SP),HL
2017 4E        LD      C,(HL)
2018 23        INC     HL
2019 46        LD      B,(HL)
201a 23        INC     HL
201b 5E        LD      E,(HL)
201c 23        INC     HL
201d 56        LD      D,(HL)
201e 23        INC     HL
201f E3        EX      (SP),HL
2020 7A        LD      A,D
2021 DF        RST     #18
2022 6F        LD      L,A
2023 7B        LD      A,E
2024 DF        RST     #18
2025 6F        LD      L,A
2026 78        LD      A,B
2027 DF        RST     #18
2028 6F        LD      L,A
2029 79        LD      A,C
202a DF        RST     #18
202b 6F        LD      L,A
202c 80        ADD     A,B
202d 82        ADD     A,D
202e 83        ADD     A,E
202f DF        RST     #18
2030 6F        LD      L,A
2031 010000    LD      BC,#0000
2034 14        INC     D
2035 15        DEC     D
2036 2005      JR      NZ,#203D
2038 43        LD      B,E
2039 04        INC     B
203a 05        DEC     B
203b 280A      JR      Z,#2047
203d DF        RST     #18
203e 6D        LD      L,L
203f 79        LD      A,C
2040 DF        RST     #18
2041 6F        LD      L,A
2042 7A        LD      A,D
2043 15        DEC     D
2044 B7        OR      A
2045 20EA      JR      NZ,#2031
2047 DF        RST     #18
2048 5F        LD      E,A
2049 C9        RET     

204a ED539F0C  LD      (#0C9F),DE
204e E1        POP     HL
204f 23        INC     HL
2050 23        INC     HL
2051 5E        LD      E,(HL)
2052 23        INC     HL
2053 56        LD      D,(HL)
2054 23        INC     HL
2055 ED53A30C  LD      (#0CA3),DE
2059 D1        POP     DE
205a ED53A10C  LD      (#0CA1),DE
205e E5        PUSH    HL
205f DF        RST     #18
2060 5F        LD      E,A
2061 0604      LD      B,#04
2063 D7        RST     #10
2064 47        LD      B,A
2065 FEF0      CP      #F0
2067 20F8      JR      NZ,#2061
2069 10F8      DJNZ    #2063
206b 010004    LD      BC,#0400
206e E1        POP     HL
206f E5        PUSH    HL
2070 2B        DEC     HL
2071 D7        RST     #10
2072 39        ADD     HL,SP
2073 BE        CP      (HL)
2074 1E01      LD      E,#01
2076 2048      JR      NZ,#20C0
2078 81        ADD     A,C
2079 4F        LD      C,A
207a 10F4      DJNZ    #2070
207c D7        RST     #10
207d 2EB9      LD      L,#B9
207f 1E02      LD      E,#02
2081 203D      JR      NZ,#20C0
2083 ED5BA30C  LD      DE,(#0CA3)
2087 2AA10C    LD      HL,(#0CA1)
208a 010000    LD      BC,#0000
208d 14        INC     D
208e 15        DEC     D
208f 2005      JR      NZ,#2096
2091 43        LD      B,E
2092 04        INC     B
2093 05        DEC     B
2094 2812      JR      Z,#20A8
2096 D7        RST     #10
2097 14        INC     D
2098 77        LD      (HL),A
2099 23        INC     HL
209a 81        ADD     A,C
209b 4F        LD      C,A
209c 10F8      DJNZ    #2096
209e D7        RST     #10
209f 0C        INC     C
20a0 B9        CP      C
20a1 20DC      JR      NZ,#207F
20a3 7A        LD      A,D
20a4 15        DEC     D
20a5 B7        OR      A
20a6 20E2      JR      NZ,#208A
20a8 1E00      LD      E,#00
20aa 1814      JR      #20C0
20ac DF        RST     #18
20ad 70        LD      (HL),B
20ae D8        RET     C

20af C5        PUSH    BC
20b0 D5        PUSH    DE
20b1 E5        PUSH    HL
20b2 DF        RST     #18
20b3 61        LD      H,C
20b4 E1        POP     HL
20b5 D1        POP     DE
20b6 C1        POP     BC
20b7 30F3      JR      NC,#20AC
20b9 FE1B      CP      #1B
20bb 20EF      JR      NZ,#20AC
20bd 1E03      LD      E,#03
20bf E1        POP     HL
20c0 2A9F0C    LD      HL,(#0C9F)
20c3 73        LD      (HL),E
20c4 23        INC     HL
20c5 3600      LD      (HL),#00
20c7 DF        RST     #18
20c8 5F        LD      E,A
20c9 C9        RET     

20ca 80        ADD     A,B
20cb 80        ADD     A,B
20cc 80        ADD     A,B
20cd 80        ADD     A,B
20ce C0        RET     NZ

20cf 80        ADD     A,B
20d0 80        ADD     A,B
20d1 B8        CP      B

20d2 11020C    LD      DE,#0C02
20d5 21CA20    LD      HL,#20CA
20d8 0608      LD      B,#08
20da 1A        LD      A,(DE)
20db A6        AND     (HL)
20dc 12        LD      (DE),A
20dd 13        INC     DE
20de 23        INC     HL
20df 10F9      DJNZ    #20DA
20e1 DF        RST     #18
20e2 61        LD      H,C
20e3 210000    LD      HL,#0000
20e6 D0        RET     NC
20e7 6F        LD      L,A
20e8 C9        RET     

20e9 E1        POP     HL
20ea 22960C    LD      (#0C96),HL
20ed 5E        LD      E,(HL)
20ee 23        INC     HL
20ef 56        LD      D,(HL)
20f0 23        INC     HL
20f1 4E        LD      C,(HL)
20f2 23        INC     HL
20f3 46        LD      B,(HL)
20f4 ED43940C  LD      (#0C94),BC
20f8 23        INC     HL
20f9 7E        LD      A,(HL)
20fa 329C0C    LD      (#0C9C),A
20fd 23        INC     HL
20fe 310010    LD      SP,#1000
2101 E5        PUSH    HL
2102 EB        EX      DE,HL
2103 22900C    LD      (#0C90),HL
2106 3600      LD      (HL),#00
2108 23        INC     HL
2109 22920C    LD      (#0C92),HL
210c ED5F      LD      A,R
210e 329B0C    LD      (#0C9B),A
2111 C9        RET     

2112 3E05      LD      A,#05
2114 DDE1      POP     IX
2116 1806      JR      #211E
2118 3E10      LD      A,#10
211a 1802      JR      #211E
211c 3E20      LD      A,#20
211e F5        PUSH    AF
211f EF        RST     #28
2120 1852      JR      #2174
2122 75        LD      (HL),L
2123 6E        LD      L,(HL)
2124 74        LD      (HL),H
2125 69        LD      L,C
2126 6D        LD      L,L
2127 65        LD      H,L
2128 2065      JR      NZ,#218F
212a 72        LD      (HL),D
212b 72        LD      (HL),D
212c 6F        LD      L,A
212d 72        LD      (HL),D
212e 2000      JR      NZ,#2130
2130 F1        POP     AF
2131 DF        RST     #18
2132 68        LD      L,B
2133 EF        RST     #28
2134 2061      JR      NZ,#2197
2136 74        LD      (HL),H
2137 2024      JR      NZ,#215D
2139 00        NOP     
213a DDE5      PUSH    IX
213c E1        POP     HL
213d ED5B960C  LD      DE,(#0C96)
2141 1B        DEC     DE
2142 1B        DEC     DE
2143 1B        DEC     DE
2144 B7        OR      A
2145 ED52      SBC     HL,DE
2147 22BE0C    LD      (#0CBE),HL
214a DF        RST     #18
214b 66        LD      H,(HL)
214c DF        RST     #18
214d 6A        LD      L,D
214e 3A9C0C    LD      A,(#0C9C)
2151 B7        OR      A
2152 CA8221    JP      Z,#2182
2155 DF        RST     #18
2156 5B        LD      E,E
2157 FF        RST     #38
2158 FF        RST     #38
2159 FF        RST     #38
215a FF        RST     #38
215b FF        RST     #38
215c FF        RST     #38
215d FF        RST     #38
215e FF        RST     #38
215f FF        RST     #38
2160 FF        RST     #38
2161 FF        RST     #38
2162 FF        RST     #38
2163 FF        RST     #38
2164 FF        RST     #38
2165 FF        RST     #38
2166 FF        RST     #38
2167 FF        RST     #38
2168 FF        RST     #38
2169 FF        RST     #38
216a FF        RST     #38
216b FF        RST     #38
216c FF        RST     #38
216d FF        RST     #38
216e FF        RST     #38
216f FF        RST     #38
2170 FF        RST     #38
2171 FF        RST     #38
2172 FF        RST     #38
2173 FF        RST     #38
2174 FF        RST     #38
2175 FF        RST     #38
2176 FF        RST     #38
2177 FF        RST     #38
2178 FF        RST     #38
2179 FF        RST     #38
217a FF        RST     #38
217b FF        RST     #38
217c FF        RST     #38
217d FF        RST     #38
217e 2049      JR      NZ,#21C9

; MENU SYSTEM 

2180 D732      RST     #10; db #32 ;     RCAL +32 = CALL #2180+#2+#32 = CALL #21B4 print BLS Pas (c) and version message
              
; input command 
              
2182 310010    LD      SP,#1000	
2185 218221    LD      HL,#2182	; push ret addr for main compiler menu 
2188 E5        PUSH    HL
2189 AF        XOR     A
218a 32000C    LD      (#0C00),A   ; 0C00=PORT0     Copy of current state of output part 0.
218d 210D40    LD      HL,#400D
2190 22BC0C    LD      (#0CBC),HL
2193 21D028    LD      HL,#28D0
2196 227B0C    LD      (#0C7B),HL  ; user input routin addr (used by UIN, set by NIM)
2199 21FB28    LD      HL,#28FB
219c DF72      RST     #18 #72     ; SCAL #72 = SCAL NIM Set the address of the new input table to HL
219e EF        RST     #28	   ; PRS 
219f 183E00     		   ; <cancel>,">", 0 
21a1 00        NOP     
21a2 CD0310    CALL    #1003       ; get keyboard input
21a5 F7        RST     #30	   ; ROUT
21a6 3AC00C    LD      A,(#0CC0)
21a9 214922    LD      HL,#2249	   ; addr of command table
21ac CDBF22    CALL    #22BF
21af DA3F22    JP      C,#223F
21b2 EB        EX      DE,HL
21b3 E9        JP      (HL)

21b4 EF        RST     #28	; PRS
21b5 0C        <CLS>
21b6 424C5320  "BLS Pascal Version 1.2", 0d,
     50617363  "Copyright (C) 1981", 0d
     616C2056  "Poly-Data microcenter", 0d
     65727369   0
     6F6E2031
     2E320D43
     6F707972
     69676874
     20284329
     20313938
     310D506F
     6C792D44
     61746120
     6D696372
     6F63656E
     7465720D
     00
 
21f7 210000    LD      HL,#0000
21fa 228C0C    LD      (#0C8C),HL
21fd 228E0C    LD      (#0C8E),HL
2200 2A0E0C    LD      HL,(#0C0E)
2203 3A0B0C    LD      A,(#0C0B)  ; 0C0B ARGH      Number of values in input line.
2206 3D        DEC     A       	  ; se ha llamado el compilar con J nnnn desde NASSYS
2207 200D      JR      NZ,#2216
2209 210040    LD      HL,#4000   ; detect end of RAM
220c 7E        LD      A,(HL)
220d 35        DEC     (HL)
220e 3D        DEC     A
220f BE        CP      (HL)
2210 2004      JR      NZ,#2216
2212 34        INC     (HL)
2213 23        INC     HL
2214 18F6      JR      #220C
2216 22800C    LD      (#0C80),HL

2219 D7        RST     #10
221a 27        DAA     
221b 210040    LD      HL,#4000   ; ZAP Commad
221e 22820C    LD      (#0C82),HL
2221 22860C    LD      (#0C86),HL
2224 22880C    LD      (#0C88),HL
2227 210A08    LD      HL,#080A
222a 228A0C    LD      (#0C8A),HL
222d AF        XOR     A
222e 328C0C    LD      (#0C8C),A
2231 C9        RET     

; ZAP command

2232 2AC10C    LD      HL,(#0CC1)
2235 7D        LD      A,L
2236 FE41      CP      #41
2238 2005      JR      NZ,#223F
223a 7C        LD      A,H
223b FE50      CP      #50
223d 28DA      JR      Z,#2219
223f DF        RST     #18
2240 6B        LD      L,E
2241 C9        RET     

		; Clear object code

2242 210000    LD      HL,#0000
2245 22840C    LD      (#0C84),HL
2248 C9        RET     

; begin of command table

2249 0D        	db #0d                               
224a 8A27       db #278A ; addr for <CR> command            
224c 45         db "E"                                      
224d 4124       db #2441 ; addr for EDIT command (ok)       
224f 52         db "R"                                      
2250 0024       db #2400 ; addr for RUN command             
2252 43         db "C"                                      
2253 802A       db #2A80 ; addr for COMPILE command         
2255 54         db "T"                                      
2256 3A24       db #243A ; addr for TAPE command            
2258 46         db "F"                                      
2259 2D24       db #242D ; addr for FIND command            
225b 4D         db "M"                                      
225c 6E22       db #226E ; addr for MEMORY command (ok)     
225e 53         db "S"                                      
225f E322       db #22e3 ; addr for SAVE command (ok)       
2261 4C         db "L"                                      
2262 4823       db #2348 ; addr for LOAD command (ok)       
2264 56         db "V"                                      
2265 4F23       db #234f ; addr for VERIFY command (ok)     
2267 5A         db "Z"                                      
2268 3222       db #2232 ; addr for ZAP command (ok)        
226a 51         db "Q"                                      
226b BB22       db #22bb ; addr for QUIT command (ok)       
226d FF         db #FF   ; end of command table             

; MEMORY command

226e EF    LD      (#EFFF),HL
226f 54        LD      D,H
2270 65        LD      H,L
2271 78        LD      A,B
2272 74        LD      (HL),H
2273 3A2000    LD      A,(#0020)
2276 210040    LD      HL,#4000
2279 ED5B820C  LD      DE,(#0C82)
227d D7        RST     #10
227e 13        INC     DE
227f ED5B840C  LD      DE,(#0C84)
2283 7A        LD      A,D
2284 B3        OR      E
2285 C8        RET     Z

2286 EF        RST     #28
2287 43        LD      B,E
2288 6F        LD      L,A
2289 64        LD      H,H
228a 65        LD      H,L
228b 3A2000    LD      A,(#0020)
228e 2A820C    LD      HL,(#0C82)
2291 23        INC     HL
2292 EF        RST     #28
2293 24        INC     H
2294 00        NOP     
2295 DF        RST     #18
2296 66        LD      H,(HL)
2297 EB        EX      DE,HL
2298 EF        RST     #28
2299 24        INC     H
229a 00        NOP     
229b DF        RST     #18
229c 66        LD      H,(HL)
229d B7        OR      A
229e ED52      SBC     HL,DE
22a0 D7        RST     #10
22a1 03        INC     BC
22a2 DF        RST     #18
22a3 6A        LD      L,D
22a4 C9        RET     

22a5 EF        RST     #28
22a6 3C        INC     A
22a7 00        NOP     
22a8 DD21930C  LD      IX,#0C93
22ac CD0D1A    CALL    #1A0D
22af 3E05      LD      A,#05
22b1 01930C    LD      BC,#0C93
22b4 CD781B    CALL    #1B78
22b7 EF        RST     #28
22b8 3E00      LD      A,#00
22ba C9        RET     

22bb DF        RST     #18
22bc 78        LD      A,B
22bd DF        RST     #18
22be 5B        LD      E,E
22bf 46        LD      B,(HL)
22c0 04        INC     B
22c1 37        SCF     
22c2 C8        RET     Z

22c3 05        DEC     B
22c4 23        INC     HL
22c5 5E        LD      E,(HL)
22c6 23        INC     HL
22c7 56        LD      D,(HL)
22c8 23        INC     HL
22c9 B8        CP      B
22ca 20F3      JR      NZ,#22BF
22cc C9        RET     

; set HL to point to start of filename

22cd 21C00C    LD      HL,#0CC0
22d0 23        INC     HL
22d1 7E        LD      A,(HL)
22d2 FE0D      CP      #0D
22d4 C8        RET     Z
22d5 FE20      CP      #20
22d7 20F7      JR      NZ,#22D0
22d9 23        INC     HL
22da 7E        LD      A,(HL)
22db FE0D      CP      #0D
22dd C8        RET     Z

22de FE20      CP      #20
22e0 28F7      JR      Z,#22D9
22e2 C9        RET     

22e3 D7        RST     #10
22e4 E8        RET     PE

22e5 DF        RST     #18
22e6 5F        LD      E,A
22e7 DF        RST     #18
22e8 5D        LD      E,L
22e9 AF        XOR     A
22ea 47        LD      B,A
22eb DF        RST     #18
22ec 6F        LD      L,A
22ed 10FC      DJNZ    #22EB
22ef 3EAA      LD      A,#AA
22f1 0604      LD      B,#04
22f3 DF        RST     #18
22f4 6F        LD      L,A
22f5 10FC      DJNZ    #22F3
22f7 7E        LD      A,(HL)
22f8 23        INC     HL
22f9 DF        RST     #18
22fa 6F        LD      L,A
22fb FE0D      CP      #0D
22fd 20F8      JR      NZ,#22F7
22ff 210040    LD      HL,#4000
2302 ED5B820C  LD      DE,(#0C82)
2306 EB        EX      DE,HL
2307 37        SCF     
2308 ED52      SBC     HL,DE
230a DA8221    JP      C,#2182
230d EB        EX      DE,HL
230e AF        XOR     A
230f FF        RST     #38
2310 0605      LD      B,#05
2312 DF        RST     #18
2313 6F        LD      L,A
2314 3EFF      LD      A,#FF
2316 10FA      DJNZ    #2312
2318 1C        INC     E
2319 AF        XOR     A
231a BA        CP      D
231b 2801      JR      Z,#231E
231d 58        LD      E,B
231e E5        PUSH    HL
231f 010040    LD      BC,#4000
2322 B7        OR      A
2323 ED42      SBC     HL,BC
2325 7D        LD      A,L
2326 DF        RST     #18
2327 6F        LD      L,A
2328 7C        LD      A,H
2329 DF        RST     #18
232a 6F        LD      L,A
232b 7B        LD      A,E
232c DF        RST     #18
232d 6F        LD      L,A
232e 7A        LD      A,D
232f DF        RST     #18
2330 6F        LD      L,A
2331 0E00      LD      C,#00
2333 DF        RST     #18
2334 6C        LD      L,H
2335 79        LD      A,C
2336 DF        RST     #18
2337 6F        LD      L,A
2338 E1        POP     HL
2339 43        LD      B,E
233a DF        RST     #18
233b 6D        LD      L,L
233c 060B      LD      B,#0B
233e 79        LD      A,C
233f DF        RST     #18
2340 6F        LD      L,A
2341 AF        XOR     A
2342 10FB      DJNZ    #233F
2344 DF        RST     #18
2345 6A        LD      L,D
2346 18BA      JR      #2302
2348 CD4222    CALL    #2242
234b 3E52      LD      A,#52
234d 1802      JR      #2351
234f 3E56      LD      A,#56
2351 322B0C    LD      (#0C2B),A
2354 21ED23    LD      HL,#23ED
2357 227B0C    LD      (#0C7B),HL
235a DF        RST     #18
235b 5F        LD      E,A
235c CDCD22    CALL    #22CD
235f 0604      LD      B,#04
2361 CF        RST     #08
2362 FEAA      CP      #AA
2364 20F9      JR      NZ,#235F
2366 10F9      DJNZ    #2361
2368 EF        RST     #28
2369 46        LD      B,(HL)
236a 69        LD      L,C
236b 6C        LD      L,H
236c 65        LD      H,L
236d 2000      JR      NZ,#236F
236f 010000    LD      BC,#0000
2372 7E        LD      A,(HL)
2373 FE0D      CP      #0D
2375 2001      JR      NZ,#2378
2377 04        INC     B
2378 CF        RST     #08
2379 BE        CP      (HL)
237a 23        INC     HL
237b 2805      JR      Z,#2382
237d 04        INC     B
237e 05        DEC     B
237f 2001      JR      NZ,#2382
2381 0C        INC     C
2382 FE0D      CP      #0D
2384 2803      JR      Z,#2389
2386 F7        RST     #30
2387 18EF      JR      #2378
2389 EF        RST     #28
238a 2066      JR      NZ,#23F2
238c 6F        LD      L,A
238d 75        LD      (HL),L
238e 6E        LD      L,(HL)
238f 64        LD      H,H
2390 0D        DEC     C
2391 00        NOP     
2392 0C        INC     C
2393 0D        DEC     C
2394 20C6      JR      NZ,#235C
2396 0604      LD      B,#04
2398 CF        RST     #08
2399 3C        INC     A
239a 20FA      JR      NZ,#2396
239c 10FA      DJNZ    #2398
239e CF        RST     #08
239f 6F        LD      L,A
23a0 CF        RST     #08
23a1 67        LD      H,A
23a2 CF        RST     #08
23a3 5F        LD      E,A
23a4 CF        RST     #08
23a5 57        LD      D,A
23a6 0E00      LD      C,#00
23a8 DF        RST     #18
23a9 6C        LD      L,H
23aa CF        RST     #08
23ab B9        CP      C
23ac 2023      JR      NZ,#23D1
23ae ED4B820C  LD      BC,(#0C82)
23b2 09        ADD     HL,BC
23b3 43        LD      B,E
23b4 0E00      LD      C,#00
23b6 3A2B0C    LD      A,(#0C2B)
23b9 FE52      CP      #52
23bb 2803      JR      Z,#23C0
23bd CF        RST     #08
23be 1802      JR      #23C2
23c0 CF        RST     #08
23c1 77        LD      (HL),A
23c2 E5        PUSH    HL
23c3 2A290C    LD      HL,(#0C29)
23c6 77        LD      (HL),A
23c7 E1        POP     HL
23c8 81        ADD     A,C
23c9 4F        LD      C,A
23ca 23        INC     HL
23cb 10E9      DJNZ    #23B6
23cd CF        RST     #08
23ce B9        CP      C
23cf 2807      JR      Z,#23D8
23d1 EF        RST     #28
23d2 3F        CCF     
23d3 2000      JR      NZ,#23D5
23d5 18BF      JR      #2396
23d7 C9        RET     

23d8 EF        RST     #28
23d9 2E20      LD      L,#20
23db 00        NOP     
23dc AF        XOR     A
23dd BA        CP      D
23de 20B6      JR      NZ,#2396
23e0 3A2B0C    LD      A,(#0C2B)
23e3 FE52      CP      #52
23e5 2003      JR      NZ,#23EA
23e7 22820C    LD      (#0C82),HL
23ea C38221    JP      #2182
23ed DF        RST     #18
23ee 70        LD      (HL),B
23ef D8        RET     C

23f0 C5        PUSH    BC
23f1 D5        PUSH    DE
23f2 E5        PUSH    HL
23f3 DF        RST     #18
23f4 61        LD      H,C
23f5 E1        POP     HL
23f6 D1        POP     DE
23f7 C1        POP     BC
23f8 30F3      JR      NC,#23ED
23fa FE1B      CP      #1B
23fc 20EF      JR      NZ,#23ED
23fe 18EA      JR      #23EA
2400 2A840C    LD      HL,(#0C84)
2403 7C        LD      A,H
2404 B5        OR      L
2405 CC802A    CALL    Z,#2A80
2408 EF        RST     #28
2409 52        LD      D,D
240a 75        LD      (HL),L
240b 6E        LD      L,(HL)
240c 6E        LD      L,(HL)
240d 69        LD      L,C
240e 6E        LD      L,(HL)
240f 67        LD      H,A
2410 0D        DEC     C
2411 00        NOP     
2412 2A820C    LD      HL,(#0C82)
2415 23        INC     HL
2416 E9        JP      (HL)


2417 CDCD22    CALL    #22CD
241a FE0D      CP      #0D
241c C8        RET     Z
241d EB        EX      DE,HL
241e DF        RST     #18
241f 64        LD      H,H
2420 2A210C    LD      HL,(#0C21)
2423 EB        EX      DE,HL
2424 D0        RET     NC

2425 7E        LD      A,(HL)
2426 FE0D      CP      #0D
2428 C8        RET     Z

2429 E1        POP     HL
242a C33F22    JP      #223F
242d ED5BBE0C  LD      DE,(#0CBE)
2431 D7        RST     #10
2432 E4ED53    CALL    PO,#53ED
2435 BE        CP      (HL)
2436 0C        INC     C
2437 C3802A    JP      #2A80  ;compile

; TAPE Command

243a 118021    LD      DE,#2180   ; start of compilation for TAPE
243d D7D8      RST     #10	RCAL 243d+2+FFd8 = RCAL 2417
243f 18F6      JR      #2437

2441 CD6C28    CALL    #286C
2444 DD360300  LD      (IX+#03),#00
2448 DD7E02    LD      A,(IX+#02)
244b 32270C    LD      (#0C27),A
244e 214E24    LD      HL,#244E
2451 E5        PUSH    HL
2452 217E28    LD      HL,#287E
2455 E5        PUSH    HL
2456 2A290C    LD      HL,(#0C29)
2459 228A0C    LD      (#0C8A),HL
245c DF        RST     #18
245d 7B        LD      A,E
245e 214B29    LD      HL,#294B
2461 CDBF22    CALL    #22BF
2464 3804      JR      C,#246A
2466 D5        PUSH    DE
2467 C3D427    JP      #27D4
246a F5        PUSH    AF
246b 2A860C    LD      HL,(#0C86)
246e 0650      LD      B,#50
2470 CDF527    CALL    #27F5
2473 2808      JR      Z,#247D
2475 7E        LD      A,(HL)
2476 FE0D      CP      #0D
2478 2803      JR      Z,#247D
247a 23        INC     HL
247b 10F3      DJNZ    #2470
247d 04        INC     B
247e 05        DEC     B
247f 280F      JR      Z,#2490
2481 E5        PUSH    HL
2482 C5        PUSH    BC
2483 48        LD      C,B
2484 0600      LD      B,#00
2486 CDB027    CALL    #27B0
2489 C1        POP     BC
248a E1        POP     HL
248b 3620      LD      (HL),#20
248d 23        INC     HL
248e 10FB      DJNZ    #248B
2490 F1        POP     AF
2491 FE20      CP      #20
2493 3009      JR      NC,#249E
2495 217C29    LD      HL,#297C
2498 CDBF22    CALL    #22BF
249b D8        RET     C

249c D5        PUSH    DE
249d C9        RET     

249e 2A290C    LD      HL,(#0C29)
24a1 77        LD      (HL),A
24a2 47        LD      B,A
24a3 CD6228    CALL    #2862
24a6 70        LD      (HL),B
24a7 CD4728    CALL    #2847
24aa FE2F      CP      #2F
24ac 201D      JR      NZ,#24CB
24ae DD7E00    LD      A,(IX+#00)
24b1 FE20      CP      #20
24b3 2011      JR      NZ,#24C6
24b5 CD1428    CALL    #2814
24b8 C8        RET     Z

24b9 DD360000  LD      (IX+#00),#00
24bd EF        RST     #28
24be 17        RLA     
24bf 00        NOP     
24c0 DD3504    DEC     (IX+#04)
24c3 C32E26    JP      #262E
24c6 DD3400    INC     (IX+#00)
24c9 1826      JR      #24F1
24cb EF        RST     #28
24cc 12        LD      (DE),A
24cd 00        NOP     
24ce C9        RET     

24cf CD4728    CALL    #2847
24d2 2020      JR      NZ,#24F4
24d4 DD7E00    LD      A,(IX+#00)
24d7 B7        OR      A
24d8 2014      JR      NZ,#24EE
24da CD2128    CALL    #2821
24dd C8        RET     Z

24de CD5B28    CALL    #285B
24e1 22290C    LD      (#0C29),HL
24e4 DD360020  LD      (IX+#00),#20
24e8 DD3504    DEC     (IX+#04)
24eb C33626    JP      #2636
24ee DD3500    DEC     (IX+#00)
24f1 C3ED25    JP      #25ED
24f4 EF        RST     #28
24f5 1100C9    LD      DE,#C900
24f8 EF        RST     #28
24f9 1600      LD      D,#00
24fb CD4F28    CALL    #284F
24fe 2A860C    LD      HL,(#0C86)
2501 014E00    LD      BC,#004E
2504 09        ADD     HL,BC
2505 54        LD      D,H
2506 5D        LD      E,L
2507 13        INC     DE
2508 2F        CPL     
2509 C650      ADD     A,#50
250b 2805      JR      Z,#2512
250d 4F        LD      C,A
250e 0600      LD      B,#00
2510 EDB8      LDDR    
2512 3E20      LD      A,#20
2514 12        LD      (DE),A
2515 C9        RET     

2516 EF        RST     #28
2517 15        DEC     D
2518 00        NOP     
2519 CD6228    CALL    #2862
251c 54        LD      D,H
251d 5D        LD      E,L
251e 23        INC     HL
251f 2F        CPL     
2520 C650      ADD     A,#50
2522 2805      JR      Z,#2529
2524 4F        LD      C,A
2525 0600      LD      B,#00
2527 EDB0      LDIR    
2529 3E20      LD      A,#20
252b 12        LD      (DE),A
252c DD7E00    LD      A,(IX+#00)
252f C62F      ADD     A,#2F
2531 CD6428    CALL    #2864
2534 56        LD      D,(HL)
2535 CD5B28    CALL    #285B
2538 72        LD      (HL),D
2539 C9        RET     

253a CDCF24    CALL    #24CF
253d CD7E28    CALL    #287E
2540 2A290C    LD      HL,(#0C29)
2543 3620      LD      (HL),#20
2545 CD6228    CALL    #2862
2548 3620      LD      (HL),#20
254a C9        RET     

254b EF        RST     #28
254c 17        RLA     
254d 00        NOP     
254e DD7E00    LD      A,(IX+#00)
2551 B7        OR      A
2552 C8        RET     Z

2553 DD360000  LD      (IX+#00),#00
2557 1898      JR      #24F1
2559 D7        RST     #10
255a F0        RET     P

255b 2A860C    LD      HL,(#0C86)
255e 014F00    LD      BC,#004F
2561 09        ADD     HL,BC
2562 41        LD      B,C
2563 7E        LD      A,(HL)
2564 FE20      CP      #20
2566 2008      JR      NZ,#2570
2568 2B        DEC     HL
2569 7E        LD      A,(HL)
256a FE20      CP      #20
256c 2002      JR      NZ,#2570
256e 10F8      DJNZ    #2568
2570 04        INC     B
2571 05        DEC     B
2572 C8        RET     Z

2573 C5        PUSH    BC
2574 CDA724    CALL    #24A7
2577 C1        POP     BC
2578 18F7      JR      #2571
257a 2A860C    LD      HL,(#0C86)
257d CD9625    CALL    #2596
2580 C8        RET     Z

2581 CF        RST     #08
2582 F5        PUSH    AF
2583 D7        RST     #10
2584 C6CD      ADD     A,#CD
2586 F8        RET     M

2587 24        INC     H
2588 F1        POP     AF
2589 CBAF      RES     5,A
258b FE45      CP      #45
258d 3E15      LD      A,#15
258f 2802      JR      Z,#2593
2591 3E06      LD      A,#06
2593 C39E24    JP      #249E
2596 7E        LD      A,(HL)
2597 FE06      CP      #06
2599 C8        RET     Z

259a FE15      CP      #15
259c C9        RET     

259d CF        RST     #08
259e CBAF      RES     5,A
25a0 21270C    LD      HL,#0C27
25a3 CBCE      SET     1,(HL)
25a5 FE41      CP      #41
25a7 C8        RET     Z

25a8 CB8E      RES     1,(HL)
25aa C9        RET     

25ab CF        RST     #08
25ac E67F      AND     #7F
25ae D640      SUB     #40
25b0 D8        RET     C

25b1 DD7701    LD      (IX+#01),A
25b4 C9        RET     

25b5 DD7E01    LD      A,(IX+#01)
25b8 B7        OR      A
25b9 2816      JR      Z,#25D1
25bb 4F        LD      C,A
25bc CD4F28    CALL    #284F
25bf FE4F      CP      #4F
25c1 C8        RET     Z

25c2 3C        INC     A
25c3 47        LD      B,A
25c4 C5        PUSH    BC
25c5 CDA724    CALL    #24A7
25c8 C1        POP     BC
25c9 78        LD      A,B
25ca 91        SUB     C
25cb C8        RET     Z

25cc 30FC      JR      NC,#25CA
25ce 78        LD      A,B
25cf 18EE      JR      #25BF
25d1 CD4B25    CALL    #254B
25d4 CD2128    CALL    #2821
25d7 C8        RET     Z

25d8 7E        LD      A,(HL)
25d9 FE20      CP      #20
25db C0        RET     NZ

25dc 23        INC     HL
25dd E5        PUSH    HL
25de CDA724    CALL    #24A7
25e1 E1        POP     HL
25e2 18F4      JR      #25D8

25e4 210040    LD      HL,#4000
25e7 CD2122    CALL    #2221
25ea 22290C    LD      (#0C29),HL
25ed DD3504    DEC     (IX+#04)
25f0 C9        RET     

25f1 2A820C    LD      HL,(#0C82)
25f4 D7        RST     #10
25f5 F1        POP     AF
25f6 D7        RST     #10
25f7 09        ADD     HL,BC
25f8 060E      LD      B,#0E
25fa C5        PUSH    BC
25fb D7        RST     #10
25fc 31C110    LD      SP,#10C1
25ff FAC906    JP      M,#06C9
2602 0ED7      LD      C,#D7
2604 3110FC    LD      SP,#FC10
2607 C9        RET     

2608 CD4B25    CALL    #254B
260b D7        RST     #10
260c E0        RET     PO

260d 2A860C    LD      HL,(#0C86)
2610 CD0628    CALL    #2806
2613 CD5726    CALL    #2657
2616 23        INC     HL
2617 22860C    LD      (#0C86),HL
261a 118A0B    LD      DE,#0B8A
261d CD3828    CALL    #2838
2620 2804      JR      Z,#2626
2622 EF        RST     #28
2623 14        INC     D
2624 00        NOP     
2625 C9        RET     

2626 CD1728    CALL    #2817
2629 22880C    LD      (#0C88),HL
262c 18BF      JR      #25ED
262e CD1428    CALL    #2814
2631 C8        RET     Z

2632 18E3      JR      #2617
2634 D7        RST     #10
2635 2C        INC     L
2636 CD2128    CALL    #2821
2639 C8        RET     Z

263a 22860C    LD      (#0C86),HL
263d 110A08    LD      DE,#080A
2640 CD3828    CALL    #2838
2643 2804      JR      Z,#2649
2645 EF        RST     #28
2646 13        INC     DE
2647 00        NOP     
2648 C9        RET     

2649 CD2428    CALL    #2824
264c 18DB      JR      #2629
264e CD4B25    CALL    #254B
2651 DD3504    DEC     (IX+#04)
2654 2A860C    LD      HL,(#0C86)
2657 E5        PUSH    HL
2658 010100    LD      BC,#0001
265b CDB027    CALL    #27B0
265e E1        POP     HL
265f 360D      LD      (HL),#0D
2661 C9        RET     

2662 CD4B25    CALL    #254B
2665 DD3504    DEC     (IX+#04)
2668 2A860C    LD      HL,(#0C86)
266b CD1728    CALL    #2817
266e C2CC27    JP      NZ,#27CC
2671 22820C    LD      (#0C82),HL
2674 C9        RET     

2675 CD0826    CALL    #2608
2678 CD7E28    CALL    #287E
267b EF        RST     #28	; PRS
267c 09        			  <char -> de nascom: prompt del comando FIND>, 0
267d 00        			
267e 0E28      LD      C,#28
2680 CD0510    CALL    #1005	; read from keyboard
2683 DD7003    LD      (IX+#03),B
2686 CD3426    CALL    #2634
2689 2A860C    LD      HL,(#0C86)
268c CD0628    CALL    #2806
268f DD7E03    LD      A,(IX+#03)
2692 B7        OR      A
2693 C8        RET     Z

2694 4F        LD      C,A
2695 E5        PUSH    HL
2696 E1        POP     HL
2697 23        INC     HL
2698 CDF527    CALL    #27F5
269b D0        RET     NC

269c 41        LD      B,C
269d 11C00C    LD      DE,#0CC0
26a0 E5        PUSH    HL
26a1 1A        LD      A,(DE)
26a2 BE        CP      (HL)
26a3 20F1      JR      NZ,#2696
26a5 13        INC     DE
26a6 23        INC     HL
26a7 10F8      DJNZ    #26A1
26a9 E1        POP     HL
26aa 06FF      LD      B,#FF
26ac 04        INC     B
26ad 2B        DEC     HL
26ae 7E        LD      A,(HL)
26af FE0D      CP      #0D
26b1 20F9      JR      NZ,#26AC
26b3 23        INC     HL
26b4 CDE725    CALL    #25E7
26b7 04        INC     B
26b8 05        DEC     B
26b9 C8        RET     Z

26ba C5        PUSH    BC
26bb CDA724    CALL    #24A7
26be C1        POP     BC
26bf 18F7      JR      #26B8
26c1 D7        RST     #10
26c2 32C8D5    LD      (#D5C8),A
26c5 CDCC27    CALL    #27CC
26c8 E1        POP     HL
26c9 C3E725    JP      #25E7
26cc D7        RST     #10
26cd 27        DAA     
26ce C8        RET     Z

26cf 0B        DEC     BC
26d0 E5        PUSH    HL
26d1 2A860C    LD      HL,(#0C86)
26d4 EB        EX      DE,HL
26d5 CD4228    CALL    #2842
26d8 E3        EX      (SP),HL
26d9 3007      JR      NC,#26E2
26db CD4228    CALL    #2842
26de 3805      JR      C,#26E5
26e0 D1        POP     DE
26e1 C9        RET     

26e2 E3        EX      (SP),HL
26e3 09        ADD     HL,BC
26e4 E3        EX      (SP),HL
26e5 C5        PUSH    BC
26e6 D5        PUSH    DE
26e7 EB        EX      DE,HL
26e8 CDB027    CALL    #27B0
26eb D1        POP     DE
26ec C1        POP     BC
26ed E1        POP     HL
26ee 23        INC     HL
26ef CDC627    CALL    #27C6
26f2 C3ED25    JP      #25ED
26f5 210040    LD      HL,#4000
26f8 3E06      LD      A,#06
26fa D7        RST     #10
26fb 09        ADD     HL,BC
26fc C8        RET     Z

26fd 010000    LD      BC,#0000
2700 54        LD      D,H
2701 5D        LD      E,L
2702 1B        DEC     DE
2703 3E15      LD      A,#15
2705 CDF527    CALL    #27F5
2708 C8        RET     Z

2709 BE        CP      (HL)
270a 23        INC     HL
270b 03        INC     BC
270c 20F7      JR      NZ,#2705
270e B7        OR      A
270f C9        RET     

2710 75        LD      (HL),L
2711 00        NOP     
2712 CDF526    CALL    #26F5
2715 C8        RET     Z

2716 CF        RST     #08
2717 CBAF      RES     5,A
2719 21FFFF    LD      HL,#FFFF
271c FE4C      CP      #4C
271e 2001      JR      NZ,#2721
2720 23        INC     HL
2721 22910C    LD      (#0C91),HL
2724 211027    LD      HL,#2710
2727 DF        RST     #18
2728 71        LD      (HL),C
2729 13        INC     DE
272a 2A910C    LD      HL,(#0C91)
272d 23        INC     HL
272e 7C        LD      A,H
272f B5        OR      L
2730 280A      JR      Z,#273C
2732 22910C    LD      (#0C91),HL
2735 D5        PUSH    DE
2736 CDA522    CALL    #22A5
2739 DF        RST     #18
273a 69        LD      L,C
273b D1        POP     DE
273c 1A        LD      A,(DE)
273d FE15      CP      #15
273f 280B      JR      Z,#274C
2741 13        INC     DE
2742 F7        RST     #30
2743 FE0D      CP      #0D
2745 20F5      JR      NZ,#273C
2747 1A        LD      A,(DE)
2748 FE15      CP      #15
274a 20DE      JR      NZ,#272A
274c DF        RST     #18
274d 77        LD      (HL),A
274e 2A8A0C    LD      HL,(#0C8A)
2751 C3EA25    JP      #25EA
2754 21270C    LD      HL,#0C27
2757 7E        LD      A,(HL)
2758 3600      LD      (HL),#00
275a DD7702    LD      (IX+#02),A
275d 210040    LD      HL,#4000
2760 CDF527    CALL    #27F5
2763 3025      JR      NC,#278A
2765 CD9625    CALL    #2596
2768 201D      JR      NZ,#2787
276a 23        INC     HL
276b E5        PUSH    HL
276c 01FFFF    LD      BC,#FFFF
276f CDB027    CALL    #27B0
2772 D1        POP     DE
2773 2A880C    LD      HL,(#0C88)
2776 CD9027    CALL    #2790
2779 22880C    LD      (#0C88),HL
277c 2A860C    LD      HL,(#0C86)
277f CD9027    CALL    #2790
2782 22860C    LD      (#0C86),HL
2785 EB        EX      DE,HL
2786 2B        DEC     HL
2787 23        INC     HL
2788 18D6      JR      #2760
278a EF        RST     #28
278b 0C        INC     C
278c 00        NOP     
278d C38221    JP      #2182
2790 CD4228    CALL    #2842
2793 D8        RET     C

2794 2B        DEC     HL
2795 C9        RET     

2796 D5        PUSH    DE
2797 ED5B800C  LD      DE,(#0C80)
279b CD4228    CALL    #2842
279e D1        POP     DE
279f D8        RET     C

27a0 EF        RST     #28
27a1 0C        INC     C
27a2 00        NOP     
27a3 EF        RST     #28
27a4 184F      JR      #27F5
27a6 76        HALT    
27a7 65        LD      H,L
27a8 72        LD      (HL),D
27a9 66        LD      H,(HL)
27aa 6C        LD      L,H
27ab 6F        LD      L,A
27ac 77        LD      (HL),A
27ad 00        NOP     
27ae 18DD      JR      #278D
27b0 78        LD      A,B
27b1 B1        OR      C
27b2 C8        RET     Z

27b3 E5        PUSH    HL
27b4 09        ADD     HL,BC
27b5 E5        PUSH    HL
27b6 2A820C    LD      HL,(#0C82)
27b9 09        ADD     HL,BC
27ba CD9627    CALL    #2796
27bd 22820C    LD      (#0C82),HL
27c0 D1        POP     DE
27c1 B7        OR      A
27c2 ED52      SBC     HL,DE
27c4 E3        EX      (SP),HL
27c5 C1        POP     BC
27c6 78        LD      A,B
27c7 B1        OR      C
27c8 C8        RET     Z

27c9 DF        RST     #18
27ca 49        LD      C,C
27cb C9        RET     

27cc 78        LD      A,B
27cd 2F        CPL     
27ce 47        LD      B,A
27cf 79        LD      A,C
27d0 2F        CPL     
27d1 4F        LD      C,A
27d2 18DC      JR      #27B0
27d4 2A860C    LD      HL,(#0C86)
27d7 CD0628    CALL    #2806
27da 78        LD      A,B
27db B1        OR      C
27dc C8        RET     Z

27dd E5        PUSH    HL
27de 010000    LD      BC,#0000
27e1 2B        DEC     HL
27e2 7E        LD      A,(HL)
27e3 FE20      CP      #20
27e5 2006      JR      NZ,#27ED
27e7 03        INC     BC
27e8 CD0028    CALL    #2800
27eb 20F4      JR      NZ,#27E1
27ed E1        POP     HL
27ee 78        LD      A,B
27ef B1        OR      C
27f0 C8        RET     Z

27f1 0B        DEC     BC
27f2 C3CC27    JP      #27CC
27f5 D5        PUSH    DE
27f6 ED5B820C  LD      DE,(#0C82)
27fa B7        OR      A
27fb ED52      SBC     HL,DE
27fd 19        ADD     HL,DE
27fe D1        POP     DE
27ff C9        RET     

2800 D5        PUSH    DE
2801 110040    LD      DE,#4000
2804 18F4      JR      #27FA
2806 010000    LD      BC,#0000
2809 D7        RST     #10
280a EAC87E    JP      PE,#7EC8
280d FE0D      CP      #0D
280f C8        RET     Z

2810 03        INC     BC
2811 23        INC     HL
2812 18F5      JR      #2809
2814 2A860C    LD      HL,(#0C86)
2817 E5        PUSH    HL
2818 D7        RST     #10
2819 ECD7D9    CALL    PE,#D9D7
281c 23        INC     HL
281d D1        POP     DE
281e C0        RET     NZ

281f EB        EX      DE,HL
2820 C9        RET     

2821 2A860C    LD      HL,(#0C86)
2824 110040    LD      DE,#4000
2827 D7        RST     #10
2828 19        ADD     HL,DE
2829 C8        RET     Z

282a 2B        DEC     HL
282b 3E0D      LD      A,#0D
282d D7        RST     #10
282e 13        INC     DE
282f 2805      JR      Z,#2836
2831 2B        DEC     HL
2832 BE        CP      (HL)
2833 20F8      JR      NZ,#282D
2835 23        INC     HL
2836 B7        OR      A
2837 C9        RET     

2838 D5        PUSH    DE
2839 D7        RST     #10
283a 1A        LD      A,(DE)
283b D1        POP     DE
283c D7        RST     #10
283d 04        INC     B
283e 2A880C    LD      HL,(#0C88)
2841 C9        RET     

2842 B7        OR      A
2843 ED52      SBC     HL,DE
2845 19        ADD     HL,DE
2846 C9        RET     

2847 3A290C    LD      A,(#0C29)
284a E63F      AND     #3F
284c D60A      SUB     #0A
284e C9        RET     

284f D7        RST     #10
2850 F6DD      OR      #DD
2852 86        ADD     A,(HL)
2853 00        NOP     
2854 C9        RET     

2855 2A290C    LD      HL,(#0C29)
2858 DF        RST     #18
2859 7C        LD      A,H
285a C9        RET     

285b D7        RST     #10
285c F8        RET     M

285d 012F00    LD      BC,#002F
2860 09        ADD     HL,BC
2861 C9        RET     

2862 D7        RST     #10
2863 EB        EX      DE,HL
2864 5F        LD      E,A
2865 1600      LD      D,#00
2867 2A860C    LD      HL,(#0C86)
286a 19        ADD     HL,DE
286b C9        RET     

286c EF        RST     #28
286d 0C        INC     C
286e 00        NOP     
286f CD4222    CALL    #2242
2872 2A8A0C    LD      HL,(#0C8A)
2875 22290C    LD      (#0C29),HL
2878 DD218C0C  LD      IX,#0C8C
287c 1805      JR      #2883
287e DD7E04    LD      A,(IX+#04)
2881 B7        OR      A
2882 C8        RET     Z

2883 DD360400  LD      (IX+#04),#00
2887 2A820C    LD      HL,(#0C82)
288a 360D      LD      (HL),#0D
288c 2A880C    LD      HL,(#0C88)
288f 110A08    LD      DE,#080A
2892 060F      LD      B,#0F
2894 C5        PUSH    BC
2895 DD4600    LD      B,(IX+#00)
2898 04        INC     B
2899 05        DEC     B
289a 2808      JR      Z,#28A4
289c 7E        LD      A,(HL)
289d FE0D      CP      #0D
289f 2803      JR      Z,#28A4
28a1 23        INC     HL
28a2 18F5      JR      #2899
28a4 013000    LD      BC,#0030
28a7 7E        LD      A,(HL)
28a8 FE0D      CP      #0D
28aa 280D      JR      Z,#28B9
28ac EDA0      LDI     
28ae EAA728    JP      PE,#28A7
28b1 7E        LD      A,(HL)
28b2 FE0D      CP      #0D
28b4 280A      JR      Z,#28C0
28b6 23        INC     HL
28b7 18F8      JR      #28B1
28b9 3E20      LD      A,#20
28bb 41        LD      B,C
28bc 12        LD      (DE),A
28bd 13        INC     DE
28be 10FC      DJNZ    #28BC
28c0 EB        EX      DE,HL
28c1 011000    LD      BC,#0010
28c4 09        ADD     HL,BC
28c5 EB        EX      DE,HL
28c6 CDF527    CALL    #27F5
28c9 2801      JR      Z,#28CC
28cb 23        INC     HL
28cc C1        POP     BC
28cd 10C5      DJNZ    #2894
28cf C9        RET     

28d0 D7        RST     #10
28d1 33        INC     SP
28d2 21BC0C    LD      HL,#0CBC
28d5 3805      JR      C,#28DC
28d7 77        LD      (HL),A
28d8 23        INC     HL
28d9 363C      LD      (HL),#3C
28db C9        RET     

28dc FE13      CP      #13
28de 2804      JR      Z,#28E4
28e0 FE14      CP      #14
28e2 200B      JR      NZ,#28EF
28e4 E5        PUSH    HL
28e5 21010C    LD      HL,#0C01
28e8 CB66      BIT     4,(HL)
28ea E1        POP     HL
28eb 2802      JR      Z,#28EF
28ed C606      ADD     A,#06
28ef BE        CP      (HL)
28f0 37        SCF     
28f1 20E4      JR      NZ,#28D7
28f3 B7        OR      A
28f4 23        INC     HL
28f5 35        DEC     (HL)
28f6 C0        RET     NZ

28f7 3614      LD      (HL),#14
28f9 37        SCF     
28fa C9        RET     

28fb 76        HALT    
28fc 00        NOP     
28fd 80        ADD     A,B
28fe 80        ADD     A,B
28ff 80        ADD     A,B
2900 80        ADD     A,B
2901 C0        RET     NZ

2902 80        ADD     A,B
2903 80        ADD     A,B
2904 B8        CP      B
2905 21060C    LD      HL,#0C06
2908 46        LD      B,(HL)
2909 C5        PUSH    BC
290a E5        PUSH    HL
290b 11020C    LD      DE,#0C02
290e 21FD28    LD      HL,#28FD
2911 0608      LD      B,#08
2913 1A        LD      A,(DE)
2914 A6        AND     (HL)
2915 12        LD      (DE),A
2916 13        INC     DE
2917 23        INC     HL
2918 10F9      DJNZ    #2913
291a DF        RST     #18
291b 61        LD      H,C
291c 3017      JR      NC,#2935
291e 21010C    LD      HL,#0C01
2921 CB5E      BIT     3,(HL)
2923 2004      JR      NZ,#2929
2925 CB6E      BIT     5,(HL)
2927 280C      JR      Z,#2935
2929 FE21      CP      #21
292b 3808      JR      C,#2935
292d FE3B      CP      #3B
292f 3F        CCF     
2930 3803      JR      C,#2935
2932 D620      SUB     #20
2934 37        SCF     
2935 21270C    LD      HL,#0C27
2938 CB4E      BIT     1,(HL)
293a EB        EX      DE,HL
293b E1        POP     HL
293c C1        POP     BC
293d C8        RET     Z

293e CBBF      RES     7,A
2940 CB70      BIT     6,B
2942 C0        RET     NZ

2943 CB76      BIT     6,(HL)
2945 C8        RET     Z

2946 1A        LD      A,(DE)
2947 EE01      XOR     #01
2949 12        LD      (DE),A
294a C9        RET     

294b 02        LD      (BC),A
294c E42503    CALL    PO,#0325
294f 89        ADC     A,C
2950 2604      LD      H,#04
2952 C1        POP     BC
2953 2605      LD      H,#05
2955 F1        POP     AF
2956 25        DEC     H
2957 0675      LD      B,#75
2959 2609      LD      H,#09
295b CC260D    CALL    Z,#0D26
295e 08        EX      AF,AF'
295f 260E      LD      H,#0E
2961 F8        RET     M

2962 25        DEC     H
2963 0F        RRCA    
2964 012610    LD      BC,#1026
2967 12        LD      (DE),A
2968 27        DAA     
2969 13        INC     DE
296a 3626      LD      (HL),#26
296c 14        INC     D
296d 2E26      LD      L,#26
296f 1854      JR      #29C5
2971 27        DAA     
2972 1A        LD      A,(DE)
2973 4E        LD      C,(HL)
2974 2619      LD      H,#19
2976 62        LD      H,D
2977 261B      LD      H,#1B
2979 34        INC     (HL)
297a 26FF      LD      H,#FF
297c 08        EX      AF,AF'
297d 3A2512    LD      A,(#1225)
2980 A7        AND     A
2981 24        INC     H
2982 11CF24    LD      DE,#24CF
2985 16F8      LD      D,#F8
2987 24        INC     H
2988 15        DEC     D
2989 1625      LD      D,#25
298b 0A        LD      A,(BC)
298c 4B        LD      C,E
298d 25        DEC     H
298e 0C        INC     C
298f 59        LD      E,C
2990 25        DEC     H
2991 17        RLA     
2992 B5        OR      L
2993 25        DEC     H
2994 017A25    LD      BC,#257A
2997 07        RLCA    
2998 9D        SBC     A,L
2999 25        DEC     H
299a 0B        DEC     BC
299b AB        XOR     E
299c 25        DEC     H
299d FF        RST     #38
299e FF        RST     #38
299f FF        RST     #38
29a0 7E        LD      A,(HL)
29a1 1C        INC     E
29a2 A8        XOR     B
29a3 1C        INC     E
29a4 BC        CP      H
29a5 1C        INC     E
29a6 0F        RRCA    
29a7 1D        DEC     E
29a8 56        LD      D,(HL)
29a9 1D        DEC     E
29aa 98        SBC     A,B
29ab 1D        DEC     E
29ac 8C        ADC     A,H
29ad 1C        INC     E
29ae 91        SUB     C
29af 1C        INC     E
29b0 9A        SBC     A,D
29b1 1C        INC     E
29b2 9F        SBC     A,A
29b3 1C        INC     E
29b4 E5        PUSH    HL
29b5 1D        DEC     E
29b6 EA1DAE    JP      PE,#AE1D
29b9 1C        INC     E
29ba B3        OR      E
29bb 1C        INC     E
29bc D61C      SUB     #1C
29be DB1C      IN      A,(#1C)
29c0 E41CE9    CALL    PO,#E91C
29c3 1C        INC     E
29c4 25        DEC     H
29c5 1D        DEC     E
29c6 2A1D33    LD      HL,(#331D)
29c9 1D        DEC     E
29ca 381D      JR      C,#29E9
29cc 59        LD      E,C
29cd 1D        DEC     E
29ce 63        LD      H,E
29cf 1D        DEC     E
29d0 6E        LD      L,(HL)
29d1 1D        DEC     E
29d2 74        LD      (HL),H
29d3 1D        DEC     E
29d4 B5        OR      L
29d5 1D        DEC     E
29d6 BA        CP      D
29d7 1D        DEC     E
29d8 C31DC8    JP      #C81D
29db 1D        DEC     E
29dc F41DFA    CALL    P,#FA1D
29df 1D        DEC     E
29e0 03        INC     BC
29e1 1E0B      LD      E,#0B
29e3 1E3B      LD      E,#3B
29e5 1E2C      LD      E,#2C
29e7 1E24      LD      E,#24
29e9 1E15      LD      E,#15
29eb 1EFA      LD      E,#FA
29ed 1C        INC     E
29ee 41        LD      B,C
29ef 1D        DEC     E
29f0 7E        LD      A,(HL)
29f1 1D        DEC     E
29f2 CB1E      RR      (HL)
29f4 DA1EF1    JP      C,#F11E
29f7 1E00      LD      E,#00
29f9 1F        RRA     
29fa 3810      JR      C,#2A0C
29fc BF        CP      A
29fd 10B4      DJNZ    #29B3
29ff 10BA      DJNZ    #29BB
2a01 10B1      DJNZ    #29B4
2a03 10B9      DJNZ    #29BE
2a05 12        LD      (DE),A
2a06 FA12F2    JP      M,#F212
2a09 12        LD      (DE),A
2a0a 96        SUB     (HL)
2a0b 14        INC     D
2a0c 9E        SBC     A,(HL)
2a0d 13        INC     DE
2a0e 2F        CPL     
2a0f 14        INC     D
2a10 70        LD      (HL),B
2a11 12        LD      (DE),A
2a12 A7        AND     A
2a13 12        LD      (DE),A
2a14 50        LD      D,B
2a15 12        LD      (DE),A
2a16 CC1023    CALL    Z,#2310
2a19 161A      LD      D,#1A
2a1b 19        ADD     HL,DE
2a1c 3019      JR      NC,#2A37
2a1e 60        LD      H,B
2a1f 19        ADD     HL,DE
2a20 8B        ADC     A,E
2a21 19        ADD     HL,DE
2a22 92        SUB     D
2a23 19        ADD     HL,DE
2a24 99        SBC     A,C
2a25 19        ADD     HL,DE
2a26 59        LD      E,C
2a27 19        ADD     HL,DE
2a28 A0        AND     B
2a29 19        ADD     HL,DE
2a2a 69        LD      L,C
2a2b 19        ADD     HL,DE
2a2c 1819      JR      #2A47
2a2e FB        EI      
2a2f 15        DEC     D
2a30 ED15      DB      #ED, #15         ; Undocumented 8 T-State NOP
2a32 83        ADD     A,E
2a33 19        ADD     HL,DE
2a34 53        LD      D,E
2a35 1A        LD      A,(DE)
2a36 44        LD      B,H
2a37 1A        LD      A,(DE)
2a38 55        LD      D,L
2a39 12        LD      (DE),A
2a3a 54        LD      D,H
2a3b 19        ADD     HL,DE
2a3c 5F        LD      E,A
2a3d 1A        LD      A,(DE)
2a3e 87        ADD     A,A
2a3f 1A        LD      A,(DE)
2a40 BD        CP      L
2a41 1A        LD      A,(DE)
2a42 C7        RST     #00
2a43 1A        LD      A,(DE)
2a44 DD1A      LD      A,(DE)
2a46 43        LD      B,E
2a47 12        LD      (DE),A
2a48 F21CCC    JP      P,#CC1C
2a4b 19        ADD     HL,DE
2a4c 0F        RRCA    
2a4d 1B        DEC     DE
2a4e 43        LD      B,E
2a4f 1658      LD      D,#58
2a51 1B        DEC     DE
2a52 261B      LD      H,#1B
2a54 B7        OR      A
2a55 1B        DEC     DE
2a56 93        SUB     E
2a57 1B        DEC     DE
2a58 101C      DJNZ    #2A76
2a5a 381C      JR      C,#2A78
2a5c A4        AND     H
2a5d 1F        RRA     
2a5e 8F        ADC     A,A
2a5f 1F        RRA     
2a60 E0        RET     PO

2a61 19        ADD     HL,DE
2a62 D8        RET     C

2a63 19        ADD     HL,DE
2a64 F0        RET     P

2a65 1E82      LD      E,#82
2a67 1F        RRA     
2a68 66        LD      H,(HL)
2a69 1F        RRA     
2a6a E9        JP      (HL)
2a6b 2003      JR      NZ,#2A70
2a6d 204A      JR      NZ,#2AB9
2a6f 20D2      JR      NZ,#2A43
2a71 203A      JR      NZ,#2AAD
2a73 1E2B      LD      E,#2B
2a75 1E23      LD      E,#23
2a77 1E14      LD      E,#14
2a79 1E12      LD      E,#12
2a7b 1D        DEC     E
2a7c 52        LD      D,D
2a7d 1D        DEC     E
2a7e 94        SUB     H
2a7f 1D        DEC     E

; COMPILER Start

2a80 D5        PUSH    DE
2a81 FDE1      POP     IY
2a83 CD4222    CALL    #2242
2a86 3AC00C    LD      A,(#0CC0)
2a89 FE52      CP      #52
2a8b 2002      JR      NZ,#2A8F
2a8d 3E43      LD      A,#43
2a8f 32900C    LD      (#0C90),A
2a92 FE54      CP      #54
2a94 2013      JR      NZ,#2AA9

2a96 DF        RST     #18
2a97 5F        LD      E,A
2a98 DF        RST     #18
2a99 5D        LD      E,L
2a9a AF        XOR     A
2a9b 32910C    LD      (#0C91),A
2a9e FD22920C  LD      (#0C92),IY
2aa2 47        LD      B,A
2aa3 DF        RST     #18
2aa4 6F        LD      L,A
2aa5 10FC      DJNZ    #2AA3
2aa7 182A      JR      #2AD3
2aa9 FE46      CP      #46
2aab 2013      JR      NZ,#2AC0
2aad EF        RST     #28
2aae 53        LD      D,E
2aaf 65        LD      H,L
2ab0 61        LD      H,C
2ab1 72        LD      (HL),D
2ab2 63        LD      H,E
2ab3 68        LD      L,B
2ab4 69        LD      L,C
2ab5 6E        LD      L,(HL)
2ab6 67        LD      H,A
2ab7 2020      JR      NZ,#2AD9
2ab9 00        NOP     
2aba FD210000  LD      IY,#0000
2abe 1813      JR      #2AD3

2ac0 EF        RST     #28  PRS "Compiling"
2ac1 436F6D70
2ac5 696C696E        
2ac9 67202000        
2acd FD2A820C  LD      IY,(#0C82)
2ad1 FD23      INC     IY
2ad3 DD210040  LD      IX,#4000
2ad7 2A800C    LD      HL,(#0C80)
2ada 2B        DEC     HL
2adb 22980C    LD      (#0C98),HL
2ade 22960C    LD      (#0C96),HL
2ae1 CD143B    CALL    #3B14
2ae4 CDD13A    CALL    #3AD1
2ae7 33        INC     SP
2ae8 3F        CCF     
2ae9 200A      JR      NZ,#2AF5
2aeb CD933B    CALL    #3B93
2aee 2805      JR      Z,#2AF5
2af0 CDF13D    CALL    #3DF1
2af3 18F6      JR      #2AEB
2af5 AF        XOR     A
2af6 329E0C    LD      (#0C9E),A
2af9 CD9C36    CALL    #369C
2afc 65        LD      H,L
2afd FDE5      PUSH    IY
2aff CD4F36    CALL    #364F
2b02 2A800C    LD      HL,(#0C80)
2b05 CD4F36    CALL    #364F
2b08 3A900C    LD      A,(#0C90)
2b0b D643      SUB     #43
2b0d CD5436    CALL    #3654
2b10 CD6B2B    CALL    #2B6B
2b13 DD7E00    LD      A,(IX+#00)
2b16 FE2E      CP      #2E
2b18 CD503D    CALL    #3D50
2b1b 09        ADD     HL,BC
2b1c CD5833    CALL    #3358
2b1f 3A900C    LD      A,(#0C90)
2b22 FE54      CP      #54
2b24 2809      JR      Z,#2B2F
2b26 CDA136    CALL    #36A1
2b29 03        INC     BC
2b2a C38221    JP      #2182
2b2d 1806      JR      #2B35
2b2f CDA136    CALL    #36A1
2b32 02        LD      (BC),A
2b33 DF        RST     #18
2b34 5B        LD      E,E
2b35 E1        POP     HL
2b36 CD0437    CALL    #3704
2b39 3A900C    LD      A,(#0C90)
2b3c FE43      CP      #43
2b3e 200C      JR      NZ,#2B4C
2b40 FD22840C  LD      (#0C84),IY
2b44 EF        RST     #28
2b45 4F        LD      C,A
2b46 4B        LD      C,E
2b47 0D        DEC     C
2b48 00        NOP     
2b49 C36E22    JP      #226E
2b4c FE54      CP      #54
2b4e 2017      JR      NZ,#2B67

2b50 AF        XOR     A
2b51 0605      LD      B,#05
2b53 DF6F        LD      L,A
2b55 3E1B      LD      A,#1B
2b57 10FA      DJNZ    #2B53
2b59 DF5F        LD      E,A
2b5b FDE5      PUSH    IY
2b5d E1        POP     HL
2b5e DF66        LD      H,(HL)
2b60 EF        RST     #28
2b61 456E642E        LD      H,H
2b65 00         LD      L,#00
2b66 C9        RET     

2b67 EF        RST     #28
2b68 3F        CCF     
2b69 00        NOP     
2b6a C9        RET     

2b6b 210100    LD      HL,#0001
2b6e 22940C    LD      (#0C94),HL
2b71 CD9836    CALL    #3698
2b74 FDE5      PUSH    IY
2b76 CD4F36    CALL    #364F
2b79 CDD13A    CALL    #3AD1
2b7c FF        RST     #38
2b7d 3E20      LD      A,#20
2b7f 23        INC     HL
2b80 2A980C    LD      HL,(#0C98)
2b83 E5        PUSH    HL
2b84 DD7E00    LD      A,(IX+#00)
2b87 CDED3B    CALL    #3BED
2b8a CDE834    CALL    #34E8
2b8d 3E20      LD      A,#20
2b8f 0604      LD      B,#04
2b91 CD0B35    CALL    #350B
2b94 AF        XOR     A
2b95 10FA      DJNZ    #2B91
2b97 E1        POP     HL
2b98 CD2035    CALL    #3520
2b9b CD973B    CALL    #3B97
2b9e 28E0      JR      Z,#2B80
2ba0 CDBF3B    CALL    #3BBF
2ba3 CDD13A    CALL    #3AD1
2ba6 04        INC     B
2ba7 3F        CCF     
2ba8 2055      JR      NZ,#2BFF
2baa 2A980C    LD      HL,(#0C98)
2bad E5        PUSH    HL
2bae E5        PUSH    HL
2baf CDE234    CALL    #34E2
2bb2 E3        EX      (SP),HL
2bb3 22980C    LD      (#0C98),HL
2bb6 3E3D      LD      A,#3D
2bb8 CD993B    CALL    #3B99
2bbb CD503D    CALL    #3D50
2bbe 02        LD      (BC),A
2bbf CDEC3C    CALL    #3CEC
2bc2 D1        POP     DE
2bc3 ED53980C  LD      (#0C98),DE
2bc7 3E38      LD      A,#38
2bc9 B1        OR      C
2bca E5        PUSH    HL
2bcb CD0B35    CALL    #350B
2bce E1        POP     HL
2bcf 79        LD      A,C
2bd0 B7        OR      A
2bd1 200E      JR      NZ,#2BE1
2bd3 D9        EXX     
2bd4 E5        PUSH    HL
2bd5 D5        PUSH    DE
2bd6 C5        PUSH    BC
2bd7 0603      LD      B,#03
2bd9 D1        POP     DE
2bda CD0635    CALL    #3506
2bdd 10FA      DJNZ    #2BD9
2bdf 180B      JR      #2BEC
2be1 EB        EX      DE,HL
2be2 3D        DEC     A
2be3 2804      JR      Z,#2BE9
2be5 78        LD      A,B
2be6 CD0B35    CALL    #350B
2be9 CD0635    CALL    #3506
2bec E1        POP     HL
2bed CD2035    CALL    #3520
2bf0 CDBF3B    CALL    #3BBF
2bf3 DDE5      PUSH    IX
2bf5 CDB23A    CALL    #3AB2
2bf8 013A3F    LD      BC,#3F3A
2bfb DDE1      POP     IX
2bfd 20AB      JR      NZ,#2BAA
2bff AF        XOR     A
2c00 32B10C    LD      (#0CB1),A
2c03 210100    LD      HL,#0001
2c06 22940C    LD      (#0C94),HL
2c09 CDD13A    CALL    #3AD1
2c0c 3A3F20    LD      A,(#203F)
2c0f 12        LD      (DE),A
2c10 CD8F33    CALL    #338F
2c13 CDBF3B    CALL    #3BBF
2c16 DDE5      PUSH    IX
2c18 CDB23A    CALL    #3AB2
2c1b 013E3F    LD      BC,#3F3E
2c1e DDE1      POP     IX
2c20 20EE      JR      NZ,#2C10
2c22 2A940C    LD      HL,(#0C94)
2c25 E5        PUSH    HL
2c26 CDB23A    CALL    #3AB2
2c29 01443F    LD      BC,#3F44
2c2c C2AF2D    JP      NZ,#2DAF
2c2f 7E        LD      A,(HL)
2c30 32B20C    LD      (#0CB2),A
2c33 3A9E0C    LD      A,(#0C9E)
2c36 3C        INC     A
2c37 329E0C    LD      (#0C9E),A
2c3a DD22B40C  LD      (#0CB4),IX
2c3e AF        XOR     A
2c3f 32B30C    LD      (#0CB3),A
2c42 67        LD      H,A
2c43 6F        LD      L,A
2c44 22940C    LD      (#0C94),HL
2c47 2A980C    LD      HL,(#0C98)
2c4a E5        PUSH    HL
2c4b 229C0C    LD      (#0C9C),HL
2c4e CDAA2D    CALL    #2DAA
2c51 2805      JR      Z,#2C58
2c53 CDA733    CALL    #33A7
2c56 1803      JR      #2C5B
2c58 CDD834    CALL    #34D8
2c5b CD8B3B    CALL    #3B8B
2c5e 2019      JR      NZ,#2C79
2c60 CDD13A    CALL    #3AD1
2c63 3A3F06    LD      A,(#063F)
2c66 00        NOP     
2c67 2001      JR      NZ,#2C6A
2c69 05        DEC     B
2c6a 78        LD      A,B
2c6b 32B10C    LD      (#0CB1),A
2c6e CD8F33    CALL    #338F
2c71 CD933B    CALL    #3B93
2c74 28EA      JR      Z,#2C60
2c76 CDB73B    CALL    #3BB7
2c79 AF        XOR     A
2c7a 32B10C    LD      (#0CB1),A
2c7d CDAA2D    CALL    #2DAA
2c80 2A940C    LD      HL,(#0C94)
2c83 282B      JR      Z,#2CB0
2c85 CDCE33    CALL    #33CE
2c88 2AAC0C    LD      HL,(#0CAC)
2c8b 22A00C    LD      (#0CA0),HL
2c8e 2A940C    LD      HL,(#0C94)
2c91 ED5BAA0C  LD      DE,(#0CAA)
2c95 19        ADD     HL,DE
2c96 E5        PUSH    HL
2c97 23        INC     HL
2c98 23        INC     HL
2c99 CD5419    CALL    #1954
2c9c 22A40C    LD      (#0CA4),HL
2c9f ED5B9C0C  LD      DE,(#0C9C)
2ca3 CDA934    CALL    #34A9
2ca6 CDAF34    CALL    #34AF
2ca9 1B        DEC     DE
2caa 1B        DEC     DE
2cab ED539C0C  LD      (#0C9C),DE
2caf E1        POP     HL
2cb0 22A20C    LD      (#0CA2),HL
2cb3 CDBF3B    CALL    #3BBF
2cb6 2A980C    LD      HL,(#0C98)
2cb9 E5        PUSH    HL
2cba DDE5      PUSH    IX
2cbc DD2AB40C  LD      IX,(#0CB4)
2cc0 CDE234    CALL    #34E2
2cc3 DDE1      POP     IX
2cc5 CDAA2D    CALL    #2DAA
2cc8 3E10      LD      A,#10
2cca 2806      JR      Z,#2CD2
2ccc 0618      LD      B,#18
2cce 3AA10C    LD      A,(#0CA1)
2cd1 B0        OR      B
2cd2 CD0B35    CALL    #350B
2cd5 3AA00C    LD      A,(#0CA0)
2cd8 CD0B35    CALL    #350B
2cdb 3AB30C    LD      A,(#0CB3)
2cde 47        LD      B,A
2cdf CD0B35    CALL    #350B
2ce2 3A9E0C    LD      A,(#0C9E)
2ce5 CD0B35    CALL    #350B
2ce8 CD0335    CALL    #3503
2ceb ED5B9C0C  LD      DE,(#0C9C)
2cef 04        INC     B
2cf0 05        DEC     B
2cf1 2815      JR      Z,#2D08
2cf3 C5        PUSH    BC
2cf4 D5        PUSH    DE
2cf5 CDA934    CALL    #34A9
2cf8 0607      LD      B,#07
2cfa 1A        LD      A,(DE)
2cfb 1B        DEC     DE
2cfc CD0B35    CALL    #350B
2cff 10F9      DJNZ    #2CFA
2d01 D1        POP     DE
2d02 CD8B2D    CALL    #2D8B
2d05 C1        POP     BC
2d06 18E8      JR      #2CF0
2d08 E1        POP     HL
2d09 E5        PUSH    HL
2d0a CD2035    CALL    #3520
2d0d 2A980C    LD      HL,(#0C98)
2d10 E5        PUSH    HL
2d11 ED5BA20C  LD      DE,(#0CA2)
2d15 D5        PUSH    DE
2d16 E5        PUSH    HL
2d17 CDD13A    CALL    #3AD1
2d1a 58        LD      E,B
2d1b 3F        CCF     
2d1c 2008      JR      NZ,#2D26
2d1e CD0A3D    CALL    #3D0A
2d21 CDDA2E    CALL    #2EDA
2d24 1825      JR      #2D4B
2d26 CDD13A    CALL    #3AD1
2d29 60        LD      H,B
2d2a 3F        CCF     
2d2b 200D      JR      NZ,#2D3A
2d2d CD143D    CALL    #3D14
2d30 CD5436    CALL    #3654
2d33 CD973B    CALL    #3B97
2d36 28F5      JR      Z,#2D2D
2d38 1811      JR      #2D4B
2d3a CD9C36    CALL    #369C
2d3d 2A3A9E    LD      HL,(#9E3A)
2d40 0C        INC     C
2d41 CD5436    CALL    #3654
2d44 CD6B2B    CALL    #2B6B
2d47 CD9C36    CALL    #369C
2d4a 2B        DEC     HL
2d4b CDBF3B    CALL    #3BBF
2d4e 2A960C    LD      HL,(#0C96)
2d51 E3        EX      (SP),HL
2d52 22960C    LD      (#0C96),HL
2d55 CD5833    CALL    #3358
2d58 E1        POP     HL
2d59 22960C    LD      (#0C96),HL
2d5c E1        POP     HL
2d5d 7C        LD      A,H
2d5e B5        OR      L
2d5f 280C      JR      Z,#2D6D
2d61 E5        PUSH    HL
2d62 CD9C36    CALL    #369C
2d65 2C        INC     L
2d66 E1        POP     HL
2d67 CD5419    CALL    #1954
2d6a CD4F36    CALL    #364F
2d6d 3EC9      LD      A,#C9
2d6f CD5436    CALL    #3654
2d72 D1        POP     DE
2d73 E1        POP     HL
2d74 B7        OR      A
2d75 ED52      SBC     HL,DE
2d77 44        LD      B,H
2d78 4D        LD      C,L
2d79 19        ADD     HL,DE
2d7a D1        POP     DE
2d7b EDB8      LDDR    
2d7d ED53980C  LD      (#0C98),DE
2d81 3A9E0C    LD      A,(#0C9E)
2d84 3D        DEC     A
2d85 329E0C    LD      (#0C9E),A
2d88 C3262C    JP      #2C26
2d8b CDA934    CALL    #34A9
2d8e EB        EX      DE,HL
2d8f 010700    LD      BC,#0007
2d92 ED42      SBC     HL,BC
2d94 56        LD      D,(HL)
2d95 2B        DEC     HL
2d96 5E        LD      E,(HL)
2d97 EB        EX      DE,HL
2d98 ED4B940C  LD      BC,(#0C94)
2d9c 03        INC     BC
2d9d 37        SCF     
2d9e ED42      SBC     HL,BC
2da0 EB        EX      DE,HL
2da1 73        LD      (HL),E
2da2 23        INC     HL
2da3 72        LD      (HL),D
2da4 EB        EX      DE,HL
2da5 1B        DEC     DE
2da6 1B        DEC     DE
2da7 1B        DEC     DE
2da8 1B        DEC     DE
2da9 C9        RET     

2daa 3AB20C    LD      A,(#0CB2)
2dad B7        OR      A
2dae C9        RET     

2daf E1        POP     HL
2db0 D1        POP     DE
2db1 E5        PUSH    HL
2db2 FDE5      PUSH    IY
2db4 E1        POP     HL
2db5 2B        DEC     HL
2db6 2B        DEC     HL
2db7 B7        OR      A
2db8 ED52      SBC     HL,DE
2dba 2005      JR      NZ,#2DC1
2dbc CD2537    CALL    #3725
2dbf 1804      JR      #2DC5
2dc1 EB        EX      DE,HL
2dc2 CD0437    CALL    #3704
2dc5 E1        POP     HL
2dc6 2B        DEC     HL
2dc7 7C        LD      A,H
2dc8 B5        OR      L
2dc9 2809      JR      Z,#2DD4
2dcb E5        PUSH    HL
2dcc CD9C36    CALL    #369C
2dcf 2C        INC     L
2dd0 E1        POP     HL
2dd1 CD4F36    CALL    #364F
2dd4 CDD13A    CALL    #3AD1
2dd7 3E3F      LD      A,#3F
2dd9 CD503D    CALL    #3D50
2ddc 40        LD      B,B
2ddd CDEB2D    CALL    #2DEB
2de0 CDD13A    CALL    #3AD1
2de3 F7        RST     #30
2de4 3F        CCF     
2de5 C8        RET     Z

2de6 CDBF3B    CALL    #3BBF
2de9 18F2      JR      #2DDD
2deb CDB23A    CALL    #3AB2
2dee 02        LD      (BC),A
2def 64        LD      H,H
2df0 3F        CCF     
2df1 2005      JR      NZ,#2DF8
2df3 5E        LD      E,(HL)
2df4 23        INC     HL
2df5 56        LD      D,(HL)
2df6 EB        EX      DE,HL
2df7 E9        JP      (HL)
2df8 CDE539    CALL    #39E5
2dfb 3008      JR      NC,#2E05
2dfd 0669      LD      B,#69
2dff CD223A    CALL    #3A22
2e02 DA562E    JP      C,#2E56
2e05 E5        PUSH    HL
2e06 CD533B    CALL    #3B53
2e09 CD2A35    CALL    #352A
2e0c E1        POP     HL
2e0d C5        PUSH    BC
2e0e CDEB39    CALL    #39EB
2e11 C1        POP     BC
2e12 3AAC0C    LD      A,(#0CAC)
2e15 57        LD      D,A
2e16 3AAD0C    LD      A,(#0CAD)
2e19 F5        PUSH    AF
2e1a CD2C2E    CALL    #2E2C
2e1d F1        POP     AF
2e1e CB5F      BIT     3,A
2e20 2005      JR      NZ,#2E27
2e22 0612      LD      B,#12
2e24 C30E3A    JP      #3A0E
2e27 066D      LD      B,#6D
2e29 C3053A    JP      #3A05
2e2c E603      AND     #03
2e2e B7        OR      A
2e2f 200B      JR      NZ,#2E3C
2e31 0C        INC     C
2e32 0D        DEC     C
2e33 2807      JR      Z,#2E3C
2e35 F5        PUSH    AF
2e36 CD9C36    CALL    #369C
2e39 3C        INC     A
2e3a 0D        DEC     C
2e3b F1        POP     AF
2e3c 47        LD      B,A
2e3d B9        CP      C
2e3e 2804      JR      Z,#2E44
2e40 CD573D    CALL    #3D57
2e43 70        LD      (HL),B
2e44 CB49      BIT     1,C
2e46 2806      JR      Z,#2E4E
2e48 2E06      LD      L,#06
2e4a 62        LD      H,D
2e4b C34F36    JP      #364F
2e4e 0C        INC     C
2e4f 0D        DEC     C
2e50 C0        RET     NZ

2e51 3ED9      LD      A,#D9
2e53 C35436    JP      #3654
2e56 0610      LD      B,#10
2e58 CDCB39    CALL    #39CB
2e5b DAF42E    JP      C,#2EF4
2e5e 2B        DEC     HL
2e5f 2B        DEC     HL
2e60 46        LD      B,(HL)
2e61 2B        DEC     HL
2e62 2B        DEC     HL
2e63 E5        PUSH    HL
2e64 04        INC     B
2e65 05        DEC     B
2e66 CAD52E    JP      Z,#2ED5
2e69 CDAF3B    CALL    #3BAF
2e6c 2B        DEC     HL
2e6d 2B        DEC     HL
2e6e C5        PUSH    BC
2e6f 11B60C    LD      DE,#0CB6
2e72 010700    LD      BC,#0007
2e75 EDB8      LDDR    
2e77 E5        PUSH    HL
2e78 3AB60C    LD      A,(#0CB6)
2e7b CB57      BIT     2,A
2e7d 281E      JR      Z,#2E9D
2e7f CB5F      BIT     3,A
2e81 2007      JR      NZ,#2E8A
2e83 CD7C3A    CALL    #3A7C
2e86 0602      LD      B,#02
2e88 1805      JR      #2E8F
2e8a CDF639    CALL    #39F6
2e8d 0604      LD      B,#04
2e8f CDDF2E    CALL    #2EDF
2e92 CDA136    CALL    #36A1
2e95 01EBCD    LD      BC,#CDEB
2e98 9C        SBC     A,H
2e99 3627      LD      (HL),#27
2e9b 182B      JR      #2EC8
2e9d CB5F      BIT     3,A
2e9f 2814      JR      Z,#2EB5
2ea1 CDF639    CALL    #39F6
2ea4 0604      LD      B,#04
2ea6 CDDF2E    CALL    #2EDF
2ea9 CD9C36    CALL    #369C
2eac 29        ADD     HL,HL
2ead 2AAA0C    LD      HL,(#0CAA)
2eb0 CD4F36    CALL    #364F
2eb3 1813      JR      #2EC8
2eb5 F5        PUSH    AF
2eb6 3AB50C    LD      A,(#0CB5)
2eb9 F5        PUSH    AF
2eba CD2A35    CALL    #352A
2ebd D1        POP     DE
2ebe F1        POP     AF
2ebf CD2C2E    CALL    #2E2C
2ec2 3E26      LD      A,#26
2ec4 80        ADD     A,B
2ec5 CD2D36    CALL    #362D
2ec8 E1        POP     HL
2ec9 C1        POP     BC
2eca 05        DEC     B
2ecb 2805      JR      Z,#2ED2
2ecd CDC73B    CALL    #3BC7
2ed0 189C      JR      #2E6E
2ed2 CDB73B    CALL    #3BB7
2ed5 E1        POP     HL
2ed6 56        LD      D,(HL)
2ed7 2B        DEC     HL
2ed8 5E        LD      E,(HL)
2ed9 EB        EX      DE,HL
2eda 3ECD      LD      A,#CD
2edc C34C36    JP      #364C
2edf 21AD0C    LD      HL,#0CAD
2ee2 CB96      RES     2,(HL)
2ee4 EB        EX      DE,HL
2ee5 21B60C    LD      HL,#0CB6
2ee8 CB96      RES     2,(HL)
2eea 1A        LD      A,(DE)
2eeb BE        CP      (HL)
2eec C2402E    JP      NZ,#2E40
2eef 2B        DEC     HL
2ef0 1B        DEC     DE
2ef1 10F7      DJNZ    #2EEA
2ef3 C9        RET     

2ef4 CDB23A    CALL    #3AB2
2ef7 02        LD      (BC),A
2ef8 96        SUB     (HL)
2ef9 3F        CCF     
2efa CAF32D    JP      Z,#2DF3
2efd 0620      LD      B,#20
2eff CDCB39    CALL    #39CB
2f02 380E      JR      C,#2F12
2f04 CDCF3B    CALL    #3BCF
2f07 2B        DEC     HL
2f08 2B        DEC     HL
2f09 FDE5      PUSH    IY
2f0b D1        POP     DE
2f0c 72        LD      (HL),D
2f0d 2B        DEC     HL
2f0e 73        LD      (HL),E
2f0f C3EB2D    JP      #2DEB
2f12 CD272F    CALL    #2F27
2f15 C0        RET     NZ

2f16 CDD335    CALL    #35D3
2f19 CD533B    CALL    #3B53
2f1c CD953A    CALL    #3A95
2f1f CDA136    CALL    #36A1
2f22 03        INC     BC
2f23 EB        EX      DE,HL
2f24 E1        POP     HL
2f25 73        LD      (HL),E
2f26 C9        RET     

2f27 CDD13A    CALL    #3AD1
2f2a DF        RST     #18
2f2b 3EC0      LD      A,#C0
2f2d CD9F3B    CALL    #3B9F
2f30 CD953A    CALL    #3A95
2f33 C3A73B    JP      #3BA7
2f36 CD953A    CALL    #3A95
2f39 CDA136    CALL    #36A1
2f3c 03        INC     BC
2f3d 7C        LD      A,H
2f3e B5        OR      L
2f3f CAFDE5    JP      Z,#E5FD
2f42 CD4F36    CALL    #364F
2f45 CDD13A    CALL    #3AD1
2f48 DC3FCD    CALL    C,#CD3F
2f4b 50        LD      D,B
2f4c 3D        DEC     A
2f4d 41        LD      B,C
2f4e CDEB2D    CALL    #2DEB
2f51 CDD13A    CALL    #3AD1
2f54 E0        RET     PO

2f55 3F        CCF     
2f56 200F      JR      NZ,#2F67
2f58 CD9836    CALL    #3698
2f5b E1        POP     HL
2f5c FDE5      PUSH    IY
2f5e CD4F36    CALL    #364F
2f61 CD0437    CALL    #3704
2f64 CDEB2D    CALL    #2DEB
2f67 E1        POP     HL
2f68 C30437    JP      #3704
2f6b CD2A35    CALL    #352A
2f6e CDD13A    CALL    #3AD1
2f71 103F      DJNZ    #2FB2
2f73 CD503D    CALL    #3D50
2f76 43        LD      B,E
2f77 0600      LD      B,#00
2f79 79        LD      A,C
2f7a B7        OR      A
2f7b 2004      JR      NZ,#2F81
2f7d CD573D    CALL    #3D57
2f80 42        LD      B,D
2f81 C5        PUSH    BC
2f82 0600      LD      B,#00
2f84 C5        PUSH    BC
2f85 0D        DEC     C
2f86 200C      JR      NZ,#2F94
2f88 CD9C36    CALL    #369C
2f8b 55        LD      D,L
2f8c CD0A3D    CALL    #3D0A
2f8f CD4F36    CALL    #364F
2f92 180C      JR      #2FA0
2f94 CD253D    CALL    #3D25
2f97 E5        PUSH    HL
2f98 CD9C36    CALL    #369C
2f9b 56        LD      D,(HL)
2f9c E1        POP     HL
2f9d CDA837    CALL    #37A8
2fa0 3ECA      LD      A,#CA
2fa2 CD5436    CALL    #3654
2fa5 C1        POP     BC
2fa6 FDE5      PUSH    IY
2fa8 CD4F36    CALL    #364F
2fab 04        INC     B
2fac CD973B    CALL    #3B97
2faf 28D3      JR      Z,#2F84
2fb1 CDCF3B    CALL    #3BCF
2fb4 FDE5      PUSH    IY
2fb6 D1        POP     DE
2fb7 13        INC     DE
2fb8 13        INC     DE
2fb9 13        INC     DE
2fba E1        POP     HL
2fbb CD0737    CALL    #3707
2fbe 10FA      DJNZ    #2FBA
2fc0 CD9836    CALL    #3698
2fc3 FDE5      PUSH    IY
2fc5 CD4F36    CALL    #364F
2fc8 CDEB2D    CALL    #2DEB
2fcb CD9836    CALL    #3698
2fce E1        POP     HL
2fcf C1        POP     BC
2fd0 FDE5      PUSH    IY
2fd2 CD4F36    CALL    #364F
2fd5 CD0437    CALL    #3704
2fd8 04        INC     B
2fd9 CD933B    CALL    #3B93
2fdc 2023      JR      NZ,#3001
2fde CDD13A    CALL    #3AD1
2fe1 F7        RST     #30
2fe2 3F        CCF     
2fe3 2825      JR      Z,#300A
2fe5 CDD13A    CALL    #3AD1
2fe8 F1        POP     AF
2fe9 3F        CCF     
2fea C2812F    JP      NZ,#2F81
2fed C5        PUSH    BC
2fee CDCF3B    CALL    #3BCF
2ff1 0D        DEC     C
2ff2 2804      JR      Z,#2FF8
2ff4 CD9C36    CALL    #369C
2ff7 4B        LD      C,E
2ff8 CDEB2D    CALL    #2DEB
2ffb C1        POP     BC
2ffc CD933B    CALL    #3B93
2fff 0E01      LD      C,#01
3001 CDD13A    CALL    #3AD1
3004 F7        RST     #30
3005 3F        CCF     
3006 CD503D    CALL    #3D50
3009 44        LD      B,H
300a 0D        DEC     C
300b 2804      JR      Z,#3011
300d CD9C36    CALL    #369C
3010 4B        LD      C,E
3011 E1        POP     HL
3012 CD0437    CALL    #3704
3015 10FA      DJNZ    #3011
3017 C9        RET     

3018 FDE5      PUSH    IY
301a CD953A    CALL    #3A95
301d CDD13A    CALL    #3AD1
3020 E43FCD    CALL    PO,#CD3F
3023 50        LD      D,B
3024 3D        DEC     A
3025 45        LD      B,L
3026 CDA136    CALL    #36A1
3029 03        INC     BC
302a 7C        LD      A,H
302b B5        OR      L
302c CAFDE5    JP      Z,#E5FD
302f CD4F36    CALL    #364F
3032 CDEB2D    CALL    #2DEB
3035 D1        POP     DE
3036 E1        POP     HL
3037 3EC3      LD      A,#C3
3039 CD4C36    CALL    #364C
303c EB        EX      DE,HL
303d C30437    JP      #3704
3040 FDE5      PUSH    IY
3042 CDEB2D    CALL    #2DEB
3045 CDD13A    CALL    #3AD1
3048 E63F      AND     #3F
304a 2805      JR      Z,#3051
304c CDBF3B    CALL    #3BBF
304f 18F1      JR      #3042
3051 CD953A    CALL    #3A95
3054 CDA136    CALL    #36A1
3057 03        INC     BC
3058 7C        LD      A,H
3059 B5        OR      L
305a CAE1C3    JP      Z,#C3E1
305d 4F        LD      C,A
305e 36CD      LD      (HL),#CD
3060 8C        ADC     A,H
3061 3A3ED5    LD      A,(#D53E)
3064 CD5436    CALL    #3654
3067 CD533B    CALL    #3B53
306a CD953A    CALL    #3A95
306d CDD335    CALL    #35D3
3070 CDD13A    CALL    #3AD1
3073 EF        RST     #28
3074 3F        CCF     
3075 3E13      LD      A,#13
3077 280B      JR      Z,#3084
3079 CDD13A    CALL    #3AD1
307c EB        EX      DE,HL
307d 3F        CCF     
307e CD503D    CALL    #3D50
3081 47        LD      B,A
3082 3E1B      LD      A,#1B
3084 F5        PUSH    AF
3085 CD953A    CALL    #3A95
3088 CDD13A    CALL    #3AD1
308b E43FCD    CALL    PO,#CD3F
308e 50        LD      D,B
308f 3D        DEC     A
3090 48        LD      C,B
3091 CDA136    CALL    #36A1
3094 04        INC     B
3095 44        LD      B,H
3096 4D        LD      C,L
3097 D1        POP     DE
3098 E1        POP     HL
3099 F1        POP     AF
309a FDE5      PUSH    IY
309c F5        PUSH    AF
309d CDA136    CALL    #36A1
30a0 03        INC     BC
30a1 73        LD      (HL),E
30a2 23        INC     HL
30a3 72        LD      (HL),D
30a4 F1        POP     AF
30a5 F5        PUSH    AF
30a6 FE13      CP      #13
30a8 3E60      LD      A,#60
30aa 2801      JR      Z,#30AD
30ac 3C        INC     A
30ad CD2D36    CALL    #362D
30b0 3EDA      LD      A,#DA
30b2 CD5436    CALL    #3654
30b5 FDE5      PUSH    IY
30b7 CD4F36    CALL    #364F
30ba CDA136    CALL    #36A1
30bd 02        LD      (BC),A
30be C5        PUSH    BC
30bf E5        PUSH    HL
30c0 CDEB2D    CALL    #2DEB
30c3 CDA136    CALL    #36A1
30c6 05        DEC     B
30c7 E1        POP     HL
30c8 C1        POP     BC
30c9 56        LD      D,(HL)
30ca 2B        DEC     HL
30cb 5E        LD      E,(HL)
30cc D1        POP     DE
30cd F1        POP     AF
30ce E1        POP     HL
30cf CD5436    CALL    #3654
30d2 3EC3      LD      A,#C3
30d4 CD4C36    CALL    #364C
30d7 EB        EX      DE,HL
30d8 C30437    JP      #3704
30db 0620      LD      B,#20
30dd CDCB39    CALL    #39CB
30e0 CD493D    CALL    #3D49
30e3 49        LD      C,C
30e4 2B        DEC     HL
30e5 34        INC     (HL)
30e6 4E        LD      C,(HL)
30e7 0600      LD      B,#00
30e9 37        SCF     
30ea ED42      SBC     HL,BC
30ec ED42      SBC     HL,BC
30ee E5        PUSH    HL
30ef 54        LD      D,H
30f0 5D        LD      E,L
30f1 1B        DEC     DE
30f2 1B        DEC     DE
30f3 CD2F33    CALL    #332F
30f6 CD9836    CALL    #3698
30f9 FDE5      PUSH    IY
30fb D1        POP     DE
30fc CD4F36    CALL    #364F
30ff E1        POP     HL
3100 72        LD      (HL),D
3101 2B        DEC     HL
3102 73        LD      (HL),E
3103 2B        DEC     HL
3104 56        LD      D,(HL)
3105 2B        DEC     HL
3106 5E        LD      E,(HL)
3107 13        INC     DE
3108 13        INC     DE
3109 73        LD      (HL),E
310a 23        INC     HL
310b 72        LD      (HL),D
310c C9        RET     

310d CDAF3B    CALL    #3BAF
3110 DDE5      PUSH    IX
3112 CDFC3B    CALL    #3BFC
3115 DD7E00    LD      A,(IX+#00)
3118 DDE1      POP     IX
311a 3834      JR      C,#3150
311c CB49      BIT     1,C
311e 2830      JR      Z,#3150
3120 FE3A      CP      #3A
3122 282C      JR      Z,#3150
3124 CDFC3B    CALL    #3BFC
3127 04        INC     B
3128 48        LD      C,B
3129 0D        DEC     C
312a 2809      JR      Z,#3135
312c 7E        LD      A,(HL)
312d 2B        DEC     HL
312e FE27      CP      #27
3130 20F7      JR      NZ,#3129
3132 2B        DEC     HL
3133 18F4      JR      #3129
3135 3EEF      LD      A,#EF
3137 CD5436    CALL    #3654
313a 05        DEC     B
313b 280D      JR      Z,#314A
313d 23        INC     HL
313e 7E        LD      A,(HL)
313f CD5436    CALL    #3654
3142 7E        LD      A,(HL)
3143 FE27      CP      #27
3145 20F3      JR      NZ,#313A
3147 23        INC     HL
3148 18F0      JR      #313A
314a AF        XOR     A
314b CD5436    CALL    #3654
314e 1844      JR      #3194
3150 CD2A35    CALL    #352A
3153 CB49      BIT     1,C
3155 CCD935    CALL    Z,#35D9
3158 CD5D3B    CALL    #3B5D
315b 2018      JR      NZ,#3175
315d C5        PUSH    BC
315e CD953A    CALL    #3A95
3161 C1        POP     BC
3162 0C        INC     C
3163 0D        DEC     C
3164 2028      JR      NZ,#318E
3166 CD5D3B    CALL    #3B5D
3169 201A      JR      NZ,#3185
316b C5        PUSH    BC
316c CDD335    CALL    #35D3
316f CD953A    CALL    #3A95
3172 C1        POP     BC
3173 1819      JR      #318E
3175 210000    LD      HL,#0000
3178 0C        INC     C
3179 0D        DEC     C
317a 2002      JR      NZ,#317E
317c 2E12      LD      L,#12
317e CD4A36    CALL    #364A
3181 0C        INC     C
3182 0D        DEC     C
3183 2009      JR      NZ,#318E
3185 CDD335    CALL    #35D3
3188 21FFFF    LD      HL,#FFFF
318b CD4A36    CALL    #364A
318e 79        LD      A,C
318f 0657      LD      B,#57
3191 CD083A    CALL    #3A08
3194 CD973B    CALL    #3B97
3197 CA1031    JP      Z,#3110
319a 1841      JR      #31DD
319c CD8B3B    CALL    #3B8B
319f CC1031    CALL    Z,#3110
31a2 CDA136    CALL    #36A1
31a5 02        LD      (BC),A
31a6 DF        RST     #18
31a7 6A        LD      L,D
31a8 C9        RET     

31a9 1EFF      LD      E,#FF
31ab 1802      JR      #31AF
31ad 1E00      LD      E,#00
31af CDAF3B    CALL    #3BAF
31b2 D5        PUSH    DE
31b3 CD7C3A    CALL    #3A7C
31b6 4F        LD      C,A
31b7 CB49      BIT     1,C
31b9 280C      JR      Z,#31C7
31bb CD9C36    CALL    #369C
31be 5C        LD      E,H
31bf 3AAC0C    LD      A,(#0CAC)
31c2 CD5436    CALL    #3654
31c5 1806      JR      #31CD
31c7 79        LD      A,C
31c8 065A      LD      B,#5A
31ca CD083A    CALL    #3A08
31cd D1        POP     DE
31ce 1C        INC     E
31cf 1D        DEC     E
31d0 2806      JR      Z,#31D8
31d2 CDA136    CALL    #36A1
31d5 02        LD      (BC),A
31d6 DF        RST     #18
31d7 6A        LD      L,D
31d8 CD973B    CALL    #3B97
31db 28D5      JR      Z,#31B2
31dd C3B73B    JP      #3BB7
31e0 CDAF3B    CALL    #3BAF
31e3 CD9F3A    CALL    #3A9F
31e6 CD953A    CALL    #3A95
31e9 CDA136    CALL    #36A1
31ec 03        INC     BC
31ed C1        POP     BC
31ee ED69      OUT     (C),L
31f0 18EB      JR      #31DD
31f2 CDAF3B    CALL    #3BAF
31f5 0662      LD      B,#62
31f7 1808      JR      #3201
31f9 CDAF3B    CALL    #3BAF
31fc CD9F3A    CALL    #3A9F
31ff 065D      LD      B,#5D
3201 C5        PUSH    BC
3202 180C      JR      #3210
3204 065E      LD      B,#5E
3206 C5        PUSH    BC
3207 CDAF3B    CALL    #3BAF
320a CD9F3A    CALL    #3A9F
320d CD9F3A    CALL    #3A9F
3210 CD953A    CALL    #3A95
3213 CDB73B    CALL    #3BB7
3216 C1        POP     BC
3217 C3783A    JP      #3A78
321a CD272F    CALL    #2F27
321d 200D      JR      NZ,#322C
321f CDA136    CALL    #36A1
3222 01EB21    LD      BC,#21EB
3225 010322    LD      BC,#2203
3228 AC        XOR     H
3229 0C        INC     C
322a 1803      JR      #322F
322c CDF639    CALL    #39F6
322f CDD13A    CALL    #3AD1
3232 EF        RST     #28
3233 3F        CCF     
3234 CD503D    CALL    #3D50
3237 50        LD      D,B
3238 FDE5      PUSH    IY
323a E1        POP     HL
323b 110B00    LD      DE,#000B
323e 19        ADD     HL,DE
323f CD4A36    CALL    #364A
3242 3E01      LD      A,#01
3244 CD5436    CALL    #3654
3247 FDE5      PUSH    IY
3249 CD4F36    CALL    #364F
324c CDA136    CALL    #36A1
324f 02        LD      (BC),A
3250 EDB0      LDIR    
3252 CD9836    CALL    #3698
3255 FDE5      PUSH    IY
3257 CD4F36    CALL    #364F
325a 210000    LD      HL,#0000
325d 22A20C    LD      (#0CA2),HL
3260 3AAD0C    LD      A,(#0CAD)
3263 E603      AND     #03
3265 CB4F      BIT     1,A
3267 202F      JR      NZ,#3298
3269 3D        DEC     A
326a 2824      JR      Z,#3290
326c CDEC3C    CALL    #3CEC
326f CB49      BIT     1,C
3271 CD503D    CALL    #3D50
3274 320C0D    LD      (#0D0C),A
3277 2804      JR      Z,#327D
3279 CD2316    CALL    #1623
327c D9        EXX     
327d D9        EXX     
327e E5        PUSH    HL
327f D5        PUSH    DE
3280 C5        PUSH    BC
3281 0603      LD      B,#03
3283 D1        POP     DE
3284 7A        LD      A,D
3285 CD5436    CALL    #3654
3288 7B        LD      A,E
3289 CD5436    CALL    #3654
328c 10F5      DJNZ    #3283
328e 182E      JR      #32BE
3290 CD0A3D    CALL    #3D0A
3293 CD4F36    CALL    #364F
3296 1826      JR      #32BE
3298 CB47      BIT     0,A
329a 201C      JR      NZ,#32B8
329c CD253D    CALL    #3D25
329f 3AAC0C    LD      A,(#0CAC)
32a2 3D        DEC     A
32a3 90        SUB     B
32a4 F5        PUSH    AF
32a5 CD493D    CALL    #3D49
32a8 66        LD      H,(HL)
32a9 CDA837    CALL    #37A8
32ac F1        POP     AF
32ad 280F      JR      Z,#32BE
32af 47        LD      B,A
32b0 AF        XOR     A
32b1 CD5436    CALL    #3654
32b4 10FA      DJNZ    #32B0
32b6 1806      JR      #32BE
32b8 CD143D    CALL    #3D14
32bb CD5436    CALL    #3654
32be 2AA20C    LD      HL,(#0CA2)
32c1 3AAC0C    LD      A,(#0CAC)
32c4 5F        LD      E,A
32c5 1D        DEC     E
32c6 1600      LD      D,#00
32c8 13        INC     DE
32c9 19        ADD     HL,DE
32ca 22A20C    LD      (#0CA2),HL
32cd 3D        DEC     A
32ce 2809      JR      Z,#32D9
32d0 ED5BAA0C  LD      DE,(#0CAA)
32d4 B7        OR      A
32d5 ED52      SBC     HL,DE
32d7 3005      JR      NC,#32DE
32d9 CD973B    CALL    #3B97
32dc 2882      JR      Z,#3260
32de E1        POP     HL
32df CD0437    CALL    #3704
32e2 E1        POP     HL
32e3 ED5BA20C  LD      DE,(#0CA2)
32e7 C30737    JP      #3707
32ea CDAF3B    CALL    #3BAF
32ed CDF639    CALL    #39F6
32f0 CD9C36    CALL    #369C
32f3 66        LD      H,(HL)
32f4 CD2033    CALL    #3320
32f7 1818      JR      #3311
32f9 CDAF3B    CALL    #3BAF
32fc CDF639    CALL    #39F6
32ff CDA136    CALL    #36A1
3302 01D5CD    LD      BC,#CDD5
3305 2033      JR      NZ,#333A
3307 CDC73B    CALL    #3BC7
330a CD8C3A    CALL    #3A8C
330d CD9C36    CALL    #369C
3310 67        LD      H,A
3311 F1        POP     AF
3312 CD5436    CALL    #3654
3315 F1        POP     AF
3316 CD5436    CALL    #3654
3319 E1        POP     HL
331a CD4F36    CALL    #364F
331d C3B73B    JP      #3BB7
3320 2AAA0C    LD      HL,(#0CAA)
3323 E3        EX      (SP),HL
3324 3AAC0C    LD      A,(#0CAC)
3327 F5        PUSH    AF
3328 3AAD0C    LD      A,(#0CAD)
332b E603      AND     #03
332d F5        PUSH    AF
332e E9        JP      (HL)
332f E5        PUSH    HL
3330 ED4B980C  LD      BC,(#0C98)
3334 B7        OR      A
3335 ED42      SBC     HL,BC
3337 44        LD      B,H
3338 4D        LD      C,L
3339 E1        POP     HL
333a 78        LD      A,B
333b B1        OR      C
333c 2815      JR      Z,#3353
333e ED52      SBC     HL,DE
3340 19        ADD     HL,DE
3341 380E      JR      C,#3351
3343 EB        EX      DE,HL
3344 ED42      SBC     HL,BC
3346 EB        EX      DE,HL
3347 ED42      SBC     HL,BC
3349 23        INC     HL
334a CD5333    CALL    #3353
334d 13        INC     DE
334e EDB0      LDIR    
3350 C9        RET     

3351 EDB8      LDDR    
3353 ED53980C  LD      (#0C98),DE
3357 C9        RET     

3358 CDDE39    CALL    #39DE
335b CD9539    CALL    #3995
335e D8        RET     C

335f CB7E      BIT     7,(HL)
3361 2B        DEC     HL
3362 28FB      JR      Z,#335F
3364 7E        LD      A,(HL)
3365 FE20      CP      #20
3367 20F2      JR      NZ,#335B
3369 2B        DEC     HL
336a 56        LD      D,(HL)
336b 2B        DEC     HL
336c 46        LD      B,(HL)
336d 2B        DEC     HL
336e 4E        LD      C,(HL)
336f 2B        DEC     HL
3370 14        INC     D
3371 15        DEC     D
3372 28E7      JR      Z,#335B
3374 78        LD      A,B
3375 B1        OR      C
3376 2004      JR      NZ,#337C
3378 CD573D    CALL    #3D57
337b 80        ADD     A,B
337c D5        PUSH    DE
337d 56        LD      D,(HL)
337e 2B        DEC     HL
337f 5E        LD      E,(HL)
3380 2B        DEC     HL
3381 E5        PUSH    HL
3382 EB        EX      DE,HL
3383 50        LD      D,B
3384 59        LD      E,C
3385 CD0737    CALL    #3707
3388 E1        POP     HL
3389 D1        POP     DE
338a 15        DEC     D
338b 20EF      JR      NZ,#337C
338d 18CC      JR      #335B
338f 2A980C    LD      HL,(#0C98)
3392 E5        PUSH    HL
3393 CDB933    CALL    #33B9
3396 C5        PUSH    BC
3397 CDDC33    CALL    #33DC
339a C1        POP     BC
339b D1        POP     DE
339c C5        PUSH    BC
339d CDB834    CALL    #34B8
33a0 1B        DEC     DE
33a1 1B        DEC     DE
33a2 C1        POP     BC
33a3 0D        DEC     C
33a4 20F6      JR      NZ,#339C
33a6 C9        RET     

33a7 ED5B980C  LD      DE,(#0C98)
33ab CDE234    CALL    #34E2
33ae 060A      LD      B,#0A
33b0 CD0B35    CALL    #350B
33b3 10FB      DJNZ    #33B0
33b5 EB        EX      DE,HL
33b6 C32035    JP      #3520
33b9 0E00      LD      C,#00
33bb C5        PUSH    BC
33bc CDA733    CALL    #33A7
33bf 3AB30C    LD      A,(#0CB3)
33c2 3C        INC     A
33c3 32B30C    LD      (#0CB3),A
33c6 C1        POP     BC
33c7 0C        INC     C
33c8 CD973B    CALL    #3B97
33cb 28EE      JR      Z,#33BB
33cd C9        RET     

33ce CDCF3B    CALL    #3BCF
33d1 210100    LD      HL,#0001
33d4 22AA0C    LD      (#0CAA),HL
33d7 3E00      LD      A,#00
33d9 47        LD      B,A
33da 1863      JR      #343F
33dc CDCF3B    CALL    #3BCF
33df 210100    LD      HL,#0001
33e2 22AA0C    LD      (#0CAA),HL
33e5 CDD13A    CALL    #3AD1
33e8 09        ADD     HL,BC
33e9 3F        CCF     
33ea 3E00      LD      A,#00
33ec 47        LD      B,A
33ed 2050      JR      NZ,#343F
33ef CD9F3B    CALL    #3B9F
33f2 FD22A70C  LD      (#0CA7),IY
33f6 CD4F36    CALL    #364F
33f9 C5        PUSH    BC
33fa CD0A3D    CALL    #3D0A
33fd CD4F36    CALL    #364F
3400 E5        PUSH    HL
3401 CDD13A    CALL    #3AD1
3404 0E3F      LD      C,#3F
3406 CD503D    CALL    #3D50
3409 10CD      DJNZ    #33D8
340b 0A        LD      A,(BC)
340c 3D        DEC     A
340d D1        POP     DE
340e CD7419    CALL    #1974
3411 CD493D    CALL    #3D49
3414 20B7      JR      NZ,#33CD
3416 ED52      SBC     HL,DE
3418 23        INC     HL
3419 CD4F36    CALL    #364F
341c ED5BAA0C  LD      DE,(#0CAA)
3420 CD313D    CALL    #3D31
3423 CD493D    CALL    #3D49
3426 2122AA    LD      HL,#AA22
3429 0C        INC     C
342a C1        POP     BC
342b 04        INC     B
342c CD973B    CALL    #3B97
342f 28C8      JR      Z,#33F9
3431 CDA73B    CALL    #3BA7
3434 CDD13A    CALL    #3AD1
3437 103F      DJNZ    #3478
3439 CD503D    CALL    #3D50
343c 223E01    LD      (#013E),HL
343f 32B00C    LD      (#0CB0),A
3442 78        LD      A,B
3443 32A90C    LD      (#0CA9),A
3446 CDB23A    CALL    #3AB2
3449 02        LD      (BC),A
344a 12        LD      (DE),A
344b 3F        CCF     
344c CD503D    CALL    #3D50
344f 25        DEC     H
3450 4E        LD      C,(HL)
3451 23        INC     HL
3452 5E        LD      E,(HL)
3453 79        LD      A,C
3454 FE02      CP      #02
3456 2013      JR      NZ,#346B
3458 CD9F3B    CALL    #3B9F
345b CD143D    CALL    #3D14
345e B7        OR      A
345f 2004      JR      NZ,#3465
3461 CD573D    CALL    #3D57
3464 24        INC     H
3465 5D        LD      E,L
3466 CDA73B    CALL    #3BA7
3469 0E02      LD      C,#02
346b 1600      LD      D,#00
346d 13        INC     DE
346e 7B        LD      A,E
346f 32AC0C    LD      (#0CAC),A
3472 3AB10C    LD      A,(#0CB1)
3475 B7        OR      A
3476 2802      JR      Z,#347A
3478 CBD1      SET     2,C
347a 3AB00C    LD      A,(#0CB0)
347d B7        OR      A
347e 280F      JR      Z,#348F
3480 CBD9      SET     3,C
3482 2AA70C    LD      HL,(#0CA7)
3485 D5        PUSH    DE
3486 53        LD      D,E
3487 3AA90C    LD      A,(#0CA9)
348a 5F        LD      E,A
348b CD0737    CALL    #3707
348e D1        POP     DE
348f C5        PUSH    BC
3490 2AAA0C    LD      HL,(#0CAA)
3493 CD313D    CALL    #3D31
3496 CD493D    CALL    #3D49
3499 21C122    LD      HL,#22C1
349c AA        XOR     D
349d 0C        INC     C
349e 79        LD      A,C
349f 32AD0C    LD      (#0CAD),A
34a2 3A9E0C    LD      A,(#0C9E)
34a5 32A60C    LD      (#0CA6),A
34a8 C9        RET     

34a9 1A        LD      A,(DE)
34aa 1B        DEC     DE
34ab 17        RLA     
34ac 30FB      JR      NC,#34A9
34ae C9        RET     

34af 21AD0C    LD      HL,#0CAD
34b2 010A00    LD      BC,#000A
34b5 EDB8      LDDR    
34b7 C9        RET     

34b8 CDA934    CALL    #34A9
34bb 2A940C    LD      HL,(#0C94)
34be E5        PUSH    HL
34bf 22A40C    LD      (#0CA4),HL
34c2 CDAF34    CALL    #34AF
34c5 C1        POP     BC
34c6 2AAA0C    LD      HL,(#0CAA)
34c9 3AAD0C    LD      A,(#0CAD)
34cc CB57      BIT     2,A
34ce 2803      JR      Z,#34D3
34d0 210200    LD      HL,#0002
34d3 09        ADD     HL,BC
34d4 22940C    LD      (#0C94),HL
34d7 C9        RET     

34d8 2A980C    LD      HL,(#0C98)
34db E5        PUSH    HL
34dc CDE234    CALL    #34E2
34df E1        POP     HL
34e0 183A      JR      #351C
34e2 DD7E00    LD      A,(IX+#00)
34e5 CDD73B    CALL    #3BD7
34e8 3804      JR      C,#34EE
34ea CD573D    CALL    #3D57
34ed 23        INC     HL
34ee CD0B35    CALL    #350B
34f1 CDF13D    CALL    #3DF1
34f4 DD7E00    LD      A,(IX+#00)
34f7 CDED3B    CALL    #3BED
34fa 38F2      JR      C,#34EE
34fc 23        INC     HL
34fd CBFE      SET     7,(HL)
34ff 2B        DEC     HL
3500 C3143B    JP      #3B14
3503 FDE5      PUSH    IY
3505 D1        POP     DE
3506 7A        LD      A,D
3507 CD0B35    CALL    #350B
350a 7B        LD      A,E
350b 2A980C    LD      HL,(#0C98)
350e 77        LD      (HL),A
350f D5        PUSH    DE
3510 ED5B820C  LD      DE,(#0C82)
3514 37        SCF     
3515 ED52      SBC     HL,DE
3517 19        ADD     HL,DE
3518 D1        POP     DE
3519 DAE83D    JP      C,#3DE8
351c 22980C    LD      (#0C98),HL
351f C9        RET     

3520 ED5B980C  LD      DE,(#0C98)
3524 B7        OR      A
3525 ED52      SBC     HL,DE
3527 EB        EX      DE,HL
3528 18DC      JR      #3506
352a CD6A35    CALL    #356A
352d CDB23A    CALL    #3AB2
3530 01093E    LD      BC,#3E09
3533 C0        RET     NZ

3534 7E        LD      A,(HL)
3535 F5        PUSH    AF
3536 C5        PUSH    BC
3537 CB49      BIT     1,C
3539 CCC635    CALL    Z,#35C6
353c CD6A35    CALL    #356A
353f D1        POP     DE
3540 CB4B      BIT     1,E
3542 2813      JR      Z,#3557
3544 CB49      BIT     1,C
3546 2004      JR      NZ,#354C
3548 CD573D    CALL    #3D57
354b 63        LD      H,E
354c CD9C36    CALL    #369C
354f 53        LD      D,E
3550 F1        POP     AF
3551 CD5436    CALL    #3654
3554 0E01      LD      C,#01
3556 C9        RET     

3557 CDE535    CALL    #35E5
355a CB41      BIT     0,C
355c 2006      JR      NZ,#3564
355e CD9C36    CALL    #369C
3561 3A18EC    LD      A,(#EC18)
3564 CD9C36    CALL    #369C
3567 4C        LD      C,H
3568 18E6      JR      #3550
356a CDA735    CALL    #35A7
356d CDB23A    CALL    #3AB2
3570 03        INC     BC
3571 19        ADD     HL,DE
3572 3EC0      LD      A,#C0
3574 56        LD      D,(HL)
3575 23        INC     HL
3576 E5        PUSH    HL
3577 CDC635    CALL    #35C6
357a 59        LD      E,C
357b D5        PUSH    DE
357c CDA735    CALL    #35A7
357f D1        POP     DE
3580 CDE535    CALL    #35E5
3583 E1        POP     HL
3584 CB41      BIT     0,C
3586 281A      JR      Z,#35A2
3588 7E        LD      A,(HL)
3589 FEC8      CP      #C8
358b 2007      JR      NZ,#3594
358d CDA136    CALL    #36A1
3590 011918    LD      BC,#1819
3593 D9        EXX     
3594 FEC9      CP      #C9
3596 200A      JR      NZ,#35A2
3598 CDA136    CALL    #36A1
359b 04        INC     B
359c EB        EX      DE,HL
359d B7        OR      A
359e ED52      SBC     HL,DE
35a0 18CB      JR      #356D
35a2 CD2636    CALL    #3626
35a5 18C6      JR      #356D
35a7 CD4037    CALL    #3740
35aa CDB23A    CALL    #3AB2
35ad 03        INC     BC
35ae 2E3E      LD      L,#3E
35b0 C0        RET     NZ

35b1 56        LD      D,(HL)
35b2 23        INC     HL
35b3 E5        PUSH    HL
35b4 CDC635    CALL    #35C6
35b7 59        LD      E,C
35b8 D5        PUSH    DE
35b9 CD4037    CALL    #3740
35bc D1        POP     DE
35bd CDE535    CALL    #35E5
35c0 E1        POP     HL
35c1 CD2636    CALL    #3626
35c4 18E4      JR      #35AA
35c6 CD3237    CALL    #3732
35c9 14        INC     D
35ca 15        DEC     D
35cb 200C      JR      NZ,#35D9
35cd 79        LD      A,C
35ce 3D        DEC     A
35cf CD503D    CALL    #3D50
35d2 61        LD      H,C
35d3 CDA136    CALL    #36A1
35d6 01E5C9    LD      BC,#C9E5
35d9 CB41      BIT     0,C
35db 20F6      JR      NZ,#35D3
35dd CDA136    CALL    #36A1
35e0 03        INC     BC
35e1 C5        PUSH    BC
35e2 D5        PUSH    DE
35e3 E5        PUSH    HL
35e4 C9        RET     

35e5 CD3237    CALL    #3732
35e8 CB4A      BIT     1,D
35ea 2004      JR      NZ,#35F0
35ec CB43      BIT     0,E
35ee 2024      JR      NZ,#3614
35f0 CB41      BIT     0,C
35f2 2804      JR      Z,#35F8
35f4 CD9C36    CALL    #369C
35f7 3C        INC     A
35f8 CB43      BIT     0,E
35fa 280D      JR      Z,#3609
35fc CDA136    CALL    #36A1
35ff 02        LD      (BC),A
3600 D9        EXX     
3601 E1        POP     HL
3602 CD9C36    CALL    #369C
3605 3C        INC     A
3606 0E00      LD      C,#00
3608 C9        RET     

3609 CDA136    CALL    #36A1
360c 04        INC     B
360d D9        EXX     
360e E1        POP     HL
360f D1        POP     DE
3610 C1        POP     BC
3611 0E00      LD      C,#00
3613 C9        RET     

3614 CB41      BIT     0,C
3616 2008      JR      NZ,#3620
3618 14        INC     D
3619 15        DEC     D
361a 20E0      JR      NZ,#35FC
361c CD573D    CALL    #3D57
361f 61        LD      H,C
3620 CDA136    CALL    #36A1
3623 01D1C9    LD      BC,#C9D1
3626 CB41      BIT     0,C
3628 2001      JR      NZ,#362B
362a 23        INC     HL
362b 7E        LD      A,(HL)
362c 23        INC     HL
362d F5        PUSH    AF
362e 3ECD      LD      A,#CD
3630 CD5436    CALL    #3654
3633 F1        POP     AF
3634 E5        PUSH    HL
3635 D5        PUSH    DE
3636 5F        LD      E,A
3637 1600      LD      D,#00
3639 21A029    LD      HL,#29A0
363c 19        ADD     HL,DE
363d 19        ADD     HL,DE
363e 7E        LD      A,(HL)
363f CD5436    CALL    #3654
3642 23        INC     HL
3643 7E        LD      A,(HL)
3644 CD5436    CALL    #3654
3647 D1        POP     DE
3648 E1        POP     HL
3649 C9        RET     

364a 3E21      LD      A,#21
364c CD5436    CALL    #3654
364f 7D        LD      A,L
3650 CD5436    CALL    #3654
3653 7C        LD      A,H
3654 08        EX      AF,AF'
3655 3A900C    LD      A,(#0C90)
3658 FE43      CP      #43
365a 2809      JR      Z,#3665
365c FE46      CP      #46
365e 2809      JR      Z,#3669
3660 CDAF36    CALL    #36AF
3663 1804      JR      #3669
3665 08        EX      AF,AF'
3666 FD7700    LD      (IY+#00),A
3669 FD23      INC     IY
366b 3A900C    LD      A,(#0C90)
366e FE43      CP      #43
3670 200F      JR      NZ,#3681
3672 D9        EXX     
3673 2A980C    LD      HL,(#0C98)
3676 FDE5      PUSH    IY
3678 D1        POP     DE
3679 37        SCF     
367a ED52      SBC     HL,DE
367c D9        EXX     
367d D0        RET     NC

367e C3E83D    JP      #3DE8
3681 FE46      CP      #46
3683 2011      JR      NZ,#3696
3685 D9        EXX     
3686 2ABE0C    LD      HL,(#0CBE)
3689 FDE5      PUSH    IY
368b D1        POP     DE
368c B7        OR      A
368d ED52      SBC     HL,DE
368f D9        EXX     
3690 2004      JR      NZ,#3696
3692 CD573D    CALL    #3D57
3695 00        NOP     
3696 B7        OR      A
3697 C9        RET     

3698 3EC3      LD      A,#C3
369a 18B8      JR      #3654
369c E1        POP     HL
369d CD2B36    CALL    #362B
36a0 E9        JP      (HL)
36a1 E1        POP     HL
36a2 C5        PUSH    BC
36a3 46        LD      B,(HL)
36a4 23        INC     HL
36a5 7E        LD      A,(HL)
36a6 23        INC     HL
36a7 CD5436    CALL    #3654
36aa 10F9      DJNZ    #36A5
36ac C1        POP     BC
36ad E9        JP      (HL)
36ae 08        EX      AF,AF'
36af E5        PUSH    HL
36b0 3A910C    LD      A,(#0C91)
36b3 FE40      CP      #40
36b5 CCC536    CALL    Z,#36C5
36b8 21C00C    LD      HL,#0CC0
36bb 85        ADD     A,L
36bc 6F        LD      L,A
36bd 08        EX      AF,AF'
36be 77        LD      (HL),A
36bf 21910C    LD      HL,#0C91
36c2 34        INC     (HL)
36c3 E1        POP     HL
36c4 C9        RET     

; graba bloque de codigo generado en cinta 

36c5 3A910C    LD      A,(#0C91)
36c8 B7        OR      A
36c9 C8        RET     Z
36ca D9        EXX     
36cb 57        LD      D,A
36cc AF        XOR     A
36cd 0605      LD      B,#05
36cf DF        RST     #18
36d0 6F        LD      L,A
36d1 3EFF      LD      A,#FF
36d3 10FA      DJNZ    #36CF
36d5 48        LD      C,B
36d6 42        LD      B,D
36d7 2A920C    LD      HL,(#0C92)
36da 7D        LD      A,L
36db DF        RST     #18
36dc 6F        LD      L,A
36dd 7C        LD      A,H
36de DF        RST     #18
36df 6F        LD      L,A
36e0 7A        LD      A,D
36e1 DF        RST     #18
36e2 6F        LD      L,A
36e3 5F        LD      E,A
36e4 DF        RST     #18
36e5 6F        LD      L,A
36e6 DF        RST     #18
36e7 6C        LD      L,H
36e8 79        LD      A,C
36e9 DF        RST     #18
36ea 6F        LD      L,A
36eb 21C00C    LD      HL,#0CC0
36ee DF        RST     #18
36ef 6D        LD      L,L
36f0 79        LD      A,C
36f1 060B      LD      B,#0B
36f3 DF        RST     #18
36f4 6F        LD      L,A
36f5 AF        XOR     A
36f6 10FB      DJNZ    #36F3
36f8 32910C    LD      (#0C91),A
36fb FD22920C  LD      (#0C92),IY
36ff DF        RST     #18
3700 6A        LD      L,D
3701 D9        EXX     
3702 AF        XOR     A
3703 C9        RET     

3704 FDE5      PUSH    IY
3706 D1        POP     DE
3707 3A900C    LD      A,(#0C90)
370a FE54      CP      #54
370c 2807      JR      Z,#3715
370e FE43      CP      #43
3710 C0        RET     NZ

3711 73        LD      (HL),E
3712 23        INC     HL
3713 72        LD      (HL),D
3714 C9        RET     

3715 CDC536    CALL    #36C5
3718 22920C    LD      (#0C92),HL
371b 7B        LD      A,E
371c CDAE36    CALL    #36AE
371f 7A        LD      A,D
3720 CDAE36    CALL    #36AE
3723 18A0      JR      #36C5
3725 11FDFF    LD      DE,#FFFD
3728 FD19      ADD     IY,DE
372a 3A900C    LD      A,(#0C90)
372d FE54      CP      #54
372f C0        RET     NZ

3730 1893      JR      #36C5
3732 CB49      BIT     1,C
3734 C8        RET     Z

3735 CD573D    CALL    #3D57
3738 60        LD      H,B
3739 CB49      BIT     1,C
373b C0        RET     NZ

373c CD573D    CALL    #3D57
373f 62        LD      H,D
3740 CDD13A    CALL    #3AD1
3743 51        LD      D,C
3744 3E20      LD      A,#20
3746 0B        DEC     BC
3747 CD5237    CALL    #3752
374a CD983A    CALL    #3A98
374d CD9C36    CALL    #369C
3750 43        LD      B,E
3751 C9        RET     

3752 3A9F0C    LD      A,(#0C9F)
3755 F5        PUSH    AF
3756 CDDE3C    CALL    #3CDE
3759 329F0C    LD      (#0C9F),A
375c CD7337    CALL    #3773
375f 3A9F0C    LD      A,(#0C9F)
3762 B7        OR      A
3763 2009      JR      NZ,#376E
3765 CD3237    CALL    #3732
3768 21543E    LD      HL,#3E54
376b CD2636    CALL    #3626
376e F1        POP     AF
376f 329F0C    LD      (#0C9F),A
3772 C9        RET     

3773 CDFC3B    CALL    #3BFC
3776 3840      JR      C,#37B8
3778 3A9F0C    LD      A,(#0C9F)
377b B7        OR      A
377c 2008      JR      NZ,#3786
377e CDF93C    CALL    #3CF9
3781 AF        XOR     A
3782 3D        DEC     A
3783 329F0C    LD      (#0C9F),A
3786 79        LD      A,C
3787 B7        OR      A
3788 2014      JR      NZ,#379E
378a D9        EXX     
378b E5        PUSH    HL
378c D5        PUSH    DE
378d C5        PUSH    BC
378e 01F103    LD      BC,#03F1
3791 79        LD      A,C
3792 C610      ADD     A,#10
3794 4F        LD      C,A
3795 E1        POP     HL
3796 CD4C36    CALL    #364C
3799 10F6      DJNZ    #3791
379b 0E00      LD      C,#00
379d C9        RET     

379e 3D        DEC     A
379f CA4A36    JP      Z,#364A
37a2 E5        PUSH    HL
37a3 CD9C36    CALL    #369C
37a6 54        LD      D,H
37a7 E1        POP     HL
37a8 78        LD      A,B
37a9 04        INC     B
37aa CD5436    CALL    #3654
37ad 05        DEC     B
37ae C8        RET     Z

37af 7E        LD      A,(HL)
37b0 2B        DEC     HL
37b1 FE27      CP      #27
37b3 20F5      JR      NZ,#37AA
37b5 2B        DEC     HL
37b6 18F2      JR      #37AA
37b8 0618      LD      B,#18
37ba CDCB39    CALL    #39CB
37bd 3824      JR      C,#37E3
37bf C5        PUSH    BC
37c0 E5        PUSH    HL
37c1 CD9C36    CALL    #369C
37c4 2C        INC     L
37c5 E1        POP     HL
37c6 2B        DEC     HL
37c7 5E        LD      E,(HL)
37c8 1D        DEC     E
37c9 1600      LD      D,#00
37cb 13        INC     DE
37cc EB        EX      DE,HL
37cd CD4F36    CALL    #364F
37d0 EB        EX      DE,HL
37d1 CD5F2E    CALL    #2E5F
37d4 3EEB      LD      A,#EB
37d6 CD5436    CALL    #3654
37d9 C1        POP     BC
37da 79        LD      A,C
37db E603      AND     #03
37dd 4F        LD      C,A
37de C600      ADD     A,#00
37e0 C32D36    JP      #362D
37e3 CDE539    CALL    #39E5
37e6 380C      JR      C,#37F4
37e8 0606      LD      B,#06
37ea CD0E3A    CALL    #3A0E
37ed 3AAD0C    LD      A,(#0CAD)
37f0 E603      AND     #03
37f2 4F        LD      C,A
37f3 C9        RET     

37f4 CD203A    CALL    #3A20
37f7 3813      JR      C,#380C
37f9 0600      LD      B,#00
37fb CD053A    CALL    #3A05
37fe 18ED      JR      #37ED
3800 E5        PUSH    HL
3801 CDAF3B    CALL    #3BAF
3804 CD1138    CALL    #3811
3807 CD3237    CALL    #3732
380a E1        POP     HL
380b C9        RET     

380c CD8B3B    CALL    #3B8B
380f 2006      JR      NZ,#3817
3811 CD2A35    CALL    #352A
3814 C3B73B    JP      #3BB7
3817 CDB23A    CALL    #3AB2
381a 01563E    LD      BC,#3E56
381d 2011      JR      NZ,#3830
381f CD0038    CALL    #3800
3822 CB41      BIT     0,C
3824 2806      JR      Z,#382C
3826 E5        PUSH    HL
3827 CD9C36    CALL    #369C
382a 3C        INC     A
382b E1        POP     HL
382c 0E00      LD      C,#00
382e 182E      JR      #385E
3830 CDB23A    CALL    #3AB2
3833 02        LD      (BC),A
3834 7B        LD      A,E
3835 3E20      LD      A,#20
3837 16CD      LD      D,#CD
3839 00        NOP     
383a 38CB      JR      C,#3807
383c 41        LD      B,C
383d 200C      JR      NZ,#384B
383f 7E        LD      A,(HL)
3840 FE45      CP      #45
3842 2007      JR      NZ,#384B
3844 CDA136    CALL    #36A1
3847 02        LD      (BC),A
3848 CBB8      RES     7,B
384a C9        RET     

384b C32636    JP      #3626
384e CDB23A    CALL    #3AB2
3851 01863E    LD      BC,#3E86
3854 200B      JR      NZ,#3861
3856 CD0038    CALL    #3800
3859 CB41      BIT     0,C
385b C0        RET     NZ

385c 0E01      LD      C,#01
385e C32B36    JP      #362B
3861 CDD13A    CALL    #3AD1
3864 93        SUB     E
3865 3E20      LD      A,#20
3867 0B        DEC     BC
3868 CD0038    CALL    #3800
386b CD983A    CALL    #3A98
386e CD9C36    CALL    #369C
3871 49        LD      C,C
3872 C9        RET     

3873 CDB23A    CALL    #3AB2
3876 01963E    LD      BC,#3E96
3879 200A      JR      NZ,#3885
387b CD0038    CALL    #3800
387e CD983A    CALL    #3A98
3881 7E        LD      A,(HL)
3882 C35436    JP      #3654
3885 CDB23A    CALL    #3AB2
3888 01A13E    LD      BC,#3EA1
388b 200A      JR      NZ,#3897
388d E5        PUSH    HL
388e CD0C38    CALL    #380C
3891 CD3937    CALL    #3739
3894 E1        POP     HL
3895 18C5      JR      #385C
3897 CDD13A    CALL    #3AD1
389a AD        XOR     L
389b 3E20      LD      A,#20
389d 0D        DEC     C
389e CD0038    CALL    #3800
38a1 CD983A    CALL    #3A98
38a4 0E02      LD      C,#02
38a6 CD9C36    CALL    #369C
38a9 52        LD      D,D
38aa C9        RET     

38ab CDD13A    CALL    #3AD1
38ae B0        OR      B
38af 3E20      LD      A,#20
38b1 1D        DEC     E
38b2 CDAF3B    CALL    #3BAF
38b5 0600      LD      B,#00
38b7 C5        PUSH    BC
38b8 CDA83A    CALL    #3AA8
38bb C1        POP     BC
38bc 04        INC     B
38bd CD973B    CALL    #3B97
38c0 28F5      JR      Z,#38B7
38c2 CD9C36    CALL    #369C
38c5 4E        LD      C,(HL)
38c6 78        LD      A,B
38c7 CD5436    CALL    #3654
38ca 0E02      LD      C,#02
38cc C3B73B    JP      #3BB7
38cf CDD13A    CALL    #3AD1
38d2 B6        OR      (HL)
38d3 3E20      LD      A,#20
38d5 26CD      LD      H,#CD
38d7 AF        XOR     A
38d8 3B        DEC     SP
38d9 CDA83A    CALL    #3AA8
38dc CDC73B    CALL    #3BC7
38df CD953A    CALL    #3A95
38e2 CDD335    CALL    #35D3
38e5 CD973B    CALL    #3B97
38e8 2005      JR      NZ,#38EF
38ea CD953A    CALL    #3A95
38ed 1807      JR      #38F6
38ef CDA136    CALL    #36A1
38f2 03        INC     BC
38f3 21FF00    LD      HL,#00FF
38f6 CD9C36    CALL    #369C
38f9 4F        LD      C,A
38fa 18CE      JR      #38CA
38fc CDB23A    CALL    #3AB2
38ff 01B93E    LD      BC,#3EB9
3902 2013      JR      NZ,#3917
3904 E5        PUSH    HL
3905 CDAF3B    CALL    #3BAF
3908 CDA83A    CALL    #3AA8
390b CDC73B    CALL    #3BC7
390e CD953A    CALL    #3A95
3911 E1        POP     HL
3912 CD2B36    CALL    #362B
3915 18B3      JR      #38CA
3917 CDD13A    CALL    #3AD1
391a C9        RET     

391b 3E20      LD      A,#20
391d 0F        RRCA    
391e CDAF3B    CALL    #3BAF
3921 CD953A    CALL    #3A95
3924 CDA136    CALL    #36A1
3927 03        INC     BC
3928 4D        LD      C,L
3929 ED68      IN      L,(C)
392b 1812      JR      #393F
392d CDD13A    CALL    #3AD1
3930 C5        PUSH    BC
3931 3E20      LD      A,#20
3933 10CD      DJNZ    #3902
3935 AF        XOR     A
3936 3B        DEC     SP
3937 CD7C3A    CALL    #3A7C
393a CDA136    CALL    #36A1
393d 01EB0E    LD      BC,#0EEB
3940 01C3B7    LD      BC,#B7C3
3943 3B        DEC     SP
3944 CDD13A    CALL    #3AD1
3947 CC3E20    CALL    Z,#203E
394a 17        RLA     
394b CD8B3B    CALL    #3B8B
394e 2808      JR      Z,#3958
3950 3E64      LD      A,#64
3952 CD2D36    CALL    #362D
3955 0E00      LD      C,#00
3957 C9        RET     

3958 CD953A    CALL    #3A95
395b 3E63      LD      A,#63
395d CD2D36    CALL    #362D
3960 18DD      JR      #393F
3962 CDD13A    CALL    #3AD1
3965 D23E20    JP      NC,#203E
3968 0F        RRCA    
3969 CDAF3B    CALL    #3BAF
396c CD9F3A    CALL    #3A9F
396f CD953A    CALL    #3A95
3972 CD9C36    CALL    #369C
3975 5F        LD      E,A
3976 18C7      JR      #393F
3978 CDD13A    CALL    #3AD1
397b D7        RST     #10
397c 3E20      LD      A,#20
397e 07        RLCA    
397f CD9C36    CALL    #369C
3982 68        LD      L,B
3983 0E01      LD      C,#01
3985 C9        RET     

3986 CD272F    CALL    #2F27
3989 CD503D    CALL    #3D50
398c 64        LD      H,H
398d CDA136    CALL    #36A1
3990 03        INC     BC
3991 6E        LD      L,(HL)
3992 2600      LD      H,#00
3994 C9        RET     

3995 2A9A0C    LD      HL,(#0C9A)
3998 ED5B960C  LD      DE,(#0C96)
399c B7        OR      A
399d ED52      SBC     HL,DE
399f 19        ADD     HL,DE
39a0 37        SCF     
39a1 C8        RET     Z

39a2 23        INC     HL
39a3 5E        LD      E,(HL)
39a4 23        INC     HL
39a5 56        LD      D,(HL)
39a6 19        ADD     HL,DE
39a7 229A0C    LD      (#0C9A),HL
39aa C9        RET     

39ab CD9539    CALL    #3995
39ae D8        RET     C

39af DDE5      PUSH    IX
39b1 D1        POP     DE
39b2 C5        PUSH    BC
39b3 CD003B    CALL    #3B00
39b6 C1        POP     BC
39b7 37        SCF     
39b8 3F        CCF     
39b9 C0        RET     NZ

39ba CB7E      BIT     7,(HL)
39bc 2B        DEC     HL
39bd 13        INC     DE
39be 28F2      JR      Z,#39B2
39c0 1A        LD      A,(DE)
39c1 CDF13B    CALL    #3BF1
39c4 3802      JR      C,#39C8
39c6 AF        XOR     A
39c7 C9        RET     

39c8 AF        XOR     A
39c9 3D        DEC     A
39ca C9        RET     

39cb CDDE39    CALL    #39DE
39ce CDAB39    CALL    #39AB
39d1 D8        RET     C

39d2 20FA      JR      NZ,#39CE
39d4 4E        LD      C,(HL)
39d5 79        LD      A,C
39d6 E638      AND     #38
39d8 B8        CP      B
39d9 20F3      JR      NZ,#39CE
39db C30E3B    JP      #3B0E
39de 2A980C    LD      HL,(#0C98)
39e1 229A0C    LD      (#0C9A),HL
39e4 C9        RET     

39e5 0600      LD      B,#00
39e7 CDCB39    CALL    #39CB
39ea D8        RET     C

39eb E5        PUSH    HL
39ec 11AD0C    LD      DE,#0CAD
39ef 010A00    LD      BC,#000A
39f2 EDB8      LDDR    
39f4 E1        POP     HL
39f5 C9        RET     

39f6 CD013A    CALL    #3A01
39f9 CD493D    CALL    #3D49
39fc 72        LD      (HL),D
39fd 061E      LD      B,#1E
39ff 1854      JR      #3A55
3a01 0608      LD      B,#08
3a03 18E2      JR      #39E7
3a05 3AAD0C    LD      A,(#0CAD)
3a08 E603      AND     #03
3a0a 80        ADD     A,B
3a0b C32D36    JP      #362D
3a0e 3AAD0C    LD      A,(#0CAD)
3a11 E603      AND     #03
3a13 17        RLA     
3a14 17        RLA     
3a15 80        ADD     A,B
3a16 47        LD      B,A
3a17 183C      JR      #3A55
3a19 CDE539    CALL    #39E5
3a1c 061E      LD      B,#1E
3a1e 3035      JR      NC,#3A55
3a20 0622      LD      B,#22
3a22 C5        PUSH    BC
3a23 CD013A    CALL    #3A01
3a26 C1        POP     BC
3a27 D8        RET     C

3a28 C5        PUSH    BC
3a29 E5        PUSH    HL
3a2a CD9F3B    CALL    #3B9F
3a2d 3AA90C    LD      A,(#0CA9)
3a30 57        LD      D,A
3a31 D5        PUSH    DE
3a32 CD953A    CALL    #3A95
3a35 CDD335    CALL    #35D3
3a38 D1        POP     DE
3a39 15        DEC     D
3a3a 2805      JR      Z,#3A41
3a3c CDC73B    CALL    #3BC7
3a3f 18F0      JR      #3A31
3a41 CDA73B    CALL    #3BA7
3a44 E1        POP     HL
3a45 CDEB39    CALL    #39EB
3a48 C1        POP     BC
3a49 E5        PUSH    HL
3a4a CD553A    CALL    #3A55
3a4d 2AA70C    LD      HL,(#0CA7)
3a50 CD4F36    CALL    #364F
3a53 E1        POP     HL
3a54 C9        RET     

3a55 2AA40C    LD      HL,(#0CA4)
3a58 3E11      LD      A,#11
3a5a CD4C36    CALL    #364C
3a5d 3AAD0C    LD      A,(#0CAD)
3a60 CB57      BIT     2,A
3a62 2802      JR      Z,#3A66
3a64 04        INC     B
3a65 04        INC     B
3a66 3AA60C    LD      A,(#0CA6)
3a69 4F        LD      C,A
3a6a 3A9E0C    LD      A,(#0C9E)
3a6d B9        CP      C
3a6e 2808      JR      Z,#3A78
3a70 04        INC     B
3a71 CD783A    CALL    #3A78
3a74 79        LD      A,C
3a75 C35436    JP      #3654
3a78 78        LD      A,B
3a79 C32D36    JP      #362D
3a7c CD193A    CALL    #3A19
3a7f CD493D    CALL    #3D49
3a82 71        LD      (HL),C
3a83 3AAD0C    LD      A,(#0CAD)
3a86 E603      AND     #03
3a88 32AD0C    LD      (#0CAD),A
3a8b C9        RET     

3a8c CD7C3A    CALL    #3A7C
3a8f 3D        DEC     A
3a90 CD503D    CALL    #3D50
3a93 46        LD      B,(HL)
3a94 C9        RET     

3a95 CD2A35    CALL    #352A
3a98 CB41      BIT     0,C
3a9a C0        RET     NZ

3a9b CD573D    CALL    #3D57
3a9e 61        LD      H,C
3a9f CD953A    CALL    #3A95
3aa2 CDC73B    CALL    #3BC7
3aa5 C3D335    JP      #35D3
3aa8 CD2A35    CALL    #352A
3aab CB49      BIT     1,C
3aad C0        RET     NZ

3aae CD573D    CALL    #3D57
3ab1 52        LD      D,D
3ab2 E3        EX      (SP),HL
3ab3 46        LD      B,(HL)
3ab4 23        INC     HL
3ab5 5E        LD      E,(HL)
3ab6 23        INC     HL
3ab7 56        LD      D,(HL)
3ab8 23        INC     HL
3ab9 E3        EX      (SP),HL
3aba EB        EX      DE,HL
3abb CDD83A    CALL    #3AD8
3abe C8        RET     Z

3abf 2B        DEC     HL
3ac0 CB7E      BIT     7,(HL)
3ac2 23        INC     HL
3ac3 28FB      JR      Z,#3AC0
3ac5 C5        PUSH    BC
3ac6 48        LD      C,B
3ac7 0600      LD      B,#00
3ac9 09        ADD     HL,BC
3aca C1        POP     BC
3acb 7E        LD      A,(HL)
3acc 3C        INC     A
3acd 20EC      JR      NZ,#3ABB
3acf 3D        DEC     A
3ad0 C9        RET     

3ad1 E3        EX      (SP),HL
3ad2 5E        LD      E,(HL)
3ad3 23        INC     HL
3ad4 56        LD      D,(HL)
3ad5 23        INC     HL
3ad6 E3        EX      (SP),HL
3ad7 EB        EX      DE,HL
3ad8 DDE5      PUSH    IX
3ada D1        POP     DE
3adb 7E        LD      A,(HL)
3adc CDD73B    CALL    #3BD7
3adf 3009      JR      NC,#3AEA
3ae1 CDF03A    CALL    #3AF0
3ae4 C0        RET     NZ

3ae5 CDC039    CALL    #39C0
3ae8 1803      JR      #3AED
3aea CDF03A    CALL    #3AF0
3aed C0        RET     NZ

3aee 181E      JR      #3B0E
3af0 C5        PUSH    BC
3af1 CD003B    CALL    #3B00
3af4 C1        POP     BC
3af5 23        INC     HL
3af6 13        INC     DE
3af7 C0        RET     NZ

3af8 2B        DEC     HL
3af9 CB7E      BIT     7,(HL)
3afb 23        INC     HL
3afc 28F2      JR      Z,#3AF0
3afe AF        XOR     A
3aff C9        RET     

3b00 1A        LD      A,(DE)
3b01 47        LD      B,A
3b02 7E        LD      A,(HL)
3b03 CBBF      RES     7,A
3b05 B8        CP      B
3b06 C8        RET     Z

3b07 FE41      CP      #41
3b09 D8        RET     C

3b0a C620      ADD     A,#20
3b0c B8        CP      B
3b0d C9        RET     

3b0e D5        PUSH    DE
3b0f DDE1      POP     IX
3b11 CDF33D    CALL    #3DF3
3b14 DD7E00    LD      A,(IX+#00)
3b17 B7        OR      A
3b18 2819      JR      Z,#3B33
3b1a FE20      CP      #20
3b1c 2815      JR      Z,#3B33
3b1e FE0D      CP      #0D
3b20 2811      JR      Z,#3B33
3b22 FE7B      CP      #7B
3b24 2814      JR      Z,#3B3A
3b26 FE28      CP      #28
3b28 2007      JR      NZ,#3B31
3b2a DD7E01    LD      A,(IX+#01)
3b2d FE2A      CP      #2A
3b2f 2807      JR      Z,#3B38
3b31 AF        XOR     A
3b32 C9        RET     

3b33 CDF13D    CALL    #3DF1
3b36 18DC      JR      #3B14
3b38 DD23      INC     IX
3b3a CDF13D    CALL    #3DF1
3b3d DD7E00    LD      A,(IX+#00)
3b40 FE7D      CP      #7D
3b42 28EF      JR      Z,#3B33
3b44 FE2A      CP      #2A
3b46 20F2      JR      NZ,#3B3A
3b48 DD23      INC     IX
3b4a DD7E00    LD      A,(IX+#00)
3b4d FE29      CP      #29
3b4f 28E2      JR      Z,#3B33
3b51 18EA      JR      #3B3D
3b53 CDD13A    CALL    #3AD1
3b56 DA3FC8    JP      C,#C83F
3b59 CD573D    CALL    #3D57
3b5c 113E3A    LD      DE,#3A3E
3b5f 1838      JR      #3B99
3b61 3E5B      LD      A,#5B
3b63 CD993B    CALL    #3B99
3b66 C8        RET     Z

3b67 3E28      LD      A,#28
3b69 DDBE00    CP      (IX+#00)
3b6c C0        RET     NZ

3b6d DD7E01    LD      A,(IX+#01)
3b70 FE2E      CP      #2E
3b72 C0        RET     NZ

3b73 DD23      INC     IX
3b75 18BC      JR      #3B33
3b77 3E5D      LD      A,#5D
3b79 CD993B    CALL    #3B99
3b7c C8        RET     Z

3b7d 3E2E      LD      A,#2E
3b7f DDBE00    CP      (IX+#00)
3b82 C0        RET     NZ

3b83 DD7E01    LD      A,(IX+#01)
3b86 FE29      CP      #29
3b88 C0        RET     NZ

3b89 18E8      JR      #3B73
3b8b 3E28      LD      A,#28
3b8d 180A      JR      #3B99
3b8f 3E29      LD      A,#29
3b91 1806      JR      #3B99
3b93 3E3B      LD      A,#3B
3b95 1802      JR      #3B99
3b97 3E2C      LD      A,#2C
3b99 DDBE00    CP      (IX+#00)
3b9c C0        RET     NZ

3b9d 1894      JR      #3B33
3b9f CD613B    CALL    #3B61
3ba2 CD503D    CALL    #3D50
3ba5 04        INC     B
3ba6 C9        RET     

3ba7 CD773B    CALL    #3B77
3baa CD503D    CALL    #3D50
3bad 05        DEC     B
3bae C9        RET     

3baf CD8B3B    CALL    #3B8B
3bb2 CD503D    CALL    #3D50
3bb5 06C9      LD      B,#C9
3bb7 CD8F3B    CALL    #3B8F
3bba CD503D    CALL    #3D50
3bbd 07        RLCA    
3bbe C9        RET     

3bbf CD933B    CALL    #3B93
3bc2 CD503D    CALL    #3D50
3bc5 01C9CD    LD      BC,#CDC9
3bc8 97        SUB     A
3bc9 3B        DEC     SP
3bca CD503D    CALL    #3D50
3bcd 08        EX      AF,AF'
3bce C9        RET     

3bcf CD5D3B    CALL    #3B5D
3bd2 CD503D    CALL    #3D50
3bd5 03        INC     BC
3bd6 C9        RET     

3bd7 FE41      CP      #41
3bd9 3F        CCF     
3bda D0        RET     NC

3bdb FE5B      CP      #5B
3bdd D8        RET     C

3bde FE5F      CP      #5F
3be0 37        SCF     
3be1 C8        RET     Z

3be2 FE5C      CP      #5C
3be4 37        SCF     
3be5 C8        RET     Z

3be6 FE61      CP      #61
3be8 3F        CCF     
3be9 D0        RET     NC

3bea FE7B      CP      #7B
3bec C9        RET     

3bed FE2E      CP      #2E
3bef 37        SCF     
3bf0 C8        RET     Z

3bf1 CDD73B    CALL    #3BD7
3bf4 D8        RET     C

3bf5 FE30      CP      #30
3bf7 3F        CCF     
3bf8 D0        RET     NC

3bf9 FE3A      CP      #3A
3bfb C9        RET     

3bfc 0638      LD      B,#38
3bfe CDCB39    CALL    #39CB
3c01 3822      JR      C,#3C25
3c03 2B        DEC     HL
3c04 79        LD      A,C
3c05 E603      AND     #03
3c07 4F        LD      C,A
3c08 B7        OR      A
3c09 2010      JR      NZ,#3C1B
3c0b C5        PUSH    BC
3c0c 46        LD      B,(HL)
3c0d 2B        DEC     HL
3c0e 4E        LD      C,(HL)
3c0f 2B        DEC     HL
3c10 56        LD      D,(HL)
3c11 2B        DEC     HL
3c12 5E        LD      E,(HL)
3c13 2B        DEC     HL
3c14 7E        LD      A,(HL)
3c15 2B        DEC     HL
3c16 6E        LD      L,(HL)
3c17 67        LD      H,A
3c18 D9        EXX     
3c19 C1        POP     BC
3c1a C9        RET     

3c1b 3D        DEC     A
3c1c 2802      JR      Z,#3C20
3c1e 46        LD      B,(HL)
3c1f 2B        DEC     HL
3c20 56        LD      D,(HL)
3c21 2B        DEC     HL
3c22 5E        LD      E,(HL)
3c23 EB        EX      DE,HL
3c24 C9        RET     

3c25 CDD13A    CALL    #3AD1
3c28 E23E20    JP      PO,#203E
3c2b 07        RLCA    
3c2c CDD115    CALL    #15D1
3c2f D9        EXX     
3c30 AF        XOR     A
3c31 4F        LD      C,A
3c32 C9        RET     

3c33 CDB23A    CALL    #3AB2
3c36 02        LD      (BC),A
3c37 E43E20    CALL    PO,#203E
3c3a 07        RLCA    
3c3b 5E        LD      E,(HL)
3c3c 23        INC     HL
3c3d 56        LD      D,(HL)
3c3e EB        EX      DE,HL
3c3f 0E01      LD      C,#01
3c41 C9        RET     

3c42 CDD13A    CALL    #3AD1
3c45 FA3E01    JP      M,#013E
3c48 02        LD      (BC),A
3c49 00        NOP     
3c4a C8        RET     Z

3c4b DD7E00    LD      A,(IX+#00)
3c4e FE27      CP      #27
3c50 2029      JR      NZ,#3C7B
3c52 DDE5      PUSH    IX
3c54 E1        POP     HL
3c55 CDF13D    CALL    #3DF1
3c58 DD7E00    LD      A,(IX+#00)
3c5b FE0D      CP      #0D
3c5d 2818      JR      Z,#3C77
3c5f CDF13D    CALL    #3DF1
3c62 FE27      CP      #27
3c64 C2733C    JP      NZ,#3C73
3c67 DD7E00    LD      A,(IX+#00)
3c6a FE27      CP      #27
3c6c C2143B    JP      NZ,#3B14
3c6f CDF13D    CALL    #3DF1
3c72 23        INC     HL
3c73 23        INC     HL
3c74 04        INC     B
3c75 18E1      JR      #3C58
3c77 CD573D    CALL    #3D57
3c7a 65        LD      H,L
3c7b 3E24      LD      A,#24
3c7d CD993B    CALL    #3B99
3c80 2837      JR      Z,#3CB9
3c82 DD7E00    LD      A,(IX+#00)
3c85 CDF53B    CALL    #3BF5
3c88 3F        CCF     
3c89 D8        RET     C

3c8a DDE5      PUSH    IX
3c8c D1        POP     DE
3c8d 13        INC     DE
3c8e 1A        LD      A,(DE)
3c8f CDF53B    CALL    #3BF5
3c92 38F9      JR      C,#3C8D
3c94 FE45      CP      #45
3c96 280E      JR      Z,#3CA6
3c98 FE2E      CP      #2E
3c9a 2016      JR      NZ,#3CB2
3c9c 13        INC     DE
3c9d 1A        LD      A,(DE)
3c9e FE2E      CP      #2E
3ca0 2810      JR      Z,#3CB2
3ca2 FE29      CP      #29
3ca4 280C      JR      Z,#3CB2
3ca6 CD7418    CALL    #1874
3ca9 D9        EXX     
3caa 0E00      LD      C,#00
3cac DA773C    JP      C,#3C77
3caf C3143B    JP      #3B14
3cb2 CDE619    CALL    #19E6
3cb5 0E01      LD      C,#01
3cb7 18F3      JR      #3CAC
3cb9 0E01      LD      C,#01
3cbb 210000    LD      HL,#0000
3cbe DD7E00    LD      A,(IX+#00)
3cc1 D630      SUB     #30
3cc3 38EA      JR      C,#3CAF
3cc5 FE0A      CP      #0A
3cc7 380A      JR      C,#3CD3
3cc9 D607      SUB     #07
3ccb FE0A      CP      #0A
3ccd 38E0      JR      C,#3CAF
3ccf FE10      CP      #10
3cd1 30DC      JR      NC,#3CAF
3cd3 29        ADD     HL,HL
3cd4 29        ADD     HL,HL
3cd5 29        ADD     HL,HL
3cd6 29        ADD     HL,HL
3cd7 B5        OR      L
3cd8 6F        LD      L,A
3cd9 CDF13D    CALL    #3DF1
3cdc 18E0      JR      #3CBE
3cde 3E2D      LD      A,#2D
3ce0 CD993B    CALL    #3B99
3ce3 C8        RET     Z

3ce4 3E2B      LD      A,#2B
3ce6 CD993B    CALL    #3B99
3ce9 AF        XOR     A
3cea 3D        DEC     A
3ceb C9        RET     

3cec CDDE3C    CALL    #3CDE
3cef F5        PUSH    AF
3cf0 CDFC3B    CALL    #3BFC
3cf3 CD493D    CALL    #3D49
3cf6 23        INC     HL
3cf7 F1        POP     AF
3cf8 C0        RET     NZ

3cf9 CB49      BIT     1,C
3cfb CD503D    CALL    #3D50
3cfe 50        LD      D,B
3cff CB41      BIT     0,C
3d01 C25419    JP      NZ,#1954
3d04 D9        EXX     
3d05 CDCC10    CALL    #10CC
3d08 D9        EXX     
3d09 C9        RET     

3d0a CDEC3C    CALL    #3CEC
3d0d 79        LD      A,C
3d0e 3D        DEC     A
3d0f C8        RET     Z

3d10 CD573D    CALL    #3D57
3d13 30CD      JR      NC,#3CE2
3d15 FC3B38    CALL    M,#383B
3d18 F7        RST     #30
3d19 79        LD      A,C
3d1a 3D        DEC     A
3d1b 20F3      JR      NZ,#3D10
3d1d 7C        LD      A,H
3d1e B7        OR      A
3d1f 7D        LD      A,L
3d20 C8        RET     Z

3d21 CD573D    CALL    #3D57
3d24 33        INC     SP
3d25 CDFC3B    CALL    #3BFC
3d28 3803      JR      C,#3D2D
3d2a CB49      BIT     1,C
3d2c C0        RET     NZ

3d2d CD573D    CALL    #3D57
3d30 31424B    LD      SP,#4B42
3d33 EB        EX      DE,HL
3d34 210000    LD      HL,#0000
3d37 3E10      LD      A,#10
3d39 CB38      SRL     B
3d3b CB19      RR      C
3d3d 3002      JR      NC,#3D41
3d3f 19        ADD     HL,DE
3d40 D8        RET     C

3d41 EB        EX      DE,HL
3d42 29        ADD     HL,HL
3d43 EB        EX      DE,HL
3d44 3D        DEC     A
3d45 20F2      JR      NZ,#3D39
3d47 B7        OR      A
3d48 C9        RET     

3d49 E3        EX      (SP),HL
3d4a 7E        LD      A,(HL)
3d4b 23        INC     HL
3d4c E3        EX      (SP),HL
3d4d D0        RET     NC

3d4e 1809      JR      #3D59
3d50 E3        EX      (SP),HL
3d51 7E        LD      A,(HL)
3d52 23        INC     HL
3d53 E3        EX      (SP),HL
3d54 C8        RET     Z

3d55 1802      JR      #3D59
3d57 E1        POP     HL
3d58 7E        LD      A,(HL)
3d59 310010    LD      SP,#1000
3d5c F5        PUSH    AF
3d5d AF        XOR     A
3d5e 32000C    LD      (#0C00),A
3d61 DDE5      PUSH    IX
3d63 E1        POP     HL
3d64 E5        PUSH    HL
3d65 110040    LD      DE,#4000
3d68 CD2B28    CALL    #282B
3d6b E5        PUSH    HL
3d6c CD2122    CALL    #2221
3d6f D1        POP     DE
3d70 E1        POP     HL
3d71 AF        XOR     A
3d72 ED52      SBC     HL,DE
3d74 112F00    LD      DE,#002F
3d77 ED52      SBC     HL,DE
3d79 3003      JR      NC,#3D7E
3d7b 19        ADD     HL,DE
3d7c 1802      JR      #3D80
3d7e 7D        LD      A,L
3d7f EB        EX      DE,HL
3d80 328C0C    LD      (#0C8C),A
3d83 110A08    LD      DE,#080A
3d86 19        ADD     HL,DE
3d87 228A0C    LD      (#0C8A),HL
3d8a CD6C28    CALL    #286C
3d8d 21CA3D    LD      HL,#3DCA
3d90 11CA0B    LD      DE,#0BCA
3d93 011100    LD      BC,#0011
3d96 EDB0      LDIR    
3d98 F1        POP     AF
3d99 F5        PUSH    AF
3d9a 1F        RRA     
3d9b 1F        RRA     
3d9c 1F        RRA     
3d9d 1F        RRA     
3d9e 21DC0B    LD      HL,#0BDC
3da1 D7        RST     #10
3da2 21F123    LD      HL,#23F1
3da5 D7        RST     #10
3da6 1D        DEC     E
3da7 21DB3D    LD      HL,#3DDB
3daa 11ED0B    LD      DE,#0BED
3dad 010D00    LD      BC,#000D
3db0 EDB0      LDIR    
3db2 DF        RST     #18
3db3 7B        LD      A,E
3db4 FE20      CP      #20
3db6 20FA      JR      NZ,#3DB2
3db8 21CA0B    LD      HL,#0BCA
3dbb 0630      LD      B,#30
3dbd 77        LD      (HL),A
3dbe 23        INC     HL
3dbf 10FC      DJNZ    #3DBD
3dc1 C34424    JP      #2444
3dc4 E60F      AND     #0F
3dc6 C630      ADD     A,#30
3dc8 77        LD      (HL),A
3dc9 C9        RET     

3dca 43        LD      B,E
3dcb 6F        LD      L,A
3dcc 6D        LD      L,L
3dcd 70        LD      (HL),B
3dce 69        LD      L,C
3dcf 6C        LD      L,H
3dd0 61        LD      H,C
3dd1 74        LD      (HL),H
3dd2 69        LD      L,C
3dd3 6F        LD      L,A
3dd4 6E        LD      L,(HL)
3dd5 2065      JR      NZ,#3E3C
3dd7 72        LD      (HL),D
3dd8 72        LD      (HL),D
3dd9 6F        LD      L,A
3dda 72        LD      (HL),D
3ddb 50        LD      D,B
3ddc 72        LD      (HL),D
3ddd 65        LD      H,L
3dde 73        LD      (HL),E
3ddf 73        LD      (HL),E
3de0 203C      JR      NZ,#3E1E
3de2 53        LD      D,E
3de3 50        LD      D,B
3de4 41        LD      B,C
3de5 43        LD      B,E
3de6 45        LD      B,L
3de7 3E21      LD      A,#21
3de9 00        NOP     
3dea 40        LD      B,B
3deb CD2122    CALL    #2221
3dee C3A327    JP      #27A3
3df1 DD23      INC     IX
3df3 E5        PUSH    HL
3df4 D5        PUSH    DE
3df5 2A820C    LD      HL,(#0C82)
3df8 DDE5      PUSH    IX
3dfa D1        POP     DE
3dfb 37        SCF     
3dfc ED52      SBC     HL,DE
3dfe D1        POP     DE
3dff E1        POP     HL
3e00 D0        RET     NC

3e01 DD2A820C  LD      IX,(#0C82)
3e05 CD573D    CALL    #3D57
3e08 99        SBC     A,C
3e09 3C        INC     A
3e0a BE        CP      (HL)
3e0b 40        LD      B,B
3e0c 3EBD      LD      A,#BD
3e0e 013CBD    LD      BC,#BD3C
3e11 C1        POP     BC
3e12 BD        CP      L
3e13 C0        RET     NZ

3e14 BE        CP      (HL)
3e15 41        LD      B,C
3e16 BC        CP      H
3e17 81        ADD     A,C
3e18 FF        RST     #38
3e19 AB        XOR     E
3e1a 01C82D    LD      BC,#2DC8
3e1d AD        XOR     L
3e1e 01C92E    LD      BC,#2EC9
3e21 4F        LD      C,A
3e22 D20041    JP      NC,#4100
3e25 00        NOP     
3e26 45        LD      B,L
3e27 58        LD      E,B
3e28 4F        LD      C,A
3e29 D20042    JP      NC,#4200
3e2c 00        NOP     
3e2d FF        RST     #38
3e2e AA        XOR     D
3e2f 013D2F    LD      BC,#2F3D
3e32 AF        XOR     A
3e33 02        LD      (BC),A
3e34 00        NOP     
3e35 3044      JR      NC,#3E7B
3e37 49        LD      C,C
3e38 D600      SUB     #00
3e3a 3E00      LD      A,#00
3e3c 4D        LD      C,L
3e3d 4F        LD      C,A
3e3e C4003F    CALL    NZ,#3F00
3e41 00        NOP     
3e42 41        LD      B,C
3e43 4E        LD      C,(HL)
3e44 C40040    CALL    NZ,#4000
3e47 00        NOP     
3e48 53        LD      D,E
3e49 48        LD      C,B
3e4a 49        LD      C,C
3e4b 46        LD      B,(HL)
3e4c D40044    CALL    NC,#4400
3e4f 00        NOP     
3e50 FF        RST     #38
3e51 4E        LD      C,(HL)
3e52 4F        LD      C,A
3e53 D44D3B    CALL    NC,#3B4D
3e56 53        LD      D,E
3e57 51        LD      D,C
3e58 52        LD      D,D
3e59 D43253    CALL    NC,#5332
3e5c 49        LD      C,C
3e5d CE33      ADC     A,#33
3e5f 43        LD      B,E
3e60 4F        LD      C,A
3e61 D334      OUT     (#34),A
3e63 41        LD      B,C
3e64 52        LD      D,D
3e65 43        LD      B,E
3e66 54        LD      D,H
3e67 41        LD      B,C
3e68 CE35      ADC     A,#35
3e6a 4C        LD      C,H
3e6b CE36      ADC     A,#36
3e6d 45        LD      B,L
3e6e 58        LD      E,B
3e6f D0        RET     NC

3e70 37        SCF     
3e71 49        LD      C,C
3e72 4E        LD      C,(HL)
3e73 D43846    CALL    NC,#4638
3e76 52        LD      D,D
3e77 41        LD      B,C
3e78 C339FF    JP      #FF39
3e7b 41        LD      B,C
3e7c 42        LD      B,D
3e7d D345      OUT     (#45),A
3e7f 00        NOP     
3e80 53        LD      D,E
3e81 51        LD      D,C
3e82 D24631    JP      NC,#3146
3e85 FF        RST     #38
3e86 54        LD      D,H
3e87 52        LD      D,D
3e88 55        LD      D,L
3e89 4E        LD      C,(HL)
3e8a C34752    JP      #5247
3e8d 4F        LD      C,A
3e8e 55        LD      D,L
3e8f 4E        LD      C,(HL)
3e90 C448FF    CALL    NZ,#FF48
3e93 4F        LD      C,A
3e94 44        LD      B,H
3e95 C45355    CALL    NZ,#5553
3e98 43        LD      B,E
3e99 C32350    JP      #5023
3e9c 52        LD      D,D
3e9d 45        LD      B,L
3e9e C42BFF    CALL    NZ,#FF2B
3ea1 4F        LD      C,A
3ea2 52        LD      D,D
3ea3 C44A4C    CALL    NZ,#4C4A
3ea6 45        LD      B,L
3ea7 4E        LD      C,(HL)
3ea8 47        LD      B,A
3ea9 54        LD      D,H
3eaa C8        RET     Z

3eab 4B        LD      C,E
3eac FF        RST     #38
3ead 43        LD      B,E
3eae 48        LD      C,B
3eaf D2434F    JP      NC,#4F43
3eb2 4E        LD      C,(HL)
3eb3 43        LD      B,E
3eb4 41        LD      B,C
3eb5 D44D49    CALL    NC,#494D
3eb8 C44C45    CALL    NZ,#454C
3ebb 46        LD      B,(HL)
3ebc D45052    CALL    NC,#5250
3ebf 49        LD      C,C
3ec0 47        LD      B,A
3ec1 48        LD      C,B
3ec2 D451FF    CALL    NC,#FF51
3ec5 41        LD      B,C
3ec6 44        LD      B,H
3ec7 44        LD      B,H
3ec8 D2494E    JP      NC,#4E49
3ecb D0        RET     NC

3ecc 52        LD      D,D
3ecd 41        LD      B,C
3ece 4E        LD      C,(HL)
3ecf 44        LD      B,H
3ed0 4F        LD      C,A
3ed1 CD504F    CALL    #4F50
3ed4 49        LD      C,C
3ed5 4E        LD      C,(HL)
3ed6 D44B45    CALL    NC,#454B
3ed9 59        LD      E,C
3eda 42        LD      B,D
3edb 4F        LD      C,A
3edc 41        LD      B,C
3edd 52        LD      D,D
3ede C44D45    CALL    NZ,#454D
3ee1 CD50C9    CALL    #C950
3ee4 54        LD      D,H
3ee5 52        LD      D,D
3ee6 55        LD      D,L
3ee7 C5        PUSH    BC
3ee8 FF        RST     #38
3ee9 FF        RST     #38
3eea 46        LD      B,(HL)
3eeb 41        LD      B,C
3eec 4C        LD      C,H
3eed 53        LD      D,E
3eee C5        PUSH    BC
3eef 00        NOP     
3ef0 00        NOP     
3ef1 4D        LD      C,L
3ef2 41        LD      B,C
3ef3 58        LD      E,B
3ef4 49        LD      C,C
3ef5 4E        LD      C,(HL)
3ef6 D4FF7F    CALL    NC,#7FFF
3ef9 FF        RST     #38
3efa 45        LD      B,L
3efb 4D        LD      C,L
3efc 50        LD      D,B
3efd 54        LD      D,H
3efe D9        EXX     
3eff 4C        LD      C,H
3f00 41        LD      B,C
3f01 42        LD      B,D
3f02 45        LD      B,L
3f03 CC434F    CALL    Z,#4F43
3f06 4E        LD      C,(HL)
3f07 53        LD      D,E
3f08 D44152    CALL    NC,#5241
3f0b 52        LD      D,D
3f0c 41        LD      B,C
3f0d D9        EXX     
3f0e 2EAE      LD      L,#AE
3f10 4F        LD      C,A
3f11 C652      ADD     A,#52
3f13 45        LD      B,L
3f14 41        LD      B,C
3f15 CC0005    CALL    Z,#0500
3f18 49        LD      C,C
3f19 4E        LD      C,(HL)
3f1a 54        LD      D,H
3f1b 45        LD      B,L
3f1c 47        LD      B,A
3f1d 45        LD      B,L
3f1e D20101    JP      NC,#0101
3f21 42        LD      B,D
3f22 4F        LD      C,A
3f23 4F        LD      C,A
3f24 4C        LD      C,H
3f25 45        LD      B,L
3f26 41        LD      B,C
3f27 CE01      ADC     A,#01
3f29 015354    LD      BC,#5453
3f2c 52        LD      D,D
3f2d 49        LD      C,C
3f2e 4E        LD      C,(HL)
3f2f C7        RST     #00
3f30 02        LD      (BC),A
3f31 00        NOP     
3f32 FF        RST     #38
3f33 50        LD      D,B
3f34 52        LD      D,D
3f35 4F        LD      C,A
3f36 47        LD      B,A
3f37 52        LD      D,D
3f38 41        LD      B,C
3f39 CD5641    CALL    #4156
3f3c D20042    JP      NC,#4200
3f3f 45        LD      B,L
3f40 47        LD      B,A
3f41 49        LD      C,C
3f42 CE00      ADC     A,#00
3f44 50        LD      D,B
3f45 52        LD      D,D
3f46 4F        LD      C,A
3f47 43        LD      B,E
3f48 45        LD      B,L
3f49 44        LD      B,H
3f4a 55        LD      D,L
3f4b 52        LD      D,D
3f4c C5        PUSH    BC
3f4d 00        NOP     
3f4e 46        LD      B,(HL)
3f4f 55        LD      D,L
3f50 4E        LD      C,(HL)
3f51 43        LD      B,E
3f52 54        LD      D,H
3f53 49        LD      C,C
3f54 4F        LD      C,A
3f55 CEFF      ADC     A,#FF
3f57 FF        RST     #38
3f58 45        LD      B,L
3f59 58        LD      E,B
3f5a 54        LD      D,H
3f5b 45        LD      B,L
3f5c 52        LD      D,D
3f5d 4E        LD      C,(HL)
3f5e 41        LD      B,C
3f5f CC434F    CALL    Z,#4F43
3f62 44        LD      B,H
3f63 C5        PUSH    BC
3f64 42        LD      B,D
3f65 45        LD      B,L
3f66 47        LD      B,A
3f67 49        LD      C,C
3f68 CEDD      ADC     A,#DD
3f6a 2D        DEC     L
3f6b 49        LD      C,C
3f6c C636      ADD     A,#36
3f6e 2F        CPL     
3f6f 43        LD      B,E
3f70 41        LD      B,C
3f71 53        LD      D,E
3f72 C5        PUSH    BC
3f73 6B        LD      L,E
3f74 2F        CPL     
3f75 57        LD      D,A
3f76 48        LD      C,B
3f77 49        LD      C,C
3f78 4C        LD      C,H
3f79 C5        PUSH    BC
3f7a 1830      JR      #3FAC
3f7c 52        LD      D,D
3f7d 45        LD      B,L
3f7e 50        LD      D,B
3f7f 45        LD      B,L
3f80 41        LD      B,C
3f81 D44030    CALL    NC,#3040
3f84 46        LD      B,(HL)
3f85 4F        LD      C,A
3f86 D25F30    JP      NC,#305F
3f89 47        LD      B,A
3f8a 4F        LD      C,A
3f8b 54        LD      D,H
3f8c CF        RST     #08
3f8d DB30      IN      A,(#30)
3f8f 49        LD      C,C
3f90 4E        LD      C,(HL)
3f91 49        LD      C,C
3f92 D41A32    CALL    NC,#321A
3f95 FF        RST     #38
3f96 57        LD      D,A
3f97 52        LD      D,D
3f98 49        LD      C,C
3f99 54        LD      D,H
3f9a C5        PUSH    BC
3f9b 0D        DEC     C
3f9c 315752    LD      SP,#5257
3f9f 49        LD      C,C
3fa0 54        LD      D,H
3fa1 45        LD      B,L
3fa2 4C        LD      C,H
3fa3 CE9C      ADC     A,#9C
3fa5 315245    LD      SP,#4552
3fa8 41        LD      B,C
3fa9 C4AD31    CALL    NZ,#31AD
3fac 52        LD      D,D
3fad 45        LD      B,L
3fae 41        LD      B,C
3faf 44        LD      B,H
3fb0 4C        LD      C,H
3fb1 CEA9      ADC     A,#A9
3fb3 315343    LD      SP,#4353
3fb6 52        LD      D,D
3fb7 45        LD      B,L
3fb8 45        LD      B,L
3fb9 CEF9      ADC     A,#F9
3fbb 31504C    LD      SP,#4C50
3fbe 4F        LD      C,A
3fbf D40432    CALL    NC,#3204
3fc2 53        LD      D,E
3fc3 41        LD      B,C
3fc4 56        LD      D,(HL)
3fc5 C5        PUSH    BC
3fc6 EA324C    JP      PE,#4C32
3fc9 4F        LD      C,A
3fca 41        LD      B,C
3fcb C4F932    CALL    NZ,#32F9
3fce 43        LD      B,E
3fcf 41        LD      B,C
3fd0 4C        LD      C,H
3fd1 CCF231    CALL    Z,#31F2
3fd4 4F        LD      C,A
3fd5 55        LD      D,L
3fd6 D4E031    CALL    NC,#31E0
3fd9 FF        RST     #38
3fda 3ABD54    LD      A,(#54BD)
3fdd 48        LD      C,B
3fde 45        LD      B,L
3fdf CE45      ADC     A,#45
3fe1 4C        LD      C,H
3fe2 53        LD      D,E
3fe3 C5        PUSH    BC
3fe4 44        LD      B,H
3fe5 CF        RST     #08
3fe6 55        LD      D,L
3fe7 4E        LD      C,(HL)
3fe8 54        LD      D,H
3fe9 49        LD      C,C
3fea CC444F    CALL    Z,#4F44
3fed 57        LD      D,A
3fee 4E        LD      C,(HL)
3fef 54        LD      D,H
3ff0 CF        RST     #08
3ff1 4F        LD      C,A
3ff2 54        LD      D,H
3ff3 48        LD      C,B
3ff4 45        LD      B,L
3ff5 52        LD      D,D
3ff6 D345      OUT     (#45),A
3ff8 4E        LD      C,(HL)
3ff9 C4FFFF    CALL    NZ,#FFFF
3ffc FF        RST     #38
3ffd FF        RST     #38
3ffe FF        RST     #38
3fff FF        RST     #38
4000 00        NOP     
4001 00        NOP     
4002 00        NOP     
4003 00        NOP     
4004 00        NOP     
4005 00        NOP     
4006 00        NOP     
4007 00        NOP     
4008 00        NOP     
4009 00        NOP     
400a 00        NOP     
400b 00        NOP     
400c 00        NOP     
400d 00        NOP     
400e 00        NOP     
400f 00        NOP     
4010 00        NOP     
4011 00        NOP     
4012 00        NOP     
4013 00        NOP     
4014 00        NOP     
4015 00        NOP     
4016 00        NOP     
4017 00        NOP     
4018 00        NOP     
4019 00        NOP     
401a 00        NOP     
401b 00        NOP     
401c 00        NOP     
401d 00        NOP     
401e 00        NOP     
401f 00        NOP     
4020 00        NOP     
4021 00        NOP     
4022 00        NOP     
4023 00        NOP     
4024 00        NOP     
4025 00        NOP     
4026 00        NOP     
4027 00        NOP     
4028 00        NOP     
4029 00        NOP     
402a 00        NOP     
402b 00        NOP     
402c 00        NOP     
402d 00        NOP     
402e 00        NOP     
402f 00        NOP     
4030 00        NOP     
4031 00        NOP     
4032 00        NOP     
4033 00        NOP     
4034 00        NOP     
4035 00        NOP     
4036 00        NOP     
4037 00        NOP     
4038 00        NOP     
4039 00        NOP     
403a 00        NOP     
403b 00        NOP     
403c 00        NOP     
403d 00        NOP     
403e 00        NOP     
403f 00        NOP     
4040 00        NOP     
4041 00        NOP     
4042 00        NOP     
4043 00        NOP     
4044 00        NOP     
4045 00        NOP     
4046 00        NOP     
4047 00        NOP     
4048 00        NOP     
4049 00        NOP     
404a 00        NOP     
404b 00        NOP     
404c 00        NOP     
404d 00        NOP     
404e 00        NOP     
404f 00        NOP     
4050 00        NOP     
4051 00        NOP     
4052 00        NOP     
4053 00        NOP     
4054 00        NOP     
4055 00        NOP     
4056 00        NOP     
4057 00        NOP     
4058 00        NOP     
4059 00        NOP     
405a 00        NOP     
405b 00        NOP     
405c 00        NOP     
405d 00        NOP     
405e 00        NOP     
405f 00        NOP     
4060 00        NOP     
4061 00        NOP     
4062 00        NOP     
4063 00        NOP     
4064 00        NOP     
4065 00        NOP     
4066 00        NOP     
4067 00        NOP     
4068 00        NOP     
4069 00        NOP     
406a 00        NOP     
406b 00        NOP     
406c 00        NOP     
406d 00        NOP     
406e 00        NOP     
406f 00        NOP     
4070 00        NOP     
4071 00        NOP     
4072 00        NOP     
4073 00        NOP     
4074 00        NOP     
4075 00        NOP     
4076 00        NOP     
4077 00        NOP     
4078 00        NOP     
4079 00        NOP     
407a 00        NOP     
407b 00        NOP     
407c 00        NOP     
407d 00        NOP     
407e 00        NOP     
407f 00        NOP     
4080 00        NOP     
4081 00        NOP     
4082 00        NOP     
4083 00        NOP     
4084 00        NOP     
4085 00        NOP     
4086 00        NOP     
4087 00        NOP     
4088 00        NOP     
4089 00        NOP     
408a 00        NOP     
408b 00        NOP     
408c 00        NOP     
408d 00        NOP     
408e 00        NOP     
408f 00        NOP     
4090 00        NOP     
4091 00        NOP     
4092 00        NOP     
4093 00        NOP     
4094 00        NOP     
4095 00        NOP     
4096 00        NOP     
4097 00        NOP     
4098 00        NOP     
4099 00        NOP     
409a 00        NOP     
409b 00        NOP     
409c 00        NOP     
409d 00        NOP     
409e 00        NOP     
409f 00        NOP     
40a0 00        NOP     
40a1 00        NOP     
40a2 00        NOP     
40a3 00        NOP     
40a4 00        NOP     
40a5 00        NOP     
40a6 00        NOP     
40a7 00        NOP     
40a8 00        NOP     
40a9 00        NOP     
40aa 00        NOP     
40ab 00        NOP     
40ac 00        NOP     
40ad 00        NOP     
40ae 00        NOP     
40af 00        NOP     
40b0 00        NOP     
40b1 00        NOP     
40b2 00        NOP     
40b3 00        NOP     
40b4 00        NOP     
40b5 00        NOP     
40b6 00        NOP     
40b7 00        NOP     
40b8 00        NOP     
40b9 00        NOP     
40ba 00        NOP     
40bb 00        NOP     
40bc 00        NOP     
40bd 00        NOP     
40be 00        NOP     
40bf 00        NOP     
40c0 00        NOP     
40c1 00        NOP     
40c2 00        NOP     
40c3 00        NOP     
40c4 00        NOP     
40c5 00        NOP     
40c6 00        NOP     
40c7 00        NOP     
40c8 00        NOP     
40c9 00        NOP     
40ca 00        NOP     
40cb 00        NOP     
40cc 00        NOP     
40cd 00        NOP     
40ce 00        NOP     
40cf 00        NOP     
40d0 00        NOP     
40d1 00        NOP     
40d2 00        NOP     
40d3 00        NOP     
40d4 00        NOP     
40d5 00        NOP     
40d6 00        NOP     
40d7 00        NOP     
40d8 00        NOP     
40d9 00        NOP     
40da 00        NOP     
40db 00        NOP     
40dc 00        NOP     
40dd 00        NOP     
40de 00        NOP     
40df 00        NOP     
40e0 00        NOP     
40e1 00        NOP     
40e2 00        NOP     
40e3 00        NOP     
40e4 00        NOP     
40e5 00        NOP     
40e6 00        NOP     
40e7 00        NOP     
40e8 00        NOP     
40e9 00        NOP     
40ea 00        NOP     
40eb 00        NOP     
40ec 00        NOP     
40ed 00        NOP     
40ee 00        NOP     
40ef 00        NOP     
40f0 00        NOP     
40f1 00        NOP     
40f2 00        NOP     
40f3 00        NOP     
40f4 00        NOP     
40f5 00        NOP     
40f6 00        NOP     
40f7 00        NOP     
40f8 00        NOP     
40f9 00        NOP     
40fa 00        NOP     
40fb 00        NOP     
40fc 00        NOP     
40fd 00        NOP     
40fe 00        NOP     
40ff 00        NOP     
4100 00        NOP     
4101 00        NOP     
4102 00        NOP     
4103 00        NOP     
4104 00        NOP     
4105 00        NOP     
4106 00        NOP     
4107 00        NOP     
4108 00        NOP     
4109 00        NOP     
410a 00        NOP     
410b 00        NOP     
410c 00        NOP     
410d 00        NOP     
410e 00        NOP     
410f 00        NOP     
4110 00        NOP     
4111 00        NOP     
4112 00        NOP     
4113 00        NOP     
4114 00        NOP     
4115 00        NOP     
4116 00        NOP     
4117 00        NOP     
4118 00        NOP     
4119 00        NOP     
411a 00        NOP     
411b 00        NOP     
411c 00        NOP     
411d 00        NOP     
411e 00        NOP     
411f 00        NOP     
4120 00        NOP     
4121 00        NOP     
4122 00        NOP     
4123 00        NOP     
4124 00        NOP     
4125 00        NOP     
4126 00        NOP     
4127 00        NOP     
4128 00        NOP     
4129 00        NOP     
412a 00        NOP     
412b 00        NOP     
412c 00        NOP     
412d 00        NOP     
412e 00        NOP     
412f 00        NOP     
4130 00        NOP     
4131 00        NOP     
4132 00        NOP     
4133 00        NOP     
4134 00        NOP     
4135 00        NOP     
4136 00        NOP     
4137 00        NOP     
4138 00        NOP     
4139 00        NOP     
413a 00        NOP     
413b 00        NOP     
413c 00        NOP     
413d 00        NOP     
413e 00        NOP     
413f 00        NOP     
4140 00        NOP     
4141 00        NOP     
4142 00        NOP     
4143 00        NOP     
4144 00        NOP     
4145 00        NOP     
4146 00        NOP     
4147 00        NOP     
4148 00        NOP     
4149 00        NOP     
414a 00        NOP     
414b 00        NOP     
414c 00        NOP     
414d 00        NOP     
414e 00        NOP     
414f 00        NOP     
4150 00        NOP     
4151 00        NOP     
4152 00        NOP     
4153 00        NOP     
4154 00        NOP     
4155 00        NOP     
4156 00        NOP     
4157 00        NOP     
4158 00        NOP     
4159 00        NOP     
415a 00        NOP     
415b 00        NOP     
415c 00        NOP     
415d 00        NOP     
415e 00        NOP     
415f 00        NOP     
4160 00        NOP     
4161 00        NOP     
4162 00        NOP     
4163 00        NOP     
4164 00        NOP     
4165 00        NOP     
4166 00        NOP     
4167 00        NOP     
4168 00        NOP     
4169 00        NOP     
416a 00        NOP     
416b 00        NOP     
416c 00        NOP     
416d 00        NOP     
416e 00        NOP     
416f 00        NOP     
4170 00        NOP     
4171 00        NOP     
4172 00        NOP     
4173 00        NOP     
4174 00        NOP     
4175 00        NOP     
4176 00        NOP     
4177 00        NOP     
4178 00        NOP     
4179 00        NOP     
417a 00        NOP     
417b 00        NOP     
417c 00        NOP     
417d 00        NOP     
417e 00        NOP     
417f 00        NOP     
4180 00        NOP     
4181 00        NOP     
4182 00        NOP     
4183 00        NOP     
4184 00        NOP     
4185 00        NOP     
4186 00        NOP     
4187 00        NOP     
4188 00        NOP     
4189 00        NOP     
418a 00        NOP     
418b 00        NOP     
418c 00        NOP     
418d 00        NOP     
418e 00        NOP     
418f 00        NOP     
4190 00        NOP     
4191 00        NOP     
4192 00        NOP     
4193 00        NOP     
4194 00        NOP     
4195 00        NOP     
4196 00        NOP     
4197 00        NOP     
4198 00        NOP     
4199 00        NOP     
419a 00        NOP     
419b 00        NOP     
419c 00        NOP     
419d 00        NOP     
419e 00        NOP     
419f 00        NOP     
41a0 00        NOP     
41a1 00        NOP     
41a2 00        NOP     
41a3 00        NOP     
41a4 00        NOP     
41a5 00        NOP     
41a6 00        NOP     
41a7 00        NOP     
41a8 00        NOP     
41a9 00        NOP     
41aa 00        NOP     
41ab 00        NOP     
41ac 00        NOP     
41ad 00        NOP     
41ae 00        NOP     
41af 00        NOP     
41b0 00        NOP     
41b1 00        NOP     
41b2 00        NOP     
41b3 00        NOP     
41b4 00        NOP     
41b5 00        NOP     
41b6 00        NOP     
41b7 00        NOP     
41b8 00        NOP     
41b9 00        NOP     
41ba 00        NOP     
41bb 00        NOP     
41bc 00        NOP     
41bd 00        NOP     
41be 00        NOP     
41bf 00        NOP     
41c0 00        NOP     
41c1 00        NOP     
41c2 00        NOP     
41c3 00        NOP     
41c4 00        NOP     
41c5 00        NOP     
41c6 00        NOP     
41c7 00        NOP     
41c8 00        NOP     
41c9 00        NOP     
41ca 00        NOP     
41cb 00        NOP     
41cc 00        NOP     
41cd 00        NOP     
41ce 00        NOP     
41cf 00        NOP     
41d0 00        NOP     
41d1 00        NOP     
41d2 00        NOP     
41d3 00        NOP     
41d4 00        NOP     
41d5 00        NOP     
41d6 00        NOP     
41d7 00        NOP     
41d8 00        NOP     
41d9 00        NOP     
41da 00        NOP     
41db 00        NOP     
41dc 00        NOP     
41dd 00        NOP     
41de 00        NOP     
41df 00        NOP     
41e0 00        NOP     
41e1 00        NOP     
41e2 00        NOP     
41e3 00        NOP     
41e4 00        NOP     
41e5 00        NOP     
41e6 00        NOP     
41e7 00        NOP     
41e8 00        NOP     
41e9 00        NOP     
41ea 00        NOP     
41eb 00        NOP     
41ec 00        NOP     
41ed 00        NOP     
41ee 00        NOP     
41ef 00        NOP     
41f0 00        NOP     
41f1 00        NOP     
41f2 00        NOP     
41f3 00        NOP     
41f4 00        NOP     
41f5 00        NOP     
41f6 00        NOP     
41f7 00        NOP     
41f8 00        NOP     
41f9 00        NOP     
41fa 00        NOP     
41fb 00        NOP     
41fc 00        NOP     
41fd 00        NOP     
41fe 00        NOP     
41ff 00        NOP     
4200 00        NOP     
4201 00        NOP     
4202 00        NOP     
4203 00        NOP     
4204 00        NOP     
4205 00        NOP     
4206 00        NOP     
4207 00        NOP     
4208 00        NOP     
4209 00        NOP     
420a 00        NOP     
420b 00        NOP     
420c 00        NOP     
420d 00        NOP     
420e 00        NOP     
420f 00        NOP     
4210 00        NOP     
4211 00        NOP     
4212 00        NOP     
4213 00        NOP     
4214 00        NOP     
4215 00        NOP     
4216 00        NOP     
4217 00        NOP     
4218 00        NOP     
4219 00        NOP     
421a 00        NOP     
421b 00        NOP     
421c 00        NOP     
421d 00        NOP     
421e 00        NOP     
421f 00        NOP     
4220 00        NOP     
4221 00        NOP     
4222 00        NOP     
4223 00        NOP     
4224 00        NOP     
4225 00        NOP     
4226 00        NOP     
4227 00        NOP     
4228 00        NOP     
4229 00        NOP     
422a 00        NOP     
422b 00        NOP     
422c 00        NOP     
422d 00        NOP     
422e 00        NOP     
422f 00        NOP     
4230 00        NOP     
4231 00        NOP     
4232 00        NOP     
4233 00        NOP     
4234 00        NOP     
4235 00        NOP     
4236 00        NOP     
4237 00        NOP     
4238 00        NOP     
4239 00        NOP     
423a 00        NOP     
423b 00        NOP     
423c 00        NOP     
423d 00        NOP     
423e 00        NOP     
423f 00        NOP     
4240 00        NOP     
4241 00        NOP     
4242 00        NOP     
4243 00        NOP     
4244 00        NOP     
4245 00        NOP     
4246 00        NOP     
4247 00        NOP     
4248 00        NOP     
4249 00        NOP     
424a 00        NOP     
424b 00        NOP     
424c 00        NOP     
424d 00        NOP     
424e 00        NOP     
424f 00        NOP     
4250 00        NOP     
4251 00        NOP     
4252 00        NOP     
4253 00        NOP     
4254 00        NOP     
4255 00        NOP     
4256 00        NOP     
4257 00        NOP     
4258 00        NOP     
4259 00        NOP     
425a 00        NOP     
425b 00        NOP     
425c 00        NOP     
425d 00        NOP     
425e 00        NOP     
425f 00        NOP     
4260 00        NOP     
4261 00        NOP     
4262 00        NOP     
4263 00        NOP     
4264 00        NOP     
4265 00        NOP     
4266 00        NOP     
4267 00        NOP     
4268 00        NOP     
4269 00        NOP     
426a 00        NOP     
426b 00        NOP     
426c 00        NOP     
426d 00        NOP     
426e 00        NOP     
426f 00        NOP     
4270 00        NOP     
4271 00        NOP     
4272 00        NOP     
4273 00        NOP     
4274 00        NOP     
4275 00        NOP     
4276 00        NOP     
4277 00        NOP     
4278 00        NOP     
4279 00        NOP     
427a 00        NOP     
427b 00        NOP     
427c 00        NOP     
427d 00        NOP     
427e 00        NOP     
427f 00        NOP     
4280 00        NOP     
4281 00        NOP     
4282 00        NOP     
4283 00        NOP     
4284 00        NOP     
4285 00        NOP     
4286 00        NOP     
4287 00        NOP     
4288 00        NOP     
4289 00        NOP     
428a 00        NOP     
428b 00        NOP     
428c 00        NOP     
428d 00        NOP     
428e 00        NOP     
428f 00        NOP     
4290 00        NOP     
4291 00        NOP     
4292 00        NOP     
4293 00        NOP     
4294 00        NOP     
4295 00        NOP     
4296 00        NOP     
4297 00        NOP     
4298 00        NOP     
4299 00        NOP     
429a 00        NOP     
429b 00        NOP     
429c 00        NOP     
429d 00        NOP     
429e 00        NOP     
429f 00        NOP     
42a0 00        NOP     
42a1 00        NOP     
42a2 00        NOP     
42a3 00        NOP     
42a4 00        NOP     
42a5 00        NOP     
42a6 00        NOP     
42a7 00        NOP     
42a8 00        NOP     
42a9 00        NOP     
42aa 00        NOP     
42ab 00        NOP     
42ac 00        NOP     
42ad 00        NOP     
42ae 00        NOP     
42af 00        NOP     
42b0 00        NOP     
42b1 00        NOP     
42b2 00        NOP     
42b3 00        NOP     
42b4 00        NOP     
42b5 00        NOP     
42b6 00        NOP     
42b7 00        NOP     
42b8 00        NOP     
42b9 00        NOP     
42ba 00        NOP     
42bb 00        NOP     
42bc 00        NOP     
42bd 00        NOP     
42be 00        NOP     
42bf 00        NOP     
42c0 00        NOP     
42c1 00        NOP     
42c2 00        NOP     
42c3 00        NOP     
42c4 00        NOP     
42c5 00        NOP     
42c6 00        NOP     
42c7 00        NOP     
42c8 00        NOP     
42c9 00        NOP     
42ca 00        NOP     
42cb 00        NOP     
42cc 00        NOP     
42cd 00        NOP     
42ce 00        NOP     
42cf 00        NOP     
42d0 00        NOP     
42d1 00        NOP     
42d2 00        NOP     
42d3 00        NOP     
42d4 00        NOP     
42d5 00        NOP     
42d6 00        NOP     
42d7 00        NOP     
42d8 00        NOP     
42d9 00        NOP     
42da 00        NOP     
42db 00        NOP     
42dc 00        NOP     
42dd 00        NOP     
42de 00        NOP     
42df 00        NOP     
42e0 00        NOP     
42e1 00        NOP     
42e2 00        NOP     
42e3 00        NOP     
42e4 00        NOP     
42e5 00        NOP     
42e6 00        NOP     
42e7 00        NOP     
42e8 00        NOP     
42e9 00        NOP     
42ea 00        NOP     
42eb 00        NOP     
42ec 00        NOP     
42ed 00        NOP     
42ee 00        NOP     
42ef 00        NOP     
42f0 00        NOP     
42f1 00        NOP     
42f2 00        NOP     
42f3 00        NOP     
42f4 00        NOP     
42f5 00        NOP     
42f6 00        NOP     
42f7 00        NOP     
42f8 00        NOP     
42f9 00        NOP     
42fa 00        NOP     
42fb 00        NOP     
42fc 00        NOP     
42fd 00        NOP     
42fe 00        NOP     
42ff 00        NOP     
4300 00        NOP     
4301 00        NOP     
4302 00        NOP     
4303 00        NOP     
4304 00        NOP     
4305 00        NOP     
4306 00        NOP     
4307 00        NOP     
4308 00        NOP     
4309 00        NOP     
430a 00        NOP     
430b 00        NOP     
430c 00        NOP     
430d 00        NOP     
430e 00        NOP     
430f 00        NOP     
4310 00        NOP     
4311 00        NOP     
4312 00        NOP     
4313 00        NOP     
4314 00        NOP     
4315 00        NOP     
4316 00        NOP     
4317 00        NOP     
4318 00        NOP     
4319 00        NOP     
431a 00        NOP     
431b 00        NOP     
431c 00        NOP     
431d 00        NOP     
431e 00        NOP     
431f 00        NOP     
4320 00        NOP     
4321 00        NOP     
4322 00        NOP     
4323 00        NOP     
4324 00        NOP     
4325 00        NOP     
4326 00        NOP     
4327 00        NOP     
4328 00        NOP     
4329 00        NOP     
432a 00        NOP     
432b 00        NOP     
432c 00        NOP     
432d 00        NOP     
432e 00        NOP     
432f 00        NOP     
4330 00        NOP     
4331 00        NOP     
4332 00        NOP     
4333 00        NOP     
4334 00        NOP     
4335 00        NOP     
4336 00        NOP     
4337 00        NOP     
4338 00        NOP     
4339 00        NOP     
433a 00        NOP     
433b 00        NOP     
433c 00        NOP     
433d 00        NOP     
433e 00        NOP     
433f 00        NOP     
4340 00        NOP     
4341 00        NOP     
4342 00        NOP     
4343 00        NOP     
4344 00        NOP     
4345 00        NOP     
4346 00        NOP     
4347 00        NOP     
4348 00        NOP     
4349 00        NOP     
434a 00        NOP     
434b 00        NOP     
434c 00        NOP     
434d 00        NOP     
434e 00        NOP     
434f 00        NOP     
4350 00        NOP     
4351 00        NOP     
4352 00        NOP     
4353 00        NOP     
4354 00        NOP     
4355 00        NOP     
4356 00        NOP     
4357 00        NOP     
4358 00        NOP     
4359 00        NOP     
435a 00        NOP     
435b 00        NOP     
435c 00        NOP     
435d 00        NOP     
435e 00        NOP     
435f 00        NOP     
4360 00        NOP     
4361 00        NOP     
4362 00        NOP     
4363 00        NOP     
4364 00        NOP     
4365 00        NOP     
4366 00        NOP     
4367 00        NOP     
4368 00        NOP     
4369 00        NOP     
436a 00        NOP     
436b 00        NOP     
436c 00        NOP     
436d 00        NOP     
436e 00        NOP     
436f 00        NOP     
4370 00        NOP     
4371 00        NOP     
4372 00        NOP     
4373 00        NOP     
4374 00        NOP     
4375 00        NOP     
4376 00        NOP     
4377 00        NOP     
4378 00        NOP     
4379 00        NOP     
437a 00        NOP     
437b 00        NOP     
437c 00        NOP     
437d 00        NOP     
437e 00        NOP     
437f 00        NOP     
4380 00        NOP     
4381 00        NOP     
4382 00        NOP     
4383 00        NOP     
4384 00        NOP     
4385 00        NOP     
4386 00        NOP     
4387 00        NOP     
4388 00        NOP     
4389 00        NOP     
438a 00        NOP     
438b 00        NOP     
438c 00        NOP     
438d 00        NOP     
438e 00        NOP     
438f 00        NOP     
4390 00        NOP     
4391 00        NOP     
4392 00        NOP     
4393 00        NOP     
4394 00        NOP     
4395 00        NOP     
4396 00        NOP     
4397 00        NOP     
4398 00        NOP     
4399 00        NOP     
439a 00        NOP     
439b 00        NOP     
439c 00        NOP     
439d 00        NOP     
439e 00        NOP     
439f 00        NOP     
43a0 00        NOP     
43a1 00        NOP     
43a2 00        NOP     
43a3 00        NOP     
43a4 00        NOP     
43a5 00        NOP     
43a6 00        NOP     
43a7 00        NOP     
43a8 00        NOP     
43a9 00        NOP     
43aa 00        NOP     
43ab 00        NOP     
43ac 00        NOP     
43ad 00        NOP     
43ae 00        NOP     
43af 00        NOP     
43b0 00        NOP     
43b1 00        NOP     
43b2 00        NOP     
43b3 00        NOP     
43b4 00        NOP     
43b5 00        NOP     
43b6 00        NOP     
43b7 00        NOP     
43b8 00        NOP     
43b9 00        NOP     
43ba 00        NOP     
43bb 00        NOP     
43bc 00        NOP     
43bd 00        NOP     
43be 00        NOP     
43bf 00        NOP     
43c0 00        NOP     
43c1 00        NOP     
43c2 00        NOP     
43c3 00        NOP     
43c4 00        NOP     
43c5 00        NOP     
43c6 00        NOP     
43c7 00        NOP     
43c8 00        NOP     
43c9 00        NOP     
43ca 00        NOP     
43cb 00        NOP     
43cc 00        NOP     
43cd 00        NOP     
43ce 00        NOP     
43cf 00        NOP     
43d0 00        NOP     
43d1 00        NOP     
43d2 00        NOP     
43d3 00        NOP     
43d4 00        NOP     
43d5 00        NOP     
43d6 00        NOP     
43d7 00        NOP     
43d8 00        NOP     
43d9 00        NOP     
43da 00        NOP     
43db 00        NOP     
43dc 00        NOP     
43dd 00        NOP     
43de 00        NOP     
43df 00        NOP     
43e0 00        NOP     
43e1 00        NOP     
43e2 00        NOP     
43e3 00        NOP     
43e4 00        NOP     
43e5 00        NOP     
43e6 00        NOP     
43e7 00        NOP     
43e8 00        NOP     
43e9 00        NOP     
43ea 00        NOP     
43eb 00        NOP     
43ec 00        NOP     
43ed 00        NOP     
43ee 00        NOP     
43ef 00        NOP     
43f0 00        NOP     
43f1 00        NOP     
43f2 00        NOP     
43f3 00        NOP     
43f4 00        NOP     
43f5 00        NOP     
43f6 00        NOP     
43f7 00        NOP     
43f8 00        NOP     
43f9 00        NOP     
43fa 00        NOP     
43fb 00        NOP     
43fc 00        NOP     
43fd 00        NOP     
43fe 00        NOP     
43ff 00        NOP     
4400 00        NOP     
4401 00        NOP     
4402 00        NOP     
4403 00        NOP     
4404 00        NOP     
4405 00        NOP     
4406 00        NOP     
4407 00        NOP     
4408 00        NOP     
4409 00        NOP     
440a 00        NOP     
440b 00        NOP     
440c 00        NOP     
440d 00        NOP     
440e 00        NOP     
440f 00        NOP     
4410 00        NOP     
4411 00        NOP     
4412 00        NOP     
4413 00        NOP     
4414 00        NOP     
4415 00        NOP     
4416 00        NOP     
4417 00        NOP     
4418 00        NOP     
4419 00        NOP     
441a 00        NOP     
441b 00        NOP     
441c 00        NOP     
441d 00        NOP     
441e 00        NOP     
441f 00        NOP     
4420 00        NOP     
4421 00        NOP     
4422 00        NOP     
4423 00        NOP     
4424 00        NOP     
4425 00        NOP     
4426 00        NOP     
4427 00        NOP     
4428 00        NOP     
4429 00        NOP     
442a 00        NOP     
442b 00        NOP     
442c 00        NOP     
442d 00        NOP     
442e 00        NOP     
442f 00        NOP     
4430 00        NOP     
4431 00        NOP     
4432 00        NOP     
4433 00        NOP     
4434 00        NOP     
4435 00        NOP     
4436 00        NOP     
4437 00        NOP     
4438 00        NOP     
4439 00        NOP     
443a 00        NOP     
443b 00        NOP     
443c 00        NOP     
443d 00        NOP     
443e 00        NOP     
443f 00        NOP     
4440 00        NOP     
4441 00        NOP     
4442 00        NOP     
4443 00        NOP     
4444 00        NOP     
4445 00        NOP     
4446 00        NOP     
4447 00        NOP     
4448 00        NOP     
4449 00        NOP     
444a 00        NOP     
444b 00        NOP     
444c 00        NOP     
444d 00        NOP     
444e 00        NOP     
444f 00        NOP     
4450 00        NOP     
4451 00        NOP     
4452 00        NOP     
4453 00        NOP     
4454 00        NOP     
4455 00        NOP     
4456 00        NOP     
4457 00        NOP     
4458 00        NOP     
4459 00        NOP     
445a 00        NOP     
445b 00        NOP     
445c 00        NOP     
445d 00        NOP     
445e 00        NOP     
445f 00        NOP     
4460 00        NOP     
4461 00        NOP     
4462 00        NOP     
4463 00        NOP     
4464 00        NOP     
4465 00        NOP     
4466 00        NOP     
4467 00        NOP     
4468 00        NOP     
4469 00        NOP     
446a 00        NOP     
446b 00        NOP     
446c 00        NOP     
446d 00        NOP     
446e 00        NOP     
446f 00        NOP     
4470 00        NOP     
4471 00        NOP     
4472 00        NOP     
4473 00        NOP     
4474 00        NOP     
4475 00        NOP     
4476 00        NOP     
4477 00        NOP     
4478 00        NOP     
4479 00        NOP     
447a 00        NOP     
447b 00        NOP     
447c 00        NOP     
447d 00        NOP     
447e 00        NOP     
447f 00        NOP     
4480 00        NOP     
4481 00        NOP     
4482 00        NOP     
4483 00        NOP     
4484 00        NOP     
4485 00        NOP     
4486 00        NOP     
4487 00        NOP     
4488 00        NOP     
4489 00        NOP     
448a 00        NOP     
448b 00        NOP     
448c 00        NOP     
448d 00        NOP     
448e 00        NOP     
448f 00        NOP     
4490 00        NOP     
4491 00        NOP     
4492 00        NOP     
4493 00        NOP     
4494 00        NOP     
4495 00        NOP     
4496 00        NOP     
4497 00        NOP     
4498 00        NOP     
4499 00        NOP     
449a 00        NOP     
449b 00        NOP     
449c 00        NOP     
449d 00        NOP     
449e 00        NOP     
449f 00        NOP     
44a0 00        NOP     
44a1 00        NOP     
44a2 00        NOP     
44a3 00        NOP     
44a4 00        NOP     
44a5 00        NOP     
44a6 00        NOP     
44a7 00        NOP     
44a8 00        NOP     
44a9 00        NOP     
44aa 00        NOP     
44ab 00        NOP     
44ac 00        NOP     
44ad 00        NOP     
44ae 00        NOP     
44af 00        NOP     
44b0 00        NOP     
44b1 00        NOP     
44b2 00        NOP     
44b3 00        NOP     
44b4 00        NOP     
44b5 00        NOP     
44b6 00        NOP     
44b7 00        NOP     
44b8 00        NOP     
44b9 00        NOP     
44ba 00        NOP     
44bb 00        NOP     
44bc 00        NOP     
44bd 00        NOP     
44be 00        NOP     
44bf 00        NOP     
44c0 00        NOP     
44c1 00        NOP     
44c2 00        NOP     
44c3 00        NOP     
44c4 00        NOP     
44c5 00        NOP     
44c6 00        NOP     
44c7 00        NOP     
44c8 00        NOP     
44c9 00        NOP     
44ca 00        NOP     
44cb 00        NOP     
44cc 00        NOP     
44cd 00        NOP     
44ce 00        NOP     
44cf 00        NOP     
44d0 00        NOP     
44d1 00        NOP     
44d2 00        NOP     
44d3 00        NOP     
44d4 00        NOP     
44d5 00        NOP     
44d6 00        NOP     
44d7 00        NOP     
44d8 00        NOP     
44d9 00        NOP     
44da 00        NOP     
44db 00        NOP     
44dc 00        NOP     
44dd 00        NOP     
44de 00        NOP     
44df 00        NOP     
44e0 00        NOP     
44e1 00        NOP     
44e2 00        NOP     
44e3 00        NOP     
44e4 00        NOP     
44e5 00        NOP     
44e6 00        NOP     
44e7 00        NOP     
44e8 00        NOP     
44e9 00        NOP     
44ea 00        NOP     
44eb 00        NOP     
44ec 00        NOP     
44ed 00        NOP     
44ee 00        NOP     
44ef 00        NOP     
44f0 00        NOP     
44f1 00        NOP     
44f2 00        NOP     
44f3 00        NOP     
44f4 00        NOP     
44f5 00        NOP     
44f6 00        NOP     
44f7 00        NOP     
44f8 00        NOP     
44f9 00        NOP     
44fa 00        NOP     
44fb 00        NOP     
44fc 00        NOP     
44fd 00        NOP     
44fe 00        NOP     
44ff 00        NOP     
4500 00        NOP     
4501 00        NOP     
4502 00        NOP     
4503 00        NOP     
4504 00        NOP     
4505 00        NOP     
4506 00        NOP     
4507 00        NOP     
4508 00        NOP     
4509 00        NOP     
450a 00        NOP     
450b 00        NOP     
450c 00        NOP     
450d 00        NOP     
450e 00        NOP     
450f 00        NOP     
4510 00        NOP     
4511 00        NOP     
4512 00        NOP     
4513 00        NOP     
4514 00        NOP     
4515 00        NOP     
4516 00        NOP     
4517 00        NOP     
4518 00        NOP     
4519 00        NOP     
451a 00        NOP     
451b 00        NOP     
451c 00        NOP     
451d 00        NOP     
451e 00        NOP     
451f 00        NOP     
4520 00        NOP     
4521 00        NOP     
4522 00        NOP     
4523 00        NOP     
4524 00        NOP     
4525 00        NOP     
4526 00        NOP     
4527 00        NOP     
4528 00        NOP     
4529 00        NOP     
452a 00        NOP     
452b 00        NOP     
452c 00        NOP     
452d 00        NOP     
452e 00        NOP     
452f 00        NOP     
4530 00        NOP     
4531 00        NOP     
4532 00        NOP     
4533 00        NOP     
4534 00        NOP     
4535 00        NOP     
4536 00        NOP     
4537 00        NOP     
4538 00        NOP     
4539 00        NOP     
453a 00        NOP     
453b 00        NOP     
453c 00        NOP     
453d 00        NOP     
453e 00        NOP     
453f 00        NOP     
4540 00        NOP     
4541 00        NOP     
4542 00        NOP     
4543 00        NOP     
4544 00        NOP     
4545 00        NOP     
4546 00        NOP     
4547 00        NOP     
4548 00        NOP     
4549 00        NOP     
454a 00        NOP     
454b 00        NOP     
454c 00        NOP     
454d 00        NOP     
454e 00        NOP     
454f 00        NOP     
4550 00        NOP     
4551 00        NOP     
4552 00        NOP     
4553 00        NOP     
4554 00        NOP     
4555 00        NOP     
4556 00        NOP     
4557 00        NOP     
4558 00        NOP     
4559 00        NOP     
455a 00        NOP     
455b 00        NOP     
455c 00        NOP     
455d 00        NOP     
455e 00        NOP     
455f 00        NOP     
4560 00        NOP     
4561 00        NOP     
4562 00        NOP     
4563 00        NOP     
4564 00        NOP     
4565 00        NOP     
4566 00        NOP     
4567 00        NOP     
4568 00        NOP     
4569 00        NOP     
456a 00        NOP     
456b 00        NOP     
456c 00        NOP     
456d 00        NOP     
456e 00        NOP     
456f 00        NOP     
4570 00        NOP     
4571 00        NOP     
4572 00        NOP     
4573 00        NOP     
4574 00        NOP     
4575 00        NOP     
4576 00        NOP     
4577 00        NOP     
4578 00        NOP     
4579 00        NOP     
457a 00        NOP     
457b 00        NOP     
457c 00        NOP     
457d 00        NOP     
457e 00        NOP     
457f 00        NOP     
4580 00        NOP     
4581 00        NOP     
4582 00        NOP     
4583 00        NOP     
4584 00        NOP     
4585 00        NOP     
4586 00        NOP     
4587 00        NOP     
4588 00        NOP     
4589 00        NOP     
458a 00        NOP     
458b 00        NOP     
458c 00        NOP     
458d 00        NOP     
458e 00        NOP     
458f 00        NOP     
4590 00        NOP     
4591 00        NOP     
4592 00        NOP     
4593 00        NOP     
4594 00        NOP     
4595 00        NOP     
4596 00        NOP     
4597 00        NOP     
4598 00        NOP     
4599 00        NOP     
459a 00        NOP     
459b 00        NOP     
459c 00        NOP     
459d 00        NOP     
459e 00        NOP     
459f 00        NOP     
45a0 00        NOP     
45a1 00        NOP     
45a2 00        NOP     
45a3 00        NOP     
45a4 00        NOP     
45a5 00        NOP     
45a6 00        NOP     
45a7 00        NOP     
45a8 00        NOP     
45a9 00        NOP     
45aa 00        NOP     
45ab 00        NOP     
45ac 00        NOP     
45ad 00        NOP     
45ae 00        NOP     
45af 00        NOP     
45b0 00        NOP     
45b1 00        NOP     
45b2 00        NOP     
45b3 00        NOP     
45b4 00        NOP     
45b5 00        NOP     
45b6 00        NOP     
45b7 00        NOP     
45b8 00        NOP     
45b9 00        NOP     
45ba 00        NOP     
45bb 00        NOP     
45bc 00        NOP     
45bd 00        NOP     
45be 00        NOP     
45bf 00        NOP     
45c0 00        NOP     
45c1 00        NOP     
45c2 00        NOP     
45c3 00        NOP     
45c4 00        NOP     
45c5 00        NOP     
45c6 00        NOP     
45c7 00        NOP     
45c8 00        NOP     
45c9 00        NOP     
45ca 00        NOP     
45cb 00        NOP     
45cc 00        NOP     
45cd 00        NOP     
45ce 00        NOP     
45cf 00        NOP     
45d0 00        NOP     
45d1 00        NOP     
45d2 00        NOP     
45d3 00        NOP     
45d4 00        NOP     
45d5 00        NOP     
45d6 00        NOP     
45d7 00        NOP     
45d8 00        NOP     
45d9 00        NOP     
45da 00        NOP     
45db 00        NOP     
45dc 00        NOP     
45dd 00        NOP     
45de 00        NOP     
45df 00        NOP     
45e0 00        NOP     
45e1 00        NOP     
45e2 00        NOP     
45e3 00        NOP     
45e4 00        NOP     
45e5 00        NOP     
45e6 00        NOP     
45e7 00        NOP     
45e8 00        NOP     
45e9 00        NOP     
45ea 00        NOP     
45eb 00        NOP     
45ec 00        NOP     
45ed 00        NOP     
45ee 00        NOP     
45ef 00        NOP     
45f0 00        NOP     
45f1 00        NOP     
45f2 00        NOP     
45f3 00        NOP     
45f4 00        NOP     
45f5 00        NOP     
45f6 00        NOP     
45f7 00        NOP     
45f8 00        NOP     
45f9 00        NOP     
45fa 00        NOP     
45fb 00        NOP     
45fc 00        NOP     
45fd 00        NOP     
45fe 00        NOP     
45ff 00        NOP     
4600 00        NOP     
4601 00        NOP     
4602 00        NOP     
4603 00        NOP     
4604 00        NOP     
4605 00        NOP     
4606 00        NOP     
4607 00        NOP     
4608 00        NOP     
4609 00        NOP     
460a 00        NOP     
460b 00        NOP     
460c 00        NOP     
460d 00        NOP     
460e 00        NOP     
460f 00        NOP     
4610 00        NOP     
4611 00        NOP     
4612 00        NOP     
4613 00        NOP     
4614 00        NOP     
4615 00        NOP     
4616 00        NOP     
4617 00        NOP     
4618 00        NOP     
4619 00        NOP     
461a 00        NOP     
461b 00        NOP     
461c 00        NOP     
461d 00        NOP     
461e 00        NOP     
461f 00        NOP     
4620 00        NOP     
4621 00        NOP     
4622 00        NOP     
4623 00        NOP     
4624 00        NOP     
4625 00        NOP     
4626 00        NOP     
4627 00        NOP     
4628 00        NOP     
4629 00        NOP     
462a 00        NOP     
462b 00        NOP     
462c 00        NOP     
462d 00        NOP     
462e 00        NOP     
462f 00        NOP     
4630 00        NOP     
4631 00        NOP     
4632 00        NOP     
4633 00        NOP     
4634 00        NOP     
4635 00        NOP     
4636 00        NOP     
4637 00        NOP     
4638 00        NOP     
4639 00        NOP     
463a 00        NOP     
463b 00        NOP     
463c 00        NOP     
463d 00        NOP     
463e 00        NOP     
463f 00        NOP     
4640 00        NOP     
4641 00        NOP     
4642 00        NOP     
4643 00        NOP     
4644 00        NOP     
4645 00        NOP     
4646 00        NOP     
4647 00        NOP     
4648 00        NOP     
4649 00        NOP     
464a 00        NOP     
464b 00        NOP     
464c 00        NOP     
464d 00        NOP     
464e 00        NOP     
464f 00        NOP     
4650 00        NOP     
4651 00        NOP     
4652 00        NOP     
4653 00        NOP     
4654 00        NOP     
4655 00        NOP     
4656 00        NOP     
4657 00        NOP     
4658 00        NOP     
4659 00        NOP     
465a 00        NOP     
465b 00        NOP     
465c 00        NOP     
465d 00        NOP     
465e 00        NOP     
465f 00        NOP     
4660 00        NOP     
4661 00        NOP     
4662 00        NOP     
4663 00        NOP     
4664 00        NOP     
4665 00        NOP     
4666 00        NOP     
4667 00        NOP     
4668 00        NOP     
4669 00        NOP     
466a 00        NOP     
466b 00        NOP     
466c 00        NOP     
466d 00        NOP     
466e 00        NOP     
466f 00        NOP     
4670 00        NOP     
4671 00        NOP     
4672 00        NOP     
4673 00        NOP     
4674 00        NOP     
4675 00        NOP     
4676 00        NOP     
4677 00        NOP     
4678 00        NOP     
4679 00        NOP     
467a 00        NOP     
467b 00        NOP     
467c 00        NOP     
467d 00        NOP     
467e 00        NOP     
467f 00        NOP     
4680 00        NOP     
4681 00        NOP     
4682 00        NOP     
4683 00        NOP     
4684 00        NOP     
4685 00        NOP     
4686 00        NOP     
4687 00        NOP     
4688 00        NOP     
4689 00        NOP     
468a 00        NOP     
468b 00        NOP     
468c 00        NOP     
468d 00        NOP     
468e 00        NOP     
468f 00        NOP     
4690 00        NOP     
4691 00        NOP     
4692 00        NOP     
4693 00        NOP     
4694 00        NOP     
4695 00        NOP     
4696 00        NOP     
4697 00        NOP     
4698 00        NOP     
4699 00        NOP     
469a 00        NOP     
469b 00        NOP     
469c 00        NOP     
469d 00        NOP     
469e 00        NOP     
469f 00        NOP     
46a0 00        NOP     
46a1 00        NOP     
46a2 00        NOP     
46a3 00        NOP     
46a4 00        NOP     
46a5 00        NOP     
46a6 00        NOP     
46a7 00        NOP     
46a8 00        NOP     
46a9 00        NOP     
46aa 00        NOP     
46ab 00        NOP     
46ac 00        NOP     
46ad 00        NOP     
46ae 00        NOP     
46af 00        NOP     
46b0 00        NOP     
46b1 00        NOP     
46b2 00        NOP     
46b3 00        NOP     
46b4 00        NOP     
46b5 00        NOP     
46b6 00        NOP     
46b7 00        NOP     
46b8 00        NOP     
46b9 00        NOP     
46ba 00        NOP     
46bb 00        NOP     
46bc 00        NOP     
46bd 00        NOP     
46be 00        NOP     
46bf 00        NOP     
46c0 00        NOP     
46c1 00        NOP     
46c2 00        NOP     
46c3 00        NOP     
46c4 00        NOP     
46c5 00        NOP     
46c6 00        NOP     
46c7 00        NOP     
46c8 00        NOP     
46c9 00        NOP     
46ca 00        NOP     
46cb 00        NOP     
46cc 00        NOP     
46cd 00        NOP     
46ce 00        NOP     
46cf 00        NOP     
46d0 00        NOP     
46d1 00        NOP     
46d2 00        NOP     
46d3 00        NOP     
46d4 00        NOP     
46d5 00        NOP     
46d6 00        NOP     
46d7 00        NOP     
46d8 00        NOP     
46d9 00        NOP     
46da 00        NOP     
46db 00        NOP     
46dc 00        NOP     
46dd 00        NOP     
46de 00        NOP     
46df 00        NOP     
46e0 00        NOP     
46e1 00        NOP     
46e2 00        NOP     
46e3 00        NOP     
46e4 00        NOP     
46e5 00        NOP     
46e6 00        NOP     
46e7 00        NOP     
46e8 00        NOP     
46e9 00        NOP     
46ea 00        NOP     
46eb 00        NOP     
46ec 00        NOP     
46ed 00        NOP     
46ee 00        NOP     
46ef 00        NOP     
46f0 00        NOP     
46f1 00        NOP     
46f2 00        NOP     
46f3 00        NOP     
46f4 00        NOP     
46f5 00        NOP     
46f6 00        NOP     
46f7 00        NOP     
46f8 00        NOP     
46f9 00        NOP     
46fa 00        NOP     
46fb 00        NOP     
46fc 00        NOP     
46fd 00        NOP     
46fe 00        NOP     
46ff 00        NOP     
4700 00        NOP     
4701 00        NOP     
4702 00        NOP     
4703 00        NOP     
4704 00        NOP     
4705 00        NOP     
4706 00        NOP     
4707 00        NOP     
4708 00        NOP     
4709 00        NOP     
470a 00        NOP     
470b 00        NOP     
470c 00        NOP     
470d 00        NOP     
470e 00        NOP     
470f 00        NOP     
4710 00        NOP     
4711 00        NOP     
4712 00        NOP     
4713 00        NOP     
4714 00        NOP     
4715 00        NOP     
4716 00        NOP     
4717 00        NOP     
4718 00        NOP     
4719 00        NOP     
471a 00        NOP     
471b 00        NOP     
471c 00        NOP     
471d 00        NOP     
471e 00        NOP     
471f 00        NOP     
4720 00        NOP     
4721 00        NOP     
4722 00        NOP     
4723 00        NOP     
4724 00        NOP     
4725 00        NOP     
4726 00        NOP     
4727 00        NOP     
4728 00        NOP     
4729 00        NOP     
472a 00        NOP     
472b 00        NOP     
472c 00        NOP     
472d 00        NOP     
472e 00        NOP     
472f 00        NOP     
4730 00        NOP     
4731 00        NOP     
4732 00        NOP     
4733 00        NOP     
4734 00        NOP     
4735 00        NOP     
4736 00        NOP     
4737 00        NOP     
4738 00        NOP     
4739 00        NOP     
473a 00        NOP     
473b 00        NOP     
473c 00        NOP     
473d 00        NOP     
473e 00        NOP     
473f 00        NOP     
4740 00        NOP     
4741 00        NOP     
4742 00        NOP     
4743 00        NOP     
4744 00        NOP     
4745 00        NOP     
4746 00        NOP     
4747 00        NOP     
4748 00        NOP     
4749 00        NOP     
474a 00        NOP     
474b 00        NOP     
474c 00        NOP     
474d 00        NOP     
474e 00        NOP     
474f 00        NOP     
4750 00        NOP     
4751 00        NOP     
4752 00        NOP     
4753 00        NOP     
4754 00        NOP     
4755 00        NOP     
4756 00        NOP     
4757 00        NOP     
4758 00        NOP     
4759 00        NOP     
475a 00        NOP     
475b 00        NOP     
475c 00        NOP     
475d 00        NOP     
475e 00        NOP     
475f 00        NOP     
4760 00        NOP     
4761 00        NOP     
4762 00        NOP     
4763 00        NOP     
4764 00        NOP     
4765 00        NOP     
4766 00        NOP     
4767 00        NOP     
4768 00        NOP     
4769 00        NOP     
476a 00        NOP     
476b 00        NOP     
476c 00        NOP     
476d 00        NOP     
476e 00        NOP     
476f 00        NOP     
4770 00        NOP     
4771 00        NOP     
4772 00        NOP     
4773 00        NOP     
4774 00        NOP     
4775 00        NOP     
4776 00        NOP     
4777 00        NOP     
4778 00        NOP     
4779 00        NOP     
477a 00        NOP     
477b 00        NOP     
477c 00        NOP     
477d 00        NOP     
477e 00        NOP     
477f 00        NOP     
4780 00        NOP     
4781 00        NOP     
4782 00        NOP     
4783 00        NOP     
4784 00        NOP     
4785 00        NOP     
4786 00        NOP     
4787 00        NOP     
4788 00        NOP     
4789 00        NOP     
478a 00        NOP     
478b 00        NOP     
478c 00        NOP     
478d 00        NOP     
478e 00        NOP     
478f 00        NOP     
4790 00        NOP     
4791 00        NOP     
4792 00        NOP     
4793 00        NOP     
4794 00        NOP     
4795 00        NOP     
4796 00        NOP     
4797 00        NOP     
4798 00        NOP     
4799 00        NOP     
479a 00        NOP     
479b 00        NOP     
479c 00        NOP     
479d 00        NOP     
479e 00        NOP     
479f 00        NOP     
47a0 00        NOP     
47a1 00        NOP     
47a2 00        NOP     
47a3 00        NOP     
47a4 00        NOP     
47a5 00        NOP     
47a6 00        NOP     
47a7 00        NOP     
47a8 00        NOP     
47a9 00        NOP     
47aa 00        NOP     
47ab 00        NOP     
47ac 00        NOP     
47ad 00        NOP     
47ae 00        NOP     
47af 00        NOP     
47b0 00        NOP     
47b1 00        NOP     
47b2 00        NOP     
47b3 00        NOP     
47b4 00        NOP     
47b5 00        NOP     
47b6 00        NOP     
47b7 00        NOP     
47b8 00        NOP     
47b9 00        NOP     
47ba 00        NOP     
47bb 00        NOP     
47bc 00        NOP     
47bd 00        NOP     
47be 00        NOP     
47bf 00        NOP     
47c0 00        NOP     
47c1 00        NOP     
47c2 00        NOP     
47c3 00        NOP     
47c4 00        NOP     
47c5 00        NOP     
47c6 00        NOP     
47c7 00        NOP     
47c8 00        NOP     
47c9 00        NOP     
47ca 00        NOP     
47cb 00        NOP     
47cc 00        NOP     
47cd 00        NOP     
47ce 00        NOP     
47cf 00        NOP     
47d0 00        NOP     
47d1 00        NOP     
47d2 00        NOP     
47d3 00        NOP     
47d4 00        NOP     
47d5 00        NOP     
47d6 00        NOP     
47d7 00        NOP     
47d8 00        NOP     
47d9 00        NOP     
47da 00        NOP     
47db 00        NOP     
47dc 00        NOP     
47dd 00        NOP     
47de 00        NOP     
47df 00        NOP     
47e0 00        NOP     
47e1 00        NOP     
47e2 00        NOP     
47e3 00        NOP     
47e4 00        NOP     
47e5 00        NOP     
47e6 00        NOP     
47e7 00        NOP     
47e8 00        NOP     
47e9 00        NOP     
47ea 00        NOP     
47eb 00        NOP     
47ec 00        NOP     
47ed 00        NOP     
47ee 00        NOP     
47ef 00        NOP     
47f0 00        NOP     
47f1 00        NOP     
47f2 00        NOP     
47f3 00        NOP     
47f4 00        NOP     
47f5 00        NOP     
47f6 00        NOP     
47f7 00        NOP     
47f8 00        NOP     
47f9 00        NOP     
47fa 00        NOP     
47fb 00        NOP     
47fc 00        NOP     
47fd 00        NOP     
47fe 00        NOP     
47ff 00        NOP     
4800 00        NOP     
4801 00        NOP     
4802 00        NOP     
4803 00        NOP     
4804 00        NOP     
4805 00        NOP     
4806 00        NOP     
4807 00        NOP     
4808 00        NOP     
4809 00        NOP     
480a 00        NOP     
480b 00        NOP     
480c 00        NOP     
480d 00        NOP     
480e 00        NOP     
480f 00        NOP     
4810 00        NOP     
4811 00        NOP     
4812 00        NOP     
4813 00        NOP     
4814 00        NOP     
4815 00        NOP     
4816 00        NOP     
4817 00        NOP     
4818 00        NOP     
4819 00        NOP     
481a 00        NOP     
481b 00        NOP     
481c 00        NOP     
481d 00        NOP     
481e 00        NOP     
481f 00        NOP     
4820 00        NOP     
4821 00        NOP     
4822 00        NOP     
4823 00        NOP     
4824 00        NOP     
4825 00        NOP     
4826 00        NOP     
4827 00        NOP     
4828 00        NOP     
4829 00        NOP     
482a 00        NOP     
482b 00        NOP     
482c 00        NOP     
482d 00        NOP     
482e 00        NOP     
482f 00        NOP     
4830 00        NOP     
4831 00        NOP     
4832 00        NOP     
4833 00        NOP     
4834 00        NOP     
4835 00        NOP     
4836 00        NOP     
4837 00        NOP     
4838 00        NOP     
4839 00        NOP     
483a 00        NOP     
483b 00        NOP     
483c 00        NOP     
483d 00        NOP     
483e 00        NOP     
483f 00        NOP     
4840 00        NOP     
4841 00        NOP     
4842 00        NOP     
4843 00        NOP     
4844 00        NOP     
4845 00        NOP     
4846 00        NOP     
4847 00        NOP     
4848 00        NOP     
4849 00        NOP     
484a 00        NOP     
484b 00        NOP     
484c 00        NOP     
484d 00        NOP     
484e 00        NOP     
484f 00        NOP     
4850 00        NOP     
4851 00        NOP     
4852 00        NOP     
4853 00        NOP     
4854 00        NOP     
4855 00        NOP     
4856 00        NOP     
4857 00        NOP     
4858 00        NOP     
4859 00        NOP     
485a 00        NOP     
485b 00        NOP     
485c 00        NOP     
485d 00        NOP     
485e 00        NOP     
485f 00        NOP     
4860 00        NOP     
4861 00        NOP     
4862 00        NOP     
4863 00        NOP     
4864 00        NOP     
4865 00        NOP     
4866 00        NOP     
4867 00        NOP     
4868 00        NOP     
4869 00        NOP     
486a 00        NOP     
486b 00        NOP     
486c 00        NOP     
486d 00        NOP     
486e 00        NOP     
486f 00        NOP     
4870 00        NOP     
4871 00        NOP     
4872 00        NOP     
4873 00        NOP     
4874 00        NOP     
4875 00        NOP     
4876 00        NOP     
4877 00        NOP     
4878 00        NOP     
4879 00        NOP     
487a 00        NOP     
487b 00        NOP     
487c 00        NOP     
487d 00        NOP     
487e 00        NOP     
487f 00        NOP     
4880 00        NOP     
4881 00        NOP     
4882 00        NOP     
4883 00        NOP     
4884 00        NOP     
4885 00        NOP     
4886 00        NOP     
4887 00        NOP     
4888 00        NOP     
4889 00        NOP     
488a 00        NOP     
488b 00        NOP     
488c 00        NOP     
488d 00        NOP     
488e 00        NOP     
488f 00        NOP     
4890 00        NOP     
4891 00        NOP     
4892 00        NOP     
4893 00        NOP     
4894 00        NOP     
4895 00        NOP     
4896 00        NOP     
4897 00        NOP     
4898 00        NOP     
4899 00        NOP     
489a 00        NOP     
489b 00        NOP     
489c 00        NOP     
489d 00        NOP     
489e 00        NOP     
489f 00        NOP     
48a0 00        NOP     
48a1 00        NOP     
48a2 00        NOP     
48a3 00        NOP     
48a4 00        NOP     
48a5 00        NOP     
48a6 00        NOP     
48a7 00        NOP     
48a8 00        NOP     
48a9 00        NOP     
48aa 00        NOP     
48ab 00        NOP     
48ac 00        NOP     
48ad 00        NOP     
48ae 00        NOP     
48af 00        NOP     
48b0 00        NOP     
48b1 00        NOP     
48b2 00        NOP     
48b3 00        NOP     
48b4 00        NOP     
48b5 00        NOP     
48b6 00        NOP     
48b7 00        NOP     
48b8 00        NOP     
48b9 00        NOP     
48ba 00        NOP     
48bb 00        NOP     
48bc 00        NOP     
48bd 00        NOP     
48be 00        NOP     
48bf 00        NOP     
48c0 00        NOP     
48c1 00        NOP     
48c2 00        NOP     
48c3 00        NOP     
48c4 00        NOP     
48c5 00        NOP     
48c6 00        NOP     
48c7 00        NOP     
48c8 00        NOP     
48c9 00        NOP     
48ca 00        NOP     
48cb 00        NOP     
48cc 00        NOP     
48cd 00        NOP     
48ce 00        NOP     
48cf 00        NOP     
48d0 00        NOP     
48d1 00        NOP     
48d2 00        NOP     
48d3 00        NOP     
48d4 00        NOP     
48d5 00        NOP     
48d6 00        NOP     
48d7 00        NOP     
48d8 00        NOP     
48d9 00        NOP     
48da 00        NOP     
48db 00        NOP     
48dc 00        NOP     
48dd 00        NOP     
48de 00        NOP     
48df 00        NOP     
48e0 00        NOP     
48e1 00        NOP     
48e2 00        NOP     
48e3 00        NOP     
48e4 00        NOP     
48e5 00        NOP     
48e6 00        NOP     
48e7 00        NOP     
48e8 00        NOP     
48e9 00        NOP     
48ea 00        NOP     
48eb 00        NOP     
48ec 00        NOP     
48ed 00        NOP     
48ee 00        NOP     
48ef 00        NOP     
48f0 00        NOP     
48f1 00        NOP     
48f2 00        NOP     
48f3 00        NOP     
48f4 00        NOP     
48f5 00        NOP     
48f6 00        NOP     
48f7 00        NOP     
48f8 00        NOP     
48f9 00        NOP     
48fa 00        NOP     
48fb 00        NOP     
48fc 00        NOP     
48fd 00        NOP     
48fe 00        NOP     
48ff 00        NOP     
4900 00        NOP     
4901 00        NOP     
4902 00        NOP     
4903 00        NOP     
4904 00        NOP     
4905 00        NOP     
4906 00        NOP     
4907 00        NOP     
4908 00        NOP     
4909 00        NOP     
490a 00        NOP     
490b 00        NOP     
490c 00        NOP     
490d 00        NOP     
490e 00        NOP     
490f 00        NOP     
4910 00        NOP     
4911 00        NOP     
4912 00        NOP     
4913 00        NOP     
4914 00        NOP     
4915 00        NOP     
4916 00        NOP     
4917 00        NOP     
4918 00        NOP     
4919 00        NOP     
491a 00        NOP     
491b 00        NOP     
491c 00        NOP     
491d 00        NOP     
491e 00        NOP     
491f 00        NOP     
4920 00        NOP     
4921 00        NOP     
4922 00        NOP     
4923 00        NOP     
4924 00        NOP     
4925 00        NOP     
4926 00        NOP     
4927 00        NOP     
4928 00        NOP     
4929 00        NOP     
492a 00        NOP     
492b 00        NOP     
492c 00        NOP     
492d 00        NOP     
492e 00        NOP     
492f 00        NOP     
4930 00        NOP     
4931 00        NOP     
4932 00        NOP     
4933 00        NOP     
4934 00        NOP     
4935 00        NOP     
4936 00        NOP     
4937 00        NOP     
4938 00        NOP     
4939 00        NOP     
493a 00        NOP     
493b 00        NOP     
493c 00        NOP     
493d 00        NOP     
493e 00        NOP     
493f 00        NOP     
4940 00        NOP     
4941 00        NOP     
4942 00        NOP     
4943 00        NOP     
4944 00        NOP     
4945 00        NOP     
4946 00        NOP     
4947 00        NOP     
4948 00        NOP     
4949 00        NOP     
494a 00        NOP     
494b 00        NOP     
494c 00        NOP     
494d 00        NOP     
494e 00        NOP     
494f 00        NOP     
4950 00        NOP     
4951 00        NOP     
4952 00        NOP     
4953 00        NOP     
4954 00        NOP     
4955 00        NOP     
4956 00        NOP     
4957 00        NOP     
4958 00        NOP     
4959 00        NOP     
495a 00        NOP     
495b 00        NOP     
495c 00        NOP     
495d 00        NOP     
495e 00        NOP     
495f 00        NOP     
4960 00        NOP     
4961 00        NOP     
4962 00        NOP     
4963 00        NOP     
4964 00        NOP     
4965 00        NOP     
4966 00        NOP     
4967 00        NOP     
4968 00        NOP     
4969 00        NOP     
496a 00        NOP     
496b 00        NOP     
496c 00        NOP     
496d 00        NOP     
496e 00        NOP     
496f 00        NOP     
4970 00        NOP     
4971 00        NOP     
4972 00        NOP     
4973 00        NOP     
4974 00        NOP     
4975 00        NOP     
4976 00        NOP     
4977 00        NOP     
4978 00        NOP     
4979 00        NOP     
497a 00        NOP     
497b 00        NOP     
497c 00        NOP     
497d 00        NOP     
497e 00        NOP     
497f 00        NOP     
4980 00        NOP     
4981 00        NOP     
4982 00        NOP     
4983 00        NOP     
4984 00        NOP     
4985 00        NOP     
4986 00        NOP     
4987 00        NOP     
4988 00        NOP     
4989 00        NOP     
498a 00        NOP     
498b 00        NOP     
498c 00        NOP     
498d 00        NOP     
498e 00        NOP     
498f 00        NOP     
4990 00        NOP     
4991 00        NOP     
4992 00        NOP     
4993 00        NOP     
4994 00        NOP     
4995 00        NOP     
4996 00        NOP     
4997 00        NOP     
4998 00        NOP     
4999 00        NOP     
499a 00        NOP     
499b 00        NOP     
499c 00        NOP     
499d 00        NOP     
499e 00        NOP     
499f 00        NOP     
49a0 00        NOP     
49a1 00        NOP     
49a2 00        NOP     
49a3 00        NOP     
49a4 00        NOP     
49a5 00        NOP     
49a6 00        NOP     
49a7 00        NOP     
49a8 00        NOP     
49a9 00        NOP     
49aa 00        NOP     
49ab 00        NOP     
49ac 00        NOP     
49ad 00        NOP     
49ae 00        NOP     
49af 00        NOP     
49b0 00        NOP     
49b1 00        NOP     
49b2 00        NOP     
49b3 00        NOP     
49b4 00        NOP     
49b5 00        NOP     
49b6 00        NOP     
49b7 00        NOP     
49b8 00        NOP     
49b9 00        NOP     
49ba 00        NOP     
49bb 00        NOP     
49bc 00        NOP     
49bd 00        NOP     
49be 00        NOP     
49bf 00        NOP     
49c0 00        NOP     
49c1 00        NOP     
49c2 00        NOP     
49c3 00        NOP     
49c4 00        NOP     
49c5 00        NOP     
49c6 00        NOP     
49c7 00        NOP     
49c8 00        NOP     
49c9 00        NOP     
49ca 00        NOP     
49cb 00        NOP     
49cc 00        NOP     
49cd 00        NOP     
49ce 00        NOP     
49cf 00        NOP     
49d0 00        NOP     
49d1 00        NOP     
49d2 00        NOP     
49d3 00        NOP     
49d4 00        NOP     
49d5 00        NOP     
49d6 00        NOP     
49d7 00        NOP     
49d8 00        NOP     
49d9 00        NOP     
49da 00        NOP     
49db 00        NOP     
49dc 00        NOP     
49dd 00        NOP     
49de 00        NOP     
49df 00        NOP     
49e0 00        NOP     
49e1 00        NOP     
49e2 00        NOP     
49e3 00        NOP     
49e4 00        NOP     
49e5 00        NOP     
49e6 00        NOP     
49e7 00        NOP     
49e8 00        NOP     
49e9 00        NOP     
49ea 00        NOP     
49eb 00        NOP     
49ec 00        NOP     
49ed 00        NOP     
49ee 00        NOP     
49ef 00        NOP     
49f0 00        NOP     
49f1 00        NOP     
49f2 00        NOP     
49f3 00        NOP     
49f4 00        NOP     
49f5 00        NOP     
49f6 00        NOP     
49f7 00        NOP     
49f8 00        NOP     
49f9 00        NOP     
49fa 00        NOP     
49fb 00        NOP     
49fc 00        NOP     
49fd 00        NOP     
49fe 00        NOP     
49ff 00        NOP     
4a00 00        NOP     
4a01 00        NOP     
4a02 00        NOP     
4a03 00        NOP     
4a04 00        NOP     
4a05 00        NOP     
4a06 00        NOP     
4a07 00        NOP     
4a08 00        NOP     
4a09 00        NOP     
4a0a 00        NOP     
4a0b 00        NOP     
4a0c 00        NOP     
4a0d 00        NOP     
4a0e 00        NOP     
4a0f 00        NOP     
4a10 00        NOP     
4a11 00        NOP     
4a12 00        NOP     
4a13 00        NOP     
4a14 00        NOP     
4a15 00        NOP     
4a16 00        NOP     
4a17 00        NOP     
4a18 00        NOP     
4a19 00        NOP     
4a1a 00        NOP     
4a1b 00        NOP     
4a1c 00        NOP     
4a1d 00        NOP     
4a1e 00        NOP     
4a1f 00        NOP     
4a20 00        NOP     
4a21 00        NOP     
4a22 00        NOP     
4a23 00        NOP     
4a24 00        NOP     
4a25 00        NOP     
4a26 00        NOP     
4a27 00        NOP     
4a28 00        NOP     
4a29 00        NOP     
4a2a 00        NOP     
4a2b 00        NOP     
4a2c 00        NOP     
4a2d 00        NOP     
4a2e 00        NOP     
4a2f 00        NOP     
4a30 00        NOP     
4a31 00        NOP     
4a32 00        NOP     
4a33 00        NOP     
4a34 00        NOP     
4a35 00        NOP     
4a36 00        NOP     
4a37 00        NOP     
4a38 00        NOP     
4a39 00        NOP     
4a3a 00        NOP     
4a3b 00        NOP     
4a3c 00        NOP     
4a3d 00        NOP     
4a3e 00        NOP     
4a3f 00        NOP     
4a40 00        NOP     
4a41 00        NOP     
4a42 00        NOP     
4a43 00        NOP     
4a44 00        NOP     
4a45 00        NOP     
4a46 00        NOP     
4a47 00        NOP     
4a48 00        NOP     
4a49 00        NOP     
4a4a 00        NOP     
4a4b 00        NOP     
4a4c 00        NOP     
4a4d 00        NOP     
4a4e 00        NOP     
4a4f 00        NOP     
4a50 00        NOP     
4a51 00        NOP     
4a52 00        NOP     
4a53 00        NOP     
4a54 00        NOP     
4a55 00        NOP     
4a56 00        NOP     
4a57 00        NOP     
4a58 00        NOP     
4a59 00        NOP     
4a5a 00        NOP     
4a5b 00        NOP     
4a5c 00        NOP     
4a5d 00        NOP     
4a5e 00        NOP     
4a5f 00        NOP     
4a60 00        NOP     
4a61 00        NOP     
4a62 00        NOP     
4a63 00        NOP     
4a64 00        NOP     
4a65 00        NOP     
4a66 00        NOP     
4a67 00        NOP     
4a68 00        NOP     
4a69 00        NOP     
4a6a 00        NOP     
4a6b 00        NOP     
4a6c 00        NOP     
4a6d 00        NOP     
4a6e 00        NOP     
4a6f 00        NOP     
4a70 00        NOP     
4a71 00        NOP     
4a72 00        NOP     
4a73 00        NOP     
4a74 00        NOP     
4a75 00        NOP     
4a76 00        NOP     
4a77 00        NOP     
4a78 00        NOP     
4a79 00        NOP     
4a7a 00        NOP     
4a7b 00        NOP     
4a7c 00        NOP     
4a7d 00        NOP     
4a7e 00        NOP     
4a7f 00        NOP     
4a80 00        NOP     
4a81 00        NOP     
4a82 00        NOP     
4a83 00        NOP     
4a84 00        NOP     
4a85 00        NOP     
4a86 00        NOP     
4a87 00        NOP     
4a88 00        NOP     
4a89 00        NOP     
4a8a 00        NOP     
4a8b 00        NOP     
4a8c 00        NOP     
4a8d 00        NOP     
4a8e 00        NOP     
4a8f 00        NOP     
4a90 00        NOP     
4a91 00        NOP     
4a92 00        NOP     
4a93 00        NOP     
4a94 00        NOP     
4a95 00        NOP     
4a96 00        NOP     
4a97 00        NOP     
4a98 00        NOP     
4a99 00        NOP     
4a9a 00        NOP     
4a9b 00        NOP     
4a9c 00        NOP     
4a9d 00        NOP     
4a9e 00        NOP     
4a9f 00        NOP     
4aa0 00        NOP     
4aa1 00        NOP     
4aa2 00        NOP     
4aa3 00        NOP     
4aa4 00        NOP     
4aa5 00        NOP     
4aa6 00        NOP     
4aa7 00        NOP     
4aa8 00        NOP     
4aa9 00        NOP     
4aaa 00        NOP     
4aab 00        NOP     
4aac 00        NOP     
4aad 00        NOP     
4aae 00        NOP     
4aaf 00        NOP     
4ab0 00        NOP     
4ab1 00        NOP     
4ab2 00        NOP     
4ab3 00        NOP     
4ab4 00        NOP     
4ab5 00        NOP     
4ab6 00        NOP     
4ab7 00        NOP     
4ab8 00        NOP     
4ab9 00        NOP     
4aba 00        NOP     
4abb 00        NOP     
4abc 00        NOP     
4abd 00        NOP     
4abe 00        NOP     
4abf 00        NOP     
4ac0 00        NOP     
4ac1 00        NOP     
4ac2 00        NOP     
4ac3 00        NOP     
4ac4 00        NOP     
4ac5 00        NOP     
4ac6 00        NOP     
4ac7 00        NOP     
4ac8 00        NOP     
4ac9 00        NOP     
4aca 00        NOP     
4acb 00        NOP     
4acc 00        NOP     
4acd 00        NOP     
4ace 00        NOP     
4acf 00        NOP     
4ad0 00        NOP     
4ad1 00        NOP     
4ad2 00        NOP     
4ad3 00        NOP     
4ad4 00        NOP     
4ad5 00        NOP     
4ad6 00        NOP     
4ad7 00        NOP     
4ad8 00        NOP     
4ad9 00        NOP     
4ada 00        NOP     
4adb 00        NOP     
4adc 00        NOP     
4add 00        NOP     
4ade 00        NOP     
4adf 00        NOP     
4ae0 00        NOP     
4ae1 00        NOP     
4ae2 00        NOP     
4ae3 00        NOP     
4ae4 00        NOP     
4ae5 00        NOP     
4ae6 00        NOP     
4ae7 00        NOP     
4ae8 00        NOP     
4ae9 00        NOP     
4aea 00        NOP     
4aeb 00        NOP     
4aec 00        NOP     
4aed 00        NOP     
4aee 00        NOP     
4aef 00        NOP     
4af0 00        NOP     
4af1 00        NOP     
4af2 00        NOP     
4af3 00        NOP     
4af4 00        NOP     
4af5 00        NOP     
4af6 00        NOP     
4af7 00        NOP     
4af8 00        NOP     
4af9 00        NOP     
4afa 00        NOP     
4afb 00        NOP     
4afc 00        NOP     
4afd 00        NOP     
4afe 00        NOP     
4aff 00        NOP     
4b00 00        NOP     
4b01 00        NOP     
4b02 00        NOP     
4b03 00        NOP     
4b04 00        NOP     
4b05 00        NOP     
4b06 00        NOP     
4b07 00        NOP     
4b08 00        NOP     
4b09 00        NOP     
4b0a 00        NOP     
4b0b 00        NOP     
4b0c 00        NOP     
4b0d 00        NOP     
4b0e 00        NOP     
4b0f 00        NOP     
4b10 00        NOP     
4b11 00        NOP     
4b12 00        NOP     
4b13 00        NOP     
4b14 00        NOP     
4b15 00        NOP     
4b16 00        NOP     
4b17 00        NOP     
4b18 00        NOP     
4b19 00        NOP     
4b1a 00        NOP     
4b1b 00        NOP     
4b1c 00        NOP     
4b1d 00        NOP     
4b1e 00        NOP     
4b1f 00        NOP     
4b20 00        NOP     
4b21 00        NOP     
4b22 00        NOP     
4b23 00        NOP     
4b24 00        NOP     
4b25 00        NOP     
4b26 00        NOP     
4b27 00        NOP     
4b28 00        NOP     
4b29 00        NOP     
4b2a 00        NOP     
4b2b 00        NOP     
4b2c 00        NOP     
4b2d 00        NOP     
4b2e 00        NOP     
4b2f 00        NOP     
4b30 00        NOP     
4b31 00        NOP     
4b32 00        NOP     
4b33 00        NOP     
4b34 00        NOP     
4b35 00        NOP     
4b36 00        NOP     
4b37 00        NOP     
4b38 00        NOP     
4b39 00        NOP     
4b3a 00        NOP     
4b3b 00        NOP     
4b3c 00        NOP     
4b3d 00        NOP     
4b3e 00        NOP     
4b3f 00        NOP     
4b40 00        NOP     
4b41 00        NOP     
4b42 00        NOP     
4b43 00        NOP     
4b44 00        NOP     
4b45 00        NOP     
4b46 00        NOP     
4b47 00        NOP     
4b48 00        NOP     
4b49 00        NOP     
4b4a 00        NOP     
4b4b 00        NOP     
4b4c 00        NOP     
4b4d 00        NOP     
4b4e 00        NOP     
4b4f 00        NOP     
4b50 00        NOP     
4b51 00        NOP     
4b52 00        NOP     
4b53 00        NOP     
4b54 00        NOP     
4b55 00        NOP     
4b56 00        NOP     
4b57 00        NOP     
4b58 00        NOP     
4b59 00        NOP     
4b5a 00        NOP     
4b5b 00        NOP     
4b5c 00        NOP     
4b5d 00        NOP     
4b5e 00        NOP     
4b5f 00        NOP     
4b60 00        NOP     
4b61 00        NOP     
4b62 00        NOP     
4b63 00        NOP     
4b64 00        NOP     
4b65 00        NOP     
4b66 00        NOP     
4b67 00        NOP     
4b68 00        NOP     
4b69 00        NOP     
4b6a 00        NOP     
4b6b 00        NOP     
4b6c 00        NOP     
4b6d 00        NOP     
4b6e 00        NOP     
4b6f 00        NOP     
4b70 00        NOP     
4b71 00        NOP     
4b72 00        NOP     
4b73 00        NOP     
4b74 00        NOP     
4b75 00        NOP     
4b76 00        NOP     
4b77 00        NOP     
4b78 00        NOP     
4b79 00        NOP     
4b7a 00        NOP     
4b7b 00        NOP     
4b7c 00        NOP     
4b7d 00        NOP     
4b7e 00        NOP     
4b7f 00        NOP     
4b80 00        NOP     
4b81 00        NOP     
4b82 00        NOP     
4b83 00        NOP     
4b84 00        NOP     
4b85 00        NOP     
4b86 00        NOP     
4b87 00        NOP     
4b88 00        NOP     
4b89 00        NOP     
4b8a 00        NOP     
4b8b 00        NOP     
4b8c 00        NOP     
4b8d 00        NOP     
4b8e 00        NOP     
4b8f 00        NOP     
4b90 00        NOP     
4b91 00        NOP     
4b92 00        NOP     
4b93 00        NOP     
4b94 00        NOP     
4b95 00        NOP     
4b96 00        NOP     
4b97 00        NOP     
4b98 00        NOP     
4b99 00        NOP     
4b9a 00        NOP     
4b9b 00        NOP     
4b9c 00        NOP     
4b9d 00        NOP     
4b9e 00        NOP     
4b9f 00        NOP     
4ba0 00        NOP     
4ba1 00        NOP     
4ba2 00        NOP     
4ba3 00        NOP     
4ba4 00        NOP     
4ba5 00        NOP     
4ba6 00        NOP     
4ba7 00        NOP     
4ba8 00        NOP     
4ba9 00        NOP     
4baa 00        NOP     
4bab 00        NOP     
4bac 00        NOP     
4bad 00        NOP     
4bae 00        NOP     
4baf 00        NOP     
4bb0 00        NOP     
4bb1 00        NOP     
4bb2 00        NOP     
4bb3 00        NOP     
4bb4 00        NOP     
4bb5 00        NOP     
4bb6 00        NOP     
4bb7 00        NOP     
4bb8 00        NOP     
4bb9 00        NOP     
4bba 00        NOP     
4bbb 00        NOP     
4bbc 00        NOP     
4bbd 00        NOP     
4bbe 00        NOP     
4bbf 00        NOP     
4bc0 00        NOP     
4bc1 00        NOP     
4bc2 00        NOP     
4bc3 00        NOP     
4bc4 00        NOP     
4bc5 00        NOP     
4bc6 00        NOP     
4bc7 00        NOP     
4bc8 00        NOP     
4bc9 00        NOP     
4bca 00        NOP     
4bcb 00        NOP     
4bcc 00        NOP     
4bcd 00        NOP     
4bce 00        NOP     
4bcf 00        NOP     
4bd0 00        NOP     
4bd1 00        NOP     
4bd2 00        NOP     
4bd3 00        NOP     
4bd4 00        NOP     
4bd5 00        NOP     
4bd6 00        NOP     
4bd7 00        NOP     
4bd8 00        NOP     
4bd9 00        NOP     
4bda 00        NOP     
4bdb 00        NOP     
4bdc 00        NOP     
4bdd 00        NOP     
4bde 00        NOP     
4bdf 00        NOP     
4be0 00        NOP     
4be1 00        NOP     
4be2 00        NOP     
4be3 00        NOP     
4be4 00        NOP     
4be5 00        NOP     
4be6 00        NOP     
4be7 00        NOP     
4be8 00        NOP     
4be9 00        NOP     
4bea 00        NOP     
4beb 00        NOP     
4bec 00        NOP     
4bed 00        NOP     
4bee 00        NOP     
4bef 00        NOP     
4bf0 00        NOP     
4bf1 00        NOP     
4bf2 00        NOP     
4bf3 00        NOP     
4bf4 00        NOP     
4bf5 00        NOP     
4bf6 00        NOP     
4bf7 00        NOP     
4bf8 00        NOP     
4bf9 00        NOP     
4bfa 00        NOP     
4bfb 00        NOP     
4bfc 00        NOP     
4bfd 00        NOP     
4bfe 00        NOP     
4bff 00        NOP     
4c00 00        NOP     
4c01 00        NOP     
4c02 00        NOP     
4c03 00        NOP     
4c04 00        NOP     
4c05 00        NOP     
4c06 00        NOP     
4c07 00        NOP     
4c08 00        NOP     
4c09 00        NOP     
4c0a 00        NOP     
4c0b 00        NOP     
4c0c 00        NOP     
4c0d 00        NOP     
4c0e 00        NOP     
4c0f 00        NOP     
4c10 00        NOP     
4c11 00        NOP     
4c12 00        NOP     
4c13 00        NOP     
4c14 00        NOP     
4c15 00        NOP     
4c16 00        NOP     
4c17 00        NOP     
4c18 00        NOP     
4c19 00        NOP     
4c1a 00        NOP     
4c1b 00        NOP     
4c1c 00        NOP     
4c1d 00        NOP     
4c1e 00        NOP     
4c1f 00        NOP     
4c20 00        NOP     
4c21 00        NOP     
4c22 00        NOP     
4c23 00        NOP     
4c24 00        NOP     
4c25 00        NOP     
4c26 00        NOP     
4c27 00        NOP     
4c28 00        NOP     
4c29 00        NOP     
4c2a 00        NOP     
4c2b 00        NOP     
4c2c 00        NOP     
4c2d 00        NOP     
4c2e 00        NOP     
4c2f 00        NOP     
4c30 00        NOP     
4c31 00        NOP     
4c32 00        NOP     
4c33 00        NOP     
4c34 00        NOP     
4c35 00        NOP     
4c36 00        NOP     
4c37 00        NOP     
4c38 00        NOP     
4c39 00        NOP     
4c3a 00        NOP     
4c3b 00        NOP     
4c3c 00        NOP     
4c3d 00        NOP     
4c3e 00        NOP     
4c3f 00        NOP     
4c40 00        NOP     
4c41 00        NOP     
4c42 00        NOP     
4c43 00        NOP     
4c44 00        NOP     
4c45 00        NOP     
4c46 00        NOP     
4c47 00        NOP     
4c48 00        NOP     
4c49 00        NOP     
4c4a 00        NOP     
4c4b 00        NOP     
4c4c 00        NOP     
4c4d 00        NOP     
4c4e 00        NOP     
4c4f 00        NOP     
4c50 00        NOP     
4c51 00        NOP     
4c52 00        NOP     
4c53 00        NOP     
4c54 00        NOP     
4c55 00        NOP     
4c56 00        NOP     
4c57 00        NOP     
4c58 00        NOP     
4c59 00        NOP     
4c5a 00        NOP     
4c5b 00        NOP     
4c5c 00        NOP     
4c5d 00        NOP     
4c5e 00        NOP     
4c5f 00        NOP     
4c60 00        NOP     
4c61 00        NOP     
4c62 00        NOP     
4c63 00        NOP     
4c64 00        NOP     
4c65 00        NOP     
4c66 00        NOP     
4c67 00        NOP     
4c68 00        NOP     
4c69 00        NOP     
4c6a 00        NOP     
4c6b 00        NOP     
4c6c 00        NOP     
4c6d 00        NOP     
4c6e 00        NOP     
4c6f 00        NOP     
4c70 00        NOP     
4c71 00        NOP     
4c72 00        NOP     
4c73 00        NOP     
4c74 00        NOP     
4c75 00        NOP     
4c76 00        NOP     
4c77 00        NOP     
4c78 00        NOP     
4c79 00        NOP     
4c7a 00        NOP     
4c7b 00        NOP     
4c7c 00        NOP     
4c7d 00        NOP     
4c7e 00        NOP     
4c7f 00        NOP     
4c80 00        NOP     
4c81 00        NOP     
4c82 00        NOP     
4c83 00        NOP     
4c84 00        NOP     
4c85 00        NOP     
4c86 00        NOP     
4c87 00        NOP     
4c88 00        NOP     
4c89 00        NOP     
4c8a 00        NOP     
4c8b 00        NOP     
4c8c 00        NOP     
4c8d 00        NOP     
4c8e 00        NOP     
4c8f 00        NOP     
4c90 00        NOP     
4c91 00        NOP     
4c92 00        NOP     
4c93 00        NOP     
4c94 00        NOP     
4c95 00        NOP     
4c96 00        NOP     
4c97 00        NOP     
4c98 00        NOP     
4c99 00        NOP     
4c9a 00        NOP     
4c9b 00        NOP     
4c9c 00        NOP     
4c9d 00        NOP     
4c9e 00        NOP     
4c9f 00        NOP     
4ca0 00        NOP     
4ca1 00        NOP     
4ca2 00        NOP     
4ca3 00        NOP     
4ca4 00        NOP     
4ca5 00        NOP     
4ca6 00        NOP     
4ca7 00        NOP     
4ca8 00        NOP     
4ca9 00        NOP     
4caa 00        NOP     
4cab 00        NOP     
4cac 00        NOP     
4cad 00        NOP     
4cae 00        NOP     
4caf 00        NOP     
4cb0 00        NOP     
4cb1 00        NOP     
4cb2 00        NOP     
4cb3 00        NOP     
4cb4 00        NOP     
4cb5 00        NOP     
4cb6 00        NOP     
4cb7 00        NOP     
4cb8 00        NOP     
4cb9 00        NOP     
4cba 00        NOP     
4cbb 00        NOP     
4cbc 00        NOP     
4cbd 00        NOP     
4cbe 00        NOP     
4cbf 00        NOP     
4cc0 00        NOP     
4cc1 00        NOP     
4cc2 00        NOP     
4cc3 00        NOP     
4cc4 00        NOP     
4cc5 00        NOP     
4cc6 00        NOP     
4cc7 00        NOP     
4cc8 00        NOP     
4cc9 00        NOP     
4cca 00        NOP     
4ccb 00        NOP     
4ccc 00        NOP     
4ccd 00        NOP     
4cce 00        NOP     
4ccf 00        NOP     
4cd0 00        NOP     
4cd1 00        NOP     
4cd2 00        NOP     
4cd3 00        NOP     
4cd4 00        NOP     
4cd5 00        NOP     
4cd6 00        NOP     
4cd7 00        NOP     
4cd8 00        NOP     
4cd9 00        NOP     
4cda 00        NOP     
4cdb 00        NOP     
4cdc 00        NOP     
4cdd 00        NOP     
4cde 00        NOP     
4cdf 00        NOP     
4ce0 00        NOP     
4ce1 00        NOP     
4ce2 00        NOP     
4ce3 00        NOP     
4ce4 00        NOP     
4ce5 00        NOP     
4ce6 00        NOP     
4ce7 00        NOP     
4ce8 00        NOP     
4ce9 00        NOP     
4cea 00        NOP     
4ceb 00        NOP     
4cec 00        NOP     
4ced 00        NOP     
4cee 00        NOP     
4cef 00        NOP     
4cf0 00        NOP     
4cf1 00        NOP     
4cf2 00        NOP     
4cf3 00        NOP     
4cf4 00        NOP     
4cf5 00        NOP     
4cf6 00        NOP     
4cf7 00        NOP     
4cf8 00        NOP     
4cf9 00        NOP     
4cfa 00        NOP     
4cfb 00        NOP     
4cfc 00        NOP     
4cfd 00        NOP     
4cfe 00        NOP     
4cff 00        NOP     
4d00 00        NOP     
4d01 00        NOP     
4d02 00        NOP     
4d03 00        NOP     
4d04 00        NOP     
4d05 00        NOP     
4d06 00        NOP     
4d07 00        NOP     
4d08 00        NOP     
4d09 00        NOP     
4d0a 00        NOP     
4d0b 00        NOP     
4d0c 00        NOP     
4d0d 00        NOP     
4d0e 00        NOP     
4d0f 00        NOP     
4d10 00        NOP     
4d11 00        NOP     
4d12 00        NOP     
4d13 00        NOP     
4d14 00        NOP     
4d15 00        NOP     
4d16 00        NOP     
4d17 00        NOP     
4d18 00        NOP     
4d19 00        NOP     
4d1a 00        NOP     
4d1b 00        NOP     
4d1c 00        NOP     
4d1d 00        NOP     
4d1e 00        NOP     
4d1f 00        NOP     
4d20 00        NOP     
4d21 00        NOP     
4d22 00        NOP     
4d23 00        NOP     
4d24 00        NOP     
4d25 00        NOP     
4d26 00        NOP     
4d27 00        NOP     
4d28 00        NOP     
4d29 00        NOP     
4d2a 00        NOP     
4d2b 00        NOP     
4d2c 00        NOP     
4d2d 00        NOP     
4d2e 00        NOP     
4d2f 00        NOP     
4d30 00        NOP     
4d31 00        NOP     
4d32 00        NOP     
4d33 00        NOP     
4d34 00        NOP     
4d35 00        NOP     
4d36 00        NOP     
4d37 00        NOP     
4d38 00        NOP     
4d39 00        NOP     
4d3a 00        NOP     
4d3b 00        NOP     
4d3c 00        NOP     
4d3d 00        NOP     
4d3e 00        NOP     
4d3f 00        NOP     
4d40 00        NOP     
4d41 00        NOP     
4d42 00        NOP     
4d43 00        NOP     
4d44 00        NOP     
4d45 00        NOP     
4d46 00        NOP     
4d47 00        NOP     
4d48 00        NOP     
4d49 00        NOP     
4d4a 00        NOP     
4d4b 00        NOP     
4d4c 00        NOP     
4d4d 00        NOP     
4d4e 00        NOP     
4d4f 00        NOP     
4d50 00        NOP     
4d51 00        NOP     
4d52 00        NOP     
4d53 00        NOP     
4d54 00        NOP     
4d55 00        NOP     
4d56 00        NOP     
4d57 00        NOP     
4d58 00        NOP     
4d59 00        NOP     
4d5a 00        NOP     
4d5b 00        NOP     
4d5c 00        NOP     
4d5d 00        NOP     
4d5e 00        NOP     
4d5f 00        NOP     
4d60 00        NOP     
4d61 00        NOP     
4d62 00        NOP     
4d63 00        NOP     
4d64 00        NOP     
4d65 00        NOP     
4d66 00        NOP     
4d67 00        NOP     
4d68 00        NOP     
4d69 00        NOP     
4d6a 00        NOP     
4d6b 00        NOP     
4d6c 00        NOP     
4d6d 00        NOP     
4d6e 00        NOP     
4d6f 00        NOP     
4d70 00        NOP     
4d71 00        NOP     
4d72 00        NOP     
4d73 00        NOP     
4d74 00        NOP     
4d75 00        NOP     
4d76 00        NOP     
4d77 00        NOP     
4d78 00        NOP     
4d79 00        NOP     
4d7a 00        NOP     
4d7b 00        NOP     
4d7c 00        NOP     
4d7d 00        NOP     
4d7e 00        NOP     
4d7f 00        NOP     
4d80 00        NOP     
4d81 00        NOP     
4d82 00        NOP     
4d83 00        NOP     
4d84 00        NOP     
4d85 00        NOP     
4d86 00        NOP     
4d87 00        NOP     
4d88 00        NOP     
4d89 00        NOP     
4d8a 00        NOP     
4d8b 00        NOP     
4d8c 00        NOP     
4d8d 00        NOP     
4d8e 00        NOP     
4d8f 00        NOP     
4d90 00        NOP     
4d91 00        NOP     
4d92 00        NOP     
4d93 00        NOP     
4d94 00        NOP     
4d95 00        NOP     
4d96 00        NOP     
4d97 00        NOP     
4d98 00        NOP     
4d99 00        NOP     
4d9a 00        NOP     
4d9b 00        NOP     
4d9c 00        NOP     
4d9d 00        NOP     
4d9e 00        NOP     
4d9f 00        NOP     
4da0 00        NOP     
4da1 00        NOP     
4da2 00        NOP     
4da3 00        NOP     
4da4 00        NOP     
4da5 00        NOP     
4da6 00        NOP     
4da7 00        NOP     
4da8 00        NOP     
4da9 00        NOP     
4daa 00        NOP     
4dab 00        NOP     
4dac 00        NOP     
4dad 00        NOP     
4dae 00        NOP     
4daf 00        NOP     
4db0 00        NOP     
4db1 00        NOP     
4db2 00        NOP     
4db3 00        NOP     
4db4 00        NOP     
4db5 00        NOP     
4db6 00        NOP     
4db7 00        NOP     
4db8 00        NOP     
4db9 00        NOP     
4dba 00        NOP     
4dbb 00        NOP     
4dbc 00        NOP     
4dbd 00        NOP     
4dbe 00        NOP     
4dbf 00        NOP     
4dc0 00        NOP     
4dc1 00        NOP     
4dc2 00        NOP     
4dc3 00        NOP     
4dc4 00        NOP     
4dc5 00        NOP     
4dc6 00        NOP     
4dc7 00        NOP     
4dc8 00        NOP     
4dc9 00        NOP     
4dca 00        NOP     
4dcb 00        NOP     
4dcc 00        NOP     
4dcd 00        NOP     
4dce 00        NOP     
4dcf 00        NOP     
4dd0 00        NOP     
4dd1 00        NOP     
4dd2 00        NOP     
4dd3 00        NOP     
4dd4 00        NOP     
4dd5 00        NOP     
4dd6 00        NOP     
4dd7 00        NOP     
4dd8 00        NOP     
4dd9 00        NOP     
4dda 00        NOP     
4ddb 00        NOP     
4ddc 00        NOP     
4ddd 00        NOP     
4dde 00        NOP     
4ddf 00        NOP     
4de0 00        NOP     
4de1 00        NOP     
4de2 00        NOP     
4de3 00        NOP     
4de4 00        NOP     
4de5 00        NOP     
4de6 00        NOP     
4de7 00        NOP     
4de8 00        NOP     
4de9 00        NOP     
4dea 00        NOP     
4deb 00        NOP     
4dec 00        NOP     
4ded 00        NOP     
4dee 00        NOP     
4def 00        NOP     
4df0 00        NOP     
4df1 00        NOP     
4df2 00        NOP     
4df3 00        NOP     
4df4 00        NOP     
4df5 00        NOP     
4df6 00        NOP     
4df7 00        NOP     
4df8 00        NOP     
4df9 00        NOP     
4dfa 00        NOP     
4dfb 00        NOP     
4dfc 00        NOP     
4dfd 00        NOP     
4dfe 00        NOP     
4dff 00        NOP     
4e00 00        NOP     
4e01 00        NOP     
4e02 00        NOP     
4e03 00        NOP     
4e04 00        NOP     
4e05 00        NOP     
4e06 00        NOP     
4e07 00        NOP     
4e08 00        NOP     
4e09 00        NOP     
4e0a 00        NOP     
4e0b 00        NOP     
4e0c 00        NOP     
4e0d 00        NOP     
4e0e 00        NOP     
4e0f 00        NOP     
4e10 00        NOP     
4e11 00        NOP     
4e12 00        NOP     
4e13 00        NOP     
4e14 00        NOP     
4e15 00        NOP     
4e16 00        NOP     
4e17 00        NOP     
4e18 00        NOP     
4e19 00        NOP     
4e1a 00        NOP     
4e1b 00        NOP     
4e1c 00        NOP     
4e1d 00        NOP     
4e1e 00        NOP     
4e1f 00        NOP     
4e20 00        NOP     
4e21 00        NOP     
4e22 00        NOP     
4e23 00        NOP     
4e24 00        NOP     
4e25 00        NOP     
4e26 00        NOP     
4e27 00        NOP     
4e28 00        NOP     
4e29 00        NOP     
4e2a 00        NOP     
4e2b 00        NOP     
4e2c 00        NOP     
4e2d 00        NOP     
4e2e 00        NOP     
4e2f 00        NOP     
4e30 00        NOP     
4e31 00        NOP     
4e32 00        NOP     
4e33 00        NOP     
4e34 00        NOP     
4e35 00        NOP     
4e36 00        NOP     
4e37 00        NOP     
4e38 00        NOP     
4e39 00        NOP     
4e3a 00        NOP     
4e3b 00        NOP     
4e3c 00        NOP     
4e3d 00        NOP     
4e3e 00        NOP     
4e3f 00        NOP     
4e40 00        NOP     
4e41 00        NOP     
4e42 00        NOP     
4e43 00        NOP     
4e44 00        NOP     
4e45 00        NOP     
4e46 00        NOP     
4e47 00        NOP     
4e48 00        NOP     
4e49 00        NOP     
4e4a 00        NOP     
4e4b 00        NOP     
4e4c 00        NOP     
4e4d 00        NOP     
4e4e 00        NOP     
4e4f 00        NOP     
4e50 00        NOP     
4e51 00        NOP     
4e52 00        NOP     
4e53 00        NOP     
4e54 00        NOP     
4e55 00        NOP     
4e56 00        NOP     
4e57 00        NOP     
4e58 00        NOP     
4e59 00        NOP     
4e5a 00        NOP     
4e5b 00        NOP     
4e5c 00        NOP     
4e5d 00        NOP     
4e5e 00        NOP     
4e5f 00        NOP     
4e60 00        NOP     
4e61 00        NOP     
4e62 00        NOP     
4e63 00        NOP     
4e64 00        NOP     
4e65 00        NOP     
4e66 00        NOP     
4e67 00        NOP     
4e68 00        NOP     
4e69 00        NOP     
4e6a 00        NOP     
4e6b 00        NOP     
4e6c 00        NOP     
4e6d 00        NOP     
4e6e 00        NOP     
4e6f 00        NOP     
4e70 00        NOP     
4e71 00        NOP     
4e72 00        NOP     
4e73 00        NOP     
4e74 00        NOP     
4e75 00        NOP     
4e76 00        NOP     
4e77 00        NOP     
4e78 00        NOP     
4e79 00        NOP     
4e7a 00        NOP     
4e7b 00        NOP     
4e7c 00        NOP     
4e7d 00        NOP     
4e7e 00        NOP     
4e7f 00        NOP     
4e80 00        NOP     
4e81 00        NOP     
4e82 00        NOP     
4e83 00        NOP     
4e84 00        NOP     
4e85 00        NOP     
4e86 00        NOP     
4e87 00        NOP     
4e88 00        NOP     
4e89 00        NOP     
4e8a 00        NOP     
4e8b 00        NOP     
4e8c 00        NOP     
4e8d 00        NOP     
4e8e 00        NOP     
4e8f 00        NOP     
4e90 00        NOP     
4e91 00        NOP     
4e92 00        NOP     
4e93 00        NOP     
4e94 00        NOP     
4e95 00        NOP     
4e96 00        NOP     
4e97 00        NOP     
4e98 00        NOP     
4e99 00        NOP     
4e9a 00        NOP     
4e9b 00        NOP     
4e9c 00        NOP     
4e9d 00        NOP     
4e9e 00        NOP     
4e9f 00        NOP     
4ea0 00        NOP     
4ea1 00        NOP     
4ea2 00        NOP     
4ea3 00        NOP     
4ea4 00        NOP     
4ea5 00        NOP     
4ea6 00        NOP     
4ea7 00        NOP     
4ea8 00        NOP     
4ea9 00        NOP     
4eaa 00        NOP     
4eab 00        NOP     
4eac 00        NOP     
4ead 00        NOP     
4eae 00        NOP     
4eaf 00        NOP     
4eb0 00        NOP     
4eb1 00        NOP     
4eb2 00        NOP     
4eb3 00        NOP     
4eb4 00        NOP     
4eb5 00        NOP     
4eb6 00        NOP     
4eb7 00        NOP     
4eb8 00        NOP     
4eb9 00        NOP     
4eba 00        NOP     
4ebb 00        NOP     
4ebc 00        NOP     
4ebd 00        NOP     
4ebe 00        NOP     
4ebf 00        NOP     
4ec0 00        NOP     
4ec1 00        NOP     
4ec2 00        NOP     
4ec3 00        NOP     
4ec4 00        NOP     
4ec5 00        NOP     
4ec6 00        NOP     
4ec7 00        NOP     
4ec8 00        NOP     
4ec9 00        NOP     
4eca 00        NOP     
4ecb 00        NOP     
4ecc 00        NOP     
4ecd 00        NOP     
4ece 00        NOP     
4ecf 00        NOP     
4ed0 00        NOP     
4ed1 00        NOP     
4ed2 00        NOP     
4ed3 00        NOP     
4ed4 00        NOP     
4ed5 00        NOP     
4ed6 00        NOP     
4ed7 00        NOP     
4ed8 00        NOP     
4ed9 00        NOP     
4eda 00        NOP     
4edb 00        NOP     
4edc 00        NOP     
4edd 00        NOP     
4ede 00        NOP     
4edf 00        NOP     
4ee0 00        NOP     
4ee1 00        NOP     
4ee2 00        NOP     
4ee3 00        NOP     
4ee4 00        NOP     
4ee5 00        NOP     
4ee6 00        NOP     
4ee7 00        NOP     
4ee8 00        NOP     
4ee9 00        NOP     
4eea 00        NOP     
4eeb 00        NOP     
4eec 00        NOP     
4eed 00        NOP     
4eee 00        NOP     
4eef 00        NOP     
4ef0 00        NOP     
4ef1 00        NOP     
4ef2 00        NOP     
4ef3 00        NOP     
4ef4 00        NOP     
4ef5 00        NOP     
4ef6 00        NOP     
4ef7 00        NOP     
4ef8 00        NOP     
4ef9 00        NOP     
4efa 00        NOP     
4efb 00        NOP     
4efc 00        NOP     
4efd 00        NOP     
4efe 00        NOP     
4eff 00        NOP     
4f00 00        NOP     
4f01 00        NOP     
4f02 00        NOP     
4f03 00        NOP     
4f04 00        NOP     
4f05 00        NOP     
4f06 00        NOP     
4f07 00        NOP     
4f08 00        NOP     
4f09 00        NOP     
4f0a 00        NOP     
4f0b 00        NOP     
4f0c 00        NOP     
4f0d 00        NOP     
4f0e 00        NOP     
4f0f 00        NOP     
4f10 00        NOP     
4f11 00        NOP     
4f12 00        NOP     
4f13 00        NOP     
4f14 00        NOP     
4f15 00        NOP     
4f16 00        NOP     
4f17 00        NOP     
4f18 00        NOP     
4f19 00        NOP     
4f1a 00        NOP     
4f1b 00        NOP     
4f1c 00        NOP     
4f1d 00        NOP     
4f1e 00        NOP     
4f1f 00        NOP     
4f20 00        NOP     
4f21 00        NOP     
4f22 00        NOP     
4f23 00        NOP     
4f24 00        NOP     
4f25 00        NOP     
4f26 00        NOP     
4f27 00        NOP     
4f28 00        NOP     
4f29 00        NOP     
4f2a 00        NOP     
4f2b 00        NOP     
4f2c 00        NOP     
4f2d 00        NOP     
4f2e 00        NOP     
4f2f 00        NOP     
4f30 00        NOP     
4f31 00        NOP     
4f32 00        NOP     
4f33 00        NOP     
4f34 00        NOP     
4f35 00        NOP     
4f36 00        NOP     
4f37 00        NOP     
4f38 00        NOP     
4f39 00        NOP     
4f3a 00        NOP     
4f3b 00        NOP     
4f3c 00        NOP     
4f3d 00        NOP     
4f3e 00        NOP     
4f3f 00        NOP     
4f40 00        NOP     
4f41 00        NOP     
4f42 00        NOP     
4f43 00        NOP     
4f44 00        NOP     
4f45 00        NOP     
4f46 00        NOP     
4f47 00        NOP     
4f48 00        NOP     
4f49 00        NOP     
4f4a 00        NOP     
4f4b 00        NOP     
4f4c 00        NOP     
4f4d 00        NOP     
4f4e 00        NOP     
4f4f 00        NOP     
4f50 00        NOP     
4f51 00        NOP     
4f52 00        NOP     
4f53 00        NOP     
4f54 00        NOP     
4f55 00        NOP     
4f56 00        NOP     
4f57 00        NOP     
4f58 00        NOP     
4f59 00        NOP     
4f5a 00        NOP     
4f5b 00        NOP     
4f5c 00        NOP     
4f5d 00        NOP     
4f5e 00        NOP     
4f5f 00        NOP     
4f60 00        NOP     
4f61 00        NOP     
4f62 00        NOP     
4f63 00        NOP     
4f64 00        NOP     
4f65 00        NOP     
4f66 00        NOP     
4f67 00        NOP     
4f68 00        NOP     
4f69 00        NOP     
4f6a 00        NOP     
4f6b 00        NOP     
4f6c 00        NOP     
4f6d 00        NOP     
4f6e 00        NOP     
4f6f 00        NOP     
4f70 00        NOP     
4f71 00        NOP     
4f72 00        NOP     
4f73 00        NOP     
4f74 00        NOP     
4f75 00        NOP     
4f76 00        NOP     
4f77 00        NOP     
4f78 00        NOP     
4f79 00        NOP     
4f7a 00        NOP     
4f7b 00        NOP     
4f7c 00        NOP     
4f7d 00        NOP     
4f7e 00        NOP     
4f7f 00        NOP     
4f80 00        NOP     
4f81 00        NOP     
4f82 00        NOP     
4f83 00        NOP     
4f84 00        NOP     
4f85 00        NOP     
4f86 00        NOP     
4f87 00        NOP     
4f88 00        NOP     
4f89 00        NOP     
4f8a 00        NOP     
4f8b 00        NOP     
4f8c 00        NOP     
4f8d 00        NOP     
4f8e 00        NOP     
4f8f 00        NOP     
4f90 00        NOP     
4f91 00        NOP     
4f92 00        NOP     
4f93 00        NOP     
4f94 00        NOP     
4f95 00        NOP     
4f96 00        NOP     
4f97 00        NOP     
4f98 00        NOP     
4f99 00        NOP     
4f9a 00        NOP     
4f9b 00        NOP     
4f9c 00        NOP     
4f9d 00        NOP     
4f9e 00        NOP     
4f9f 00        NOP     
4fa0 00        NOP     
4fa1 00        NOP     
4fa2 00        NOP     
4fa3 00        NOP     
4fa4 00        NOP     
4fa5 00        NOP     
4fa6 00        NOP     
4fa7 00        NOP     
4fa8 00        NOP     
4fa9 00        NOP     
4faa 00        NOP     
4fab 00        NOP     
4fac 00        NOP     
4fad 00        NOP     
4fae 00        NOP     
4faf 00        NOP     
4fb0 00        NOP     
4fb1 00        NOP     
4fb2 00        NOP     
4fb3 00        NOP     
4fb4 00        NOP     
4fb5 00        NOP     
4fb6 00        NOP     
4fb7 00        NOP     
4fb8 00        NOP     
4fb9 00        NOP     
4fba 00        NOP     
4fbb 00        NOP     
4fbc 00        NOP     
4fbd 00        NOP     
4fbe 00        NOP     
4fbf 00        NOP     
4fc0 00        NOP     
4fc1 00        NOP     
4fc2 00        NOP     
4fc3 00        NOP     
4fc4 00        NOP     
4fc5 00        NOP     
4fc6 00        NOP     
4fc7 00        NOP     
4fc8 00        NOP     
4fc9 00        NOP     
4fca 00        NOP     
4fcb 00        NOP     
4fcc 00        NOP     
4fcd 00        NOP     
4fce 00        NOP     
4fcf 00        NOP     
4fd0 00        NOP     
4fd1 00        NOP     
4fd2 00        NOP     
4fd3 00        NOP     
4fd4 00        NOP     
4fd5 00        NOP     
4fd6 00        NOP     
4fd7 00        NOP     
4fd8 00        NOP     
4fd9 00        NOP     
4fda 00        NOP     
4fdb 00        NOP     
4fdc 00        NOP     
4fdd 00        NOP     
4fde 00        NOP     
4fdf 00        NOP     
4fe0 00        NOP     
4fe1 00        NOP     
4fe2 00        NOP     
4fe3 00        NOP     
4fe4 00        NOP     
4fe5 00        NOP     
4fe6 00        NOP     
4fe7 00        NOP     
4fe8 00        NOP     
4fe9 00        NOP     
4fea 00        NOP     
4feb 00        NOP     
4fec 00        NOP     
4fed 00        NOP     
4fee 00        NOP     
4fef 00        NOP     
4ff0 00        NOP     
4ff1 00        NOP     
4ff2 00        NOP     
4ff3 00        NOP     
4ff4 00        NOP     
4ff5 00        NOP     
4ff6 00        NOP     
4ff7 00        NOP     
4ff8 00        NOP     
4ff9 00        NOP     
4ffa 00        NOP     
4ffb 00        NOP     
4ffc 00        NOP     
4ffd 00        NOP     
4ffe 00        NOP     
4fff 00        NOP     
5000 00        NOP     
5001 00        NOP     
5002 00        NOP     
5003 00        NOP     
5004 00        NOP     
5005 00        NOP     
5006 00        NOP     
5007 00        NOP     
5008 00        NOP     
5009 00        NOP     
500a 00        NOP     
500b 00        NOP     
500c 00        NOP     
500d 00        NOP     
500e 00        NOP     
500f 00        NOP     
5010 00        NOP     
5011 00        NOP     
5012 00        NOP     
5013 00        NOP     
5014 00        NOP     
5015 00        NOP     
5016 00        NOP     
5017 00        NOP     
5018 00        NOP     
5019 00        NOP     
501a 00        NOP     
501b 00        NOP     
501c 00        NOP     
501d 00        NOP     
501e 00        NOP     
501f 00        NOP     
5020 00        NOP     
5021 00        NOP     
5022 00        NOP     
5023 00        NOP     
5024 00        NOP     
5025 00        NOP     
5026 00        NOP     
5027 00        NOP     
5028 00        NOP     
5029 00        NOP     
502a 00        NOP     
502b 00        NOP     
502c 00        NOP     
502d 00        NOP     
502e 00        NOP     
502f 00        NOP     
5030 00        NOP     
5031 00        NOP     
5032 00        NOP     
5033 00        NOP     
5034 00        NOP     
5035 00        NOP     
5036 00        NOP     
5037 00        NOP     
5038 00        NOP     
5039 00        NOP     
503a 00        NOP     
503b 00        NOP     
503c 00        NOP     
503d 00        NOP     
503e 00        NOP     
503f 00        NOP     
5040 00        NOP     
5041 00        NOP     
5042 00        NOP     
5043 00        NOP     
5044 00        NOP     
5045 00        NOP     
5046 00        NOP     
5047 00        NOP     
5048 00        NOP     
5049 00        NOP     
504a 00        NOP     
504b 00        NOP     
504c 00        NOP     
504d 00        NOP     
504e 00        NOP     
504f 00        NOP     
5050 00        NOP     
5051 00        NOP     
5052 00        NOP     
5053 00        NOP     
5054 00        NOP     
5055 00        NOP     
5056 00        NOP     
5057 00        NOP     
5058 00        NOP     
5059 00        NOP     
505a 00        NOP     
505b 00        NOP     
505c 00        NOP     
505d 00        NOP     
505e 00        NOP     
505f 00        NOP     
5060 00        NOP     
5061 00        NOP     
5062 00        NOP     
5063 00        NOP     
5064 00        NOP     
5065 00        NOP     
5066 00        NOP     
5067 00        NOP     
5068 00        NOP     
5069 00        NOP     
506a 00        NOP     
506b 00        NOP     
506c 00        NOP     
506d 00        NOP     
506e 00        NOP     
506f 00        NOP     
5070 00        NOP     
5071 00        NOP     
5072 00        NOP     
5073 00        NOP     
5074 00        NOP     
5075 00        NOP     
5076 00        NOP     
5077 00        NOP     
5078 00        NOP     
5079 00        NOP     
507a 00        NOP     
507b 00        NOP     
507c 00        NOP     
507d 00        NOP     
507e 00        NOP     
507f 00        NOP     
5080 00        NOP     
5081 00        NOP     
5082 00        NOP     
5083 00        NOP     
5084 00        NOP     
5085 00        NOP     
5086 00        NOP     
5087 00        NOP     
5088 00        NOP     
5089 00        NOP     
508a 00        NOP     
508b 00        NOP     
508c 00        NOP     
508d 00        NOP     
508e 00        NOP     
508f 00        NOP     
5090 00        NOP     
5091 00        NOP     
5092 00        NOP     
5093 00        NOP     
5094 00        NOP     
5095 00        NOP     
5096 00        NOP     
5097 00        NOP     
5098 00        NOP     
5099 00        NOP     
509a 00        NOP     
509b 00        NOP     
509c 00        NOP     
509d 00        NOP     
509e 00        NOP     
509f 00        NOP     
50a0 00        NOP     
50a1 00        NOP     
50a2 00        NOP     
50a3 00        NOP     
50a4 00        NOP     
50a5 00        NOP     
50a6 00        NOP     
50a7 00        NOP     
50a8 00        NOP     
50a9 00        NOP     
50aa 00        NOP     
50ab 00        NOP     
50ac 00        NOP     
50ad 00        NOP     
50ae 00        NOP     
50af 00        NOP     
50b0 00        NOP     
50b1 00        NOP     
50b2 00        NOP     
50b3 00        NOP     
50b4 00        NOP     
50b5 00        NOP     
50b6 00        NOP     
50b7 00        NOP     
50b8 00        NOP     
50b9 00        NOP     
50ba 00        NOP     
50bb 00        NOP     
50bc 00        NOP     
50bd 00        NOP     
50be 00        NOP     
50bf 00        NOP     
50c0 00        NOP     
50c1 00        NOP     
50c2 00        NOP     
50c3 00        NOP     
50c4 00        NOP     
50c5 00        NOP     
50c6 00        NOP     
50c7 00        NOP     
50c8 00        NOP     
50c9 00        NOP     
50ca 00        NOP     
50cb 00        NOP     
50cc 00        NOP     
50cd 00        NOP     
50ce 00        NOP     
50cf 00        NOP     
50d0 00        NOP     
50d1 00        NOP     
50d2 00        NOP     
50d3 00        NOP     
50d4 00        NOP     
50d5 00        NOP     
50d6 00        NOP     
50d7 00        NOP     
50d8 00        NOP     
50d9 00        NOP     
50da 00        NOP     
50db 00        NOP     
50dc 00        NOP     
50dd 00        NOP     
50de 00        NOP     
50df 00        NOP     
50e0 00        NOP     
50e1 00        NOP     
50e2 00        NOP     
50e3 00        NOP     
50e4 00        NOP     
50e5 00        NOP     
50e6 00        NOP     
50e7 00        NOP     
50e8 00        NOP     
50e9 00        NOP     
50ea 00        NOP     
50eb 00        NOP     
50ec 00        NOP     
50ed 00        NOP     
50ee 00        NOP     
50ef 00        NOP     
50f0 00        NOP     
50f1 00        NOP     
50f2 00        NOP     
50f3 00        NOP     
50f4 00        NOP     
50f5 00        NOP     
50f6 00        NOP     
50f7 00        NOP     
50f8 00        NOP     
50f9 00        NOP     
50fa 00        NOP     
50fb 00        NOP     
50fc 00        NOP     
50fd 00        NOP     
50fe 00        NOP     
50ff 00        NOP     
5100 00        NOP     
5101 00        NOP     
5102 00        NOP     
5103 00        NOP     
5104 00        NOP     
5105 00        NOP     
5106 00        NOP     
5107 00        NOP     
5108 00        NOP     
5109 00        NOP     
510a 00        NOP     
510b 00        NOP     
510c 00        NOP     
510d 00        NOP     
510e 00        NOP     
510f 00        NOP     
5110 00        NOP     
5111 00        NOP     
5112 00        NOP     
5113 00        NOP     
5114 00        NOP     
5115 00        NOP     
5116 00        NOP     
5117 00        NOP     
5118 00        NOP     
5119 00        NOP     
511a 00        NOP     
511b 00        NOP     
511c 00        NOP     
511d 00        NOP     
511e 00        NOP     
511f 00        NOP     
5120 00        NOP     
5121 00        NOP     
5122 00        NOP     
5123 00        NOP     
5124 00        NOP     
5125 00        NOP     
5126 00        NOP     
5127 00        NOP     
5128 00        NOP     
5129 00        NOP     
512a 00        NOP     
512b 00        NOP     
512c 00        NOP     
512d 00        NOP     
512e 00        NOP     
512f 00        NOP     
5130 00        NOP     
5131 00        NOP     
5132 00        NOP     
5133 00        NOP     
5134 00        NOP     
5135 00        NOP     
5136 00        NOP     
5137 00        NOP     
5138 00        NOP     
5139 00        NOP     
513a 00        NOP     
513b 00        NOP     
513c 00        NOP     
513d 00        NOP     
513e 00        NOP     
513f 00        NOP     
5140 00        NOP     
5141 00        NOP     
5142 00        NOP     
5143 00        NOP     
5144 00        NOP     
5145 00        NOP     
5146 00        NOP     
5147 00        NOP     
5148 00        NOP     
5149 00        NOP     
514a 00        NOP     
514b 00        NOP     
514c 00        NOP     
514d 00        NOP     
514e 00        NOP     
514f 00        NOP     
5150 00        NOP     
5151 00        NOP     
5152 00        NOP     
5153 00        NOP     
5154 00        NOP     
5155 00        NOP     
5156 00        NOP     
5157 00        NOP     
5158 00        NOP     
5159 00        NOP     
515a 00        NOP     
515b 00        NOP     
515c 00        NOP     
515d 00        NOP     
515e 00        NOP     
515f 00        NOP     
5160 00        NOP     
5161 00        NOP     
5162 00        NOP     
5163 00        NOP     
5164 00        NOP     
5165 00        NOP     
5166 00        NOP     
5167 00        NOP     
5168 00        NOP     
5169 00        NOP     
516a 00        NOP     
516b 00        NOP     
516c 00        NOP     
516d 00        NOP     
516e 00        NOP     
516f 00        NOP     
5170 00        NOP     
5171 00        NOP     
5172 00        NOP     
5173 00        NOP     
5174 00        NOP     
5175 00        NOP     
5176 00        NOP     
5177 00        NOP     
5178 00        NOP     
5179 00        NOP     
517a 00        NOP     
517b 00        NOP     
517c 00        NOP     
517d 00        NOP     
517e 00        NOP     
517f 00        NOP     
5180 00        NOP     
5181 00        NOP     
5182 00        NOP     
5183 00        NOP     
5184 00        NOP     
5185 00        NOP     
5186 00        NOP     
5187 00        NOP     
5188 00        NOP     
5189 00        NOP     
518a 00        NOP     
518b 00        NOP     
518c 00        NOP     
518d 00        NOP     
518e 00        NOP     
518f 00        NOP     
5190 00        NOP     
5191 00        NOP     
5192 00        NOP     
5193 00        NOP     
5194 00        NOP     
5195 00        NOP     
5196 00        NOP     
5197 00        NOP     
5198 00        NOP     
5199 00        NOP     
519a 00        NOP     
519b 00        NOP     
519c 00        NOP     
519d 00        NOP     
519e 00        NOP     
519f 00        NOP     
51a0 00        NOP     
51a1 00        NOP     
51a2 00        NOP     
51a3 00        NOP     
51a4 00        NOP     
51a5 00        NOP     
51a6 00        NOP     
51a7 00        NOP     
51a8 00        NOP     
51a9 00        NOP     
51aa 00        NOP     
51ab 00        NOP     
51ac 00        NOP     
51ad 00        NOP     
51ae 00        NOP     
51af 00        NOP     
51b0 00        NOP     
51b1 00        NOP     
51b2 00        NOP     
51b3 00        NOP     
51b4 00        NOP     
51b5 00        NOP     
51b6 00        NOP     
51b7 00        NOP     
51b8 00        NOP     
51b9 00        NOP     
51ba 00        NOP     
51bb 00        NOP     
51bc 00        NOP     
51bd 00        NOP     
51be 00        NOP     
51bf 00        NOP     
51c0 00        NOP     
51c1 00        NOP     
51c2 00        NOP     
51c3 00        NOP     
51c4 00        NOP     
51c5 00        NOP     
51c6 00        NOP     
51c7 00        NOP     
51c8 00        NOP     
51c9 00        NOP     
51ca 00        NOP     
51cb 00        NOP     
51cc 00        NOP     
51cd 00        NOP     
51ce 00        NOP     
51cf 00        NOP     
51d0 00        NOP     
51d1 00        NOP     
51d2 00        NOP     
51d3 00        NOP     
51d4 00        NOP     
51d5 00        NOP     
51d6 00        NOP     
51d7 00        NOP     
51d8 00        NOP     
51d9 00        NOP     
51da 00        NOP     
51db 00        NOP     
51dc 00        NOP     
51dd 00        NOP     
51de 00        NOP     
51df 00        NOP     
51e0 00        NOP     
51e1 00        NOP     
51e2 00        NOP     
51e3 00        NOP     
51e4 00        NOP     
51e5 00        NOP     
51e6 00        NOP     
51e7 00        NOP     
51e8 00        NOP     
51e9 00        NOP     
51ea 00        NOP     
51eb 00        NOP     
51ec 00        NOP     
51ed 00        NOP     
51ee 00        NOP     
51ef 00        NOP     
51f0 00        NOP     
51f1 00        NOP     
51f2 00        NOP     
51f3 00        NOP     
51f4 00        NOP     
51f5 00        NOP     
51f6 00        NOP     
51f7 00        NOP     
51f8 00        NOP     
51f9 00        NOP     
51fa 00        NOP     
51fb 00        NOP     
51fc 00        NOP     
51fd 00        NOP     
51fe 00        NOP     
51ff 00        NOP     
5200 00        NOP     
5201 00        NOP     
5202 00        NOP     
5203 00        NOP     
5204 00        NOP     
5205 00        NOP     
5206 00        NOP     
5207 00        NOP     
5208 00        NOP     
5209 00        NOP     
520a 00        NOP     
520b 00        NOP     
520c 00        NOP     
520d 00        NOP     
520e 00        NOP     
520f 00        NOP     
5210 00        NOP     
5211 00        NOP     
5212 00        NOP     
5213 00        NOP     
5214 00        NOP     
5215 00        NOP     
5216 00        NOP     
5217 00        NOP     
5218 00        NOP     
5219 00        NOP     
521a 00        NOP     
521b 00        NOP     
521c 00        NOP     
521d 00        NOP     
521e 00        NOP     
521f 00        NOP     
5220 00        NOP     
5221 00        NOP     
5222 00        NOP     
5223 00        NOP     
5224 00        NOP     
5225 00        NOP     
5226 00        NOP     
5227 00        NOP     
5228 00        NOP     
5229 00        NOP     
522a 00        NOP     
522b 00        NOP     
522c 00        NOP     
522d 00        NOP     
522e 00        NOP     
522f 00        NOP     
5230 00        NOP     
5231 00        NOP     
5232 00        NOP     
5233 00        NOP     
5234 00        NOP     
5235 00        NOP     
5236 00        NOP     
5237 00        NOP     
5238 00        NOP     
5239 00        NOP     
523a 00        NOP     
523b 00        NOP     
523c 00        NOP     
523d 00        NOP     
523e 00        NOP     
523f 00        NOP     
5240 00        NOP     
5241 00        NOP     
5242 00        NOP     
5243 00        NOP     
5244 00        NOP     
5245 00        NOP     
5246 00        NOP     
5247 00        NOP     
5248 00        NOP     
5249 00        NOP     
524a 00        NOP     
524b 00        NOP     
524c 00        NOP     
524d 00        NOP     
524e 00        NOP     
524f 00        NOP     
5250 00        NOP     
5251 00        NOP     
5252 00        NOP     
5253 00        NOP     
5254 00        NOP     
5255 00        NOP     
5256 00        NOP     
5257 00        NOP     
5258 00        NOP     
5259 00        NOP     
525a 00        NOP     
525b 00        NOP     
525c 00        NOP     
525d 00        NOP     
525e 00        NOP     
525f 00        NOP     
5260 00        NOP     
5261 00        NOP     
5262 00        NOP     
5263 00        NOP     
5264 00        NOP     
5265 00        NOP     
5266 00        NOP     
5267 00        NOP     
5268 00        NOP     
5269 00        NOP     
526a 00        NOP     
526b 00        NOP     
526c 00        NOP     
526d 00        NOP     
526e 00        NOP     
526f 00        NOP     
5270 00        NOP     
5271 00        NOP     
5272 00        NOP     
5273 00        NOP     
5274 00        NOP     
5275 00        NOP     
5276 00        NOP     
5277 00        NOP     
5278 00        NOP     
5279 00        NOP     
527a 00        NOP     
527b 00        NOP     
527c 00        NOP     
527d 00        NOP     
527e 00        NOP     
527f 00        NOP     
5280 00        NOP     
5281 00        NOP     
5282 00        NOP     
5283 00        NOP     
5284 00        NOP     
5285 00        NOP     
5286 00        NOP     
5287 00        NOP     
5288 00        NOP     
5289 00        NOP     
528a 00        NOP     
528b 00        NOP     
528c 00        NOP     
528d 00        NOP     
528e 00        NOP     
528f 00        NOP     
5290 00        NOP     
5291 00        NOP     
5292 00        NOP     
5293 00        NOP     
5294 00        NOP     
5295 00        NOP     
5296 00        NOP     
5297 00        NOP     
5298 00        NOP     
5299 00        NOP     
529a 00        NOP     
529b 00        NOP     
529c 00        NOP     
529d 00        NOP     
529e 00        NOP     
529f 00        NOP     
52a0 00        NOP     
52a1 00        NOP     
52a2 00        NOP     
52a3 00        NOP     
52a4 00        NOP     
52a5 00        NOP     
52a6 00        NOP     
52a7 00        NOP     
52a8 00        NOP     
52a9 00        NOP     
52aa 00        NOP     
52ab 00        NOP     
52ac 00        NOP     
52ad 00        NOP     
52ae 00        NOP     
52af 00        NOP     
52b0 00        NOP     
52b1 00        NOP     
52b2 00        NOP     
52b3 00        NOP     
52b4 00        NOP     
52b5 00        NOP     
52b6 00        NOP     
52b7 00        NOP     
52b8 00        NOP     
52b9 00        NOP     
52ba 00        NOP     
52bb 00        NOP     
52bc 00        NOP     
52bd 00        NOP     
52be 00        NOP     
52bf 00        NOP     
52c0 00        NOP     
52c1 00        NOP     
52c2 00        NOP     
52c3 00        NOP     
52c4 00        NOP     
52c5 00        NOP     
52c6 00        NOP     
52c7 00        NOP     
52c8 00        NOP     
52c9 00        NOP     
52ca 00        NOP     
52cb 00        NOP     
52cc 00        NOP     
52cd 00        NOP     
52ce 00        NOP     
52cf 00        NOP     
52d0 00        NOP     
52d1 00        NOP     
52d2 00        NOP     
52d3 00        NOP     
52d4 00        NOP     
52d5 00        NOP     
52d6 00        NOP     
52d7 00        NOP     
52d8 00        NOP     
52d9 00        NOP     
52da 00        NOP     
52db 00        NOP     
52dc 00        NOP     
52dd 00        NOP     
52de 00        NOP     
52df 00        NOP     
52e0 00        NOP     
52e1 00        NOP     
52e2 00        NOP     
52e3 00        NOP     
52e4 00        NOP     
52e5 00        NOP     
52e6 00        NOP     
52e7 00        NOP     
52e8 00        NOP     
52e9 00        NOP     
52ea 00        NOP     
52eb 00        NOP     
52ec 00        NOP     
52ed 00        NOP     
52ee 00        NOP     
52ef 00        NOP     
52f0 00        NOP     
52f1 00        NOP     
52f2 00        NOP     
52f3 00        NOP     
52f4 00        NOP     
52f5 00        NOP     
52f6 00        NOP     
52f7 00        NOP     
52f8 00        NOP     
52f9 00        NOP     
52fa 00        NOP     
52fb 00        NOP     
52fc 00        NOP     
52fd 00        NOP     
52fe 00        NOP     
52ff 00        NOP     
5300 00        NOP     
5301 00        NOP     
5302 00        NOP     
5303 00        NOP     
5304 00        NOP     
5305 00        NOP     
5306 00        NOP     
5307 00        NOP     
5308 00        NOP     
5309 00        NOP     
530a 00        NOP     
530b 00        NOP     
530c 00        NOP     
530d 00        NOP     
530e 00        NOP     
530f 00        NOP     
5310 00        NOP     
5311 00        NOP     
5312 00        NOP     
5313 00        NOP     
5314 00        NOP     
5315 00        NOP     
5316 00        NOP     
5317 00        NOP     
5318 00        NOP     
5319 00        NOP     
531a 00        NOP     
531b 00        NOP     
531c 00        NOP     
531d 00        NOP     
531e 00        NOP     
531f 00        NOP     
5320 00        NOP     
5321 00        NOP     
5322 00        NOP     
5323 00        NOP     
5324 00        NOP     
5325 00        NOP     
5326 00        NOP     
5327 00        NOP     
5328 00        NOP     
5329 00        NOP     
532a 00        NOP     
532b 00        NOP     
532c 00        NOP     
532d 00        NOP     
532e 00        NOP     
532f 00        NOP     
5330 00        NOP     
5331 00        NOP     
5332 00        NOP     
5333 00        NOP     
5334 00        NOP     
5335 00        NOP     
5336 00        NOP     
5337 00        NOP     
5338 00        NOP     
5339 00        NOP     
533a 00        NOP     
533b 00        NOP     
533c 00        NOP     
533d 00        NOP     
533e 00        NOP     
533f 00        NOP     
5340 00        NOP     
5341 00        NOP     
5342 00        NOP     
5343 00        NOP     
5344 00        NOP     
5345 00        NOP     
5346 00        NOP     
5347 00        NOP     
5348 00        NOP     
5349 00        NOP     
534a 00        NOP     
534b 00        NOP     
534c 00        NOP     
534d 00        NOP     
534e 00        NOP     
534f 00        NOP     
5350 00        NOP     
5351 00        NOP     
5352 00        NOP     
5353 00        NOP     
5354 00        NOP     
5355 00        NOP     
5356 00        NOP     
5357 00        NOP     
5358 00        NOP     
5359 00        NOP     
535a 00        NOP     
535b 00        NOP     
535c 00        NOP     
535d 00        NOP     
535e 00        NOP     
535f 00        NOP     
5360 00        NOP     
5361 00        NOP     
5362 00        NOP     
5363 00        NOP     
5364 00        NOP     
5365 00        NOP     
5366 00        NOP     
5367 00        NOP     
5368 00        NOP     
5369 00        NOP     
536a 00        NOP     
536b 00        NOP     
536c 00        NOP     
536d 00        NOP     
536e 00        NOP     
536f 00        NOP     
5370 00        NOP     
5371 00        NOP     
5372 00        NOP     
5373 00        NOP     
5374 00        NOP     
5375 00        NOP     
5376 00        NOP     
5377 00        NOP     
5378 00        NOP     
5379 00        NOP     
537a 00        NOP     
537b 00        NOP     
537c 00        NOP     
537d 00        NOP     
537e 00        NOP     
537f 00        NOP     
5380 00        NOP     
5381 00        NOP     
5382 00        NOP     
5383 00        NOP     
5384 00        NOP     
5385 00        NOP     
5386 00        NOP     
5387 00        NOP     
5388 00        NOP     
5389 00        NOP     
538a 00        NOP     
538b 00        NOP     
538c 00        NOP     
538d 00        NOP     
538e 00        NOP     
538f 00        NOP     
5390 00        NOP     
5391 00        NOP     
5392 00        NOP     
5393 00        NOP     
5394 00        NOP     
5395 00        NOP     
5396 00        NOP     
5397 00        NOP     
5398 00        NOP     
5399 00        NOP     
539a 00        NOP     
539b 00        NOP     
539c 00        NOP     
539d 00        NOP     
539e 00        NOP     
539f 00        NOP     
53a0 00        NOP     
53a1 00        NOP     
53a2 00        NOP     
53a3 00        NOP     
53a4 00        NOP     
53a5 00        NOP     
53a6 00        NOP     
53a7 00        NOP     
53a8 00        NOP     
53a9 00        NOP     
53aa 00        NOP     
53ab 00        NOP     
53ac 00        NOP     
53ad 00        NOP     
53ae 00        NOP     
53af 00        NOP     
53b0 00        NOP     
53b1 00        NOP     
53b2 00        NOP     
53b3 00        NOP     
53b4 00        NOP     
53b5 00        NOP     
53b6 00        NOP     
53b7 00        NOP     
53b8 00        NOP     
53b9 00        NOP     
53ba 00        NOP     
53bb 00        NOP     
53bc 00        NOP     
53bd 00        NOP     
53be 00        NOP     
53bf 00        NOP     
53c0 00        NOP     
53c1 00        NOP     
53c2 00        NOP     
53c3 00        NOP     
53c4 00        NOP     
53c5 00        NOP     
53c6 00        NOP     
53c7 00        NOP     
53c8 00        NOP     
53c9 00        NOP     
53ca 00        NOP     
53cb 00        NOP     
53cc 00        NOP     
53cd 00        NOP     
53ce 00        NOP     
53cf 00        NOP     
53d0 00        NOP     
53d1 00        NOP     
53d2 00        NOP     
53d3 00        NOP     
53d4 00        NOP     
53d5 00        NOP     
53d6 00        NOP     
53d7 00        NOP     
53d8 00        NOP     
53d9 00        NOP     
53da 00        NOP     
53db 00        NOP     
53dc 00        NOP     
53dd 00        NOP     
53de 00        NOP     
53df 00        NOP     
53e0 00        NOP     
53e1 00        NOP     
53e2 00        NOP     
53e3 00        NOP     
53e4 00        NOP     
53e5 00        NOP     
53e6 00        NOP     
53e7 00        NOP     
53e8 00        NOP     
53e9 00        NOP     
53ea 00        NOP     
53eb 00        NOP     
53ec 00        NOP     
53ed 00        NOP     
53ee 00        NOP     
53ef 00        NOP     
53f0 00        NOP     
53f1 00        NOP     
53f2 00        NOP     
53f3 00        NOP     
53f4 00        NOP     
53f5 00        NOP     
53f6 00        NOP     
53f7 00        NOP     
53f8 00        NOP     
53f9 00        NOP     
53fa 00        NOP     
53fb 00        NOP     
53fc 00        NOP     
53fd 00        NOP     
53fe 00        NOP     
53ff 00        NOP     
5400 00        NOP     
5401 00        NOP     
5402 00        NOP     
5403 00        NOP     
5404 00        NOP     
5405 00        NOP     
5406 00        NOP     
5407 00        NOP     
5408 00        NOP     
5409 00        NOP     
540a 00        NOP     
540b 00        NOP     
540c 00        NOP     
540d 00        NOP     
540e 00        NOP     
540f 00        NOP     
5410 00        NOP     
5411 00        NOP     
5412 00        NOP     
5413 00        NOP     
5414 00        NOP     
5415 00        NOP     
5416 00        NOP     
5417 00        NOP     
5418 00        NOP     
5419 00        NOP     
541a 00        NOP     
541b 00        NOP     
541c 00        NOP     
541d 00        NOP     
541e 00        NOP     
541f 00        NOP     
5420 00        NOP     
5421 00        NOP     
5422 00        NOP     
5423 00        NOP     
5424 00        NOP     
5425 00        NOP     
5426 00        NOP     
5427 00        NOP     
5428 00        NOP     
5429 00        NOP     
542a 00        NOP     
542b 00        NOP     
542c 00        NOP     
542d 00        NOP     
542e 00        NOP     
542f 00        NOP     
5430 00        NOP     
5431 00        NOP     
5432 00        NOP     
5433 00        NOP     
5434 00        NOP     
5435 00        NOP     
5436 00        NOP     
5437 00        NOP     
5438 00        NOP     
5439 00        NOP     
543a 00        NOP     
543b 00        NOP     
543c 00        NOP     
543d 00        NOP     
543e 00        NOP     
543f 00        NOP     
5440 00        NOP     
5441 00        NOP     
5442 00        NOP     
5443 00        NOP     
5444 00        NOP     
5445 00        NOP     
5446 00        NOP     
5447 00        NOP     
5448 00        NOP     
5449 00        NOP     
544a 00        NOP     
544b 00        NOP     
544c 00        NOP     
544d 00        NOP     
544e 00        NOP     
544f 00        NOP     
5450 00        NOP     
5451 00        NOP     
5452 00        NOP     
5453 00        NOP     
5454 00        NOP     
5455 00        NOP     
5456 00        NOP     
5457 00        NOP     
5458 00        NOP     
5459 00        NOP     
545a 00        NOP     
545b 00        NOP     
545c 00        NOP     
545d 00        NOP     
545e 00        NOP     
545f 00        NOP     
5460 00        NOP     
5461 00        NOP     
5462 00        NOP     
5463 00        NOP     
5464 00        NOP     
5465 00        NOP     
5466 00        NOP     
5467 00        NOP     
5468 00        NOP     
5469 00        NOP     
546a 00        NOP     
546b 00        NOP     
546c 00        NOP     
546d 00        NOP     
546e 00        NOP     
546f 00        NOP     
5470 00        NOP     
5471 00        NOP     
5472 00        NOP     
5473 00        NOP     
5474 00        NOP     
5475 00        NOP     
5476 00        NOP     
5477 00        NOP     
5478 00        NOP     
5479 00        NOP     
547a 00        NOP     
547b 00        NOP     
547c 00        NOP     
547d 00        NOP     
547e 00        NOP     
547f 00        NOP     
5480 00        NOP     
5481 00        NOP     
5482 00        NOP     
5483 00        NOP     
5484 00        NOP     
5485 00        NOP     
5486 00        NOP     
5487 00        NOP     
5488 00        NOP     
5489 00        NOP     
548a 00        NOP     
548b 00        NOP     
548c 00        NOP     
548d 00        NOP     
548e 00        NOP     
548f 00        NOP     
5490 00        NOP     
5491 00        NOP     
5492 00        NOP     
5493 00        NOP     
5494 00        NOP     
5495 00        NOP     
5496 00        NOP     
5497 00        NOP     
5498 00        NOP     
5499 00        NOP     
549a 00        NOP     
549b 00        NOP     
549c 00        NOP     
549d 00        NOP     
549e 00        NOP     
549f 00        NOP     
54a0 00        NOP     
54a1 00        NOP     
54a2 00        NOP     
54a3 00        NOP     
54a4 00        NOP     
54a5 00        NOP     
54a6 00        NOP     
54a7 00        NOP     
54a8 00        NOP     
54a9 00        NOP     
54aa 00        NOP     
54ab 00        NOP     
54ac 00        NOP     
54ad 00        NOP     
54ae 00        NOP     
54af 00        NOP     
54b0 00        NOP     
54b1 00        NOP     
54b2 00        NOP     
54b3 00        NOP     
54b4 00        NOP     
54b5 00        NOP     
54b6 00        NOP     
54b7 00        NOP     
54b8 00        NOP     
54b9 00        NOP     
54ba 00        NOP     
54bb 00        NOP     
54bc 00        NOP     
54bd 00        NOP     
54be 00        NOP     
54bf 00        NOP     
54c0 00        NOP     
54c1 00        NOP     
54c2 00        NOP     
54c3 00        NOP     
54c4 00        NOP     
54c5 00        NOP     
54c6 00        NOP     
54c7 00        NOP     
54c8 00        NOP     
54c9 00        NOP     
54ca 00        NOP     
54cb 00        NOP     
54cc 00        NOP     
54cd 00        NOP     
54ce 00        NOP     
54cf 00        NOP     
54d0 00        NOP     
54d1 00        NOP     
54d2 00        NOP     
54d3 00        NOP     
54d4 00        NOP     
54d5 00        NOP     
54d6 00        NOP     
54d7 00        NOP     
54d8 00        NOP     
54d9 00        NOP     
54da 00        NOP     
54db 00        NOP     
54dc 00        NOP     
54dd 00        NOP     
54de 00        NOP     
54df 00        NOP     
54e0 00        NOP     
54e1 00        NOP     
54e2 00        NOP     
54e3 00        NOP     
54e4 00        NOP     
54e5 00        NOP     
54e6 00        NOP     
54e7 00        NOP     
54e8 00        NOP     
54e9 00        NOP     
54ea 00        NOP     
54eb 00        NOP     
54ec 00        NOP     
54ed 00        NOP     
54ee 00        NOP     
54ef 00        NOP     
54f0 00        NOP     
54f1 00        NOP     
54f2 00        NOP     
54f3 00        NOP     
54f4 00        NOP     
54f5 00        NOP     
54f6 00        NOP     
54f7 00        NOP     
54f8 00        NOP     
54f9 00        NOP     
54fa 00        NOP     
54fb 00        NOP     
54fc 00        NOP     
54fd 00        NOP     
54fe 00        NOP     
54ff 00        NOP     
5500 00        NOP     
5501 00        NOP     
5502 00        NOP     
5503 00        NOP     
5504 00        NOP     
5505 00        NOP     
5506 00        NOP     
5507 00        NOP     
5508 00        NOP     
5509 00        NOP     
550a 00        NOP     
550b 00        NOP     
550c 00        NOP     
550d 00        NOP     
550e 00        NOP     
550f 00        NOP     
5510 00        NOP     
5511 00        NOP     
5512 00        NOP     
5513 00        NOP     
5514 00        NOP     
5515 00        NOP     
5516 00        NOP     
5517 00        NOP     
5518 00        NOP     
5519 00        NOP     
551a 00        NOP     
551b 00        NOP     
551c 00        NOP     
551d 00        NOP     
551e 00        NOP     
551f 00        NOP     
5520 00        NOP     
5521 00        NOP     
5522 00        NOP     
5523 00        NOP     
5524 00        NOP     
5525 00        NOP     
5526 00        NOP     
5527 00        NOP     
5528 00        NOP     
5529 00        NOP     
552a 00        NOP     
552b 00        NOP     
552c 00        NOP     
552d 00        NOP     
552e 00        NOP     
552f 00        NOP     
5530 00        NOP     
5531 00        NOP     
5532 00        NOP     
5533 00        NOP     
5534 00        NOP     
5535 00        NOP     
5536 00        NOP     
5537 00        NOP     
5538 00        NOP     
5539 00        NOP     
553a 00        NOP     
553b 00        NOP     
553c 00        NOP     
553d 00        NOP     
553e 00        NOP     
553f 00        NOP     
5540 00        NOP     
5541 00        NOP     
5542 00        NOP     
5543 00        NOP     
5544 00        NOP     
5545 00        NOP     
5546 00        NOP     
5547 00        NOP     
5548 00        NOP     
5549 00        NOP     
554a 00        NOP     
554b 00        NOP     
554c 00        NOP     
554d 00        NOP     
554e 00        NOP     
554f 00        NOP     
5550 00        NOP     
5551 00        NOP     
5552 00        NOP     
5553 00        NOP     
5554 00        NOP     
5555 00        NOP     
5556 00        NOP     
5557 00        NOP     
5558 00        NOP     
5559 00        NOP     
555a 00        NOP     
555b 00        NOP     
555c 00        NOP     
555d 00        NOP     
555e 00        NOP     
555f 00        NOP     
5560 00        NOP     
5561 00        NOP     
5562 00        NOP     
5563 00        NOP     
5564 00        NOP     
5565 00        NOP     
5566 00        NOP     
5567 00        NOP     
5568 00        NOP     
5569 00        NOP     
556a 00        NOP     
556b 00        NOP     
556c 00        NOP     
556d 00        NOP     
556e 00        NOP     
556f 00        NOP     
5570 00        NOP     
5571 00        NOP     
5572 00        NOP     
5573 00        NOP     
5574 00        NOP     
5575 00        NOP     
5576 00        NOP     
5577 00        NOP     
5578 00        NOP     
5579 00        NOP     
557a 00        NOP     
557b 00        NOP     
557c 00        NOP     
557d 00        NOP     
557e 00        NOP     
557f 00        NOP     
5580 00        NOP     
5581 00        NOP     
5582 00        NOP     
5583 00        NOP     
5584 00        NOP     
5585 00        NOP     
5586 00        NOP     
5587 00        NOP     
5588 00        NOP     
5589 00        NOP     
558a 00        NOP     
558b 00        NOP     
558c 00        NOP     
558d 00        NOP     
558e 00        NOP     
558f 00        NOP     
5590 00        NOP     
5591 00        NOP     
5592 00        NOP     
5593 00        NOP     
5594 00        NOP     
5595 00        NOP     
5596 00        NOP     
5597 00        NOP     
5598 00        NOP     
5599 00        NOP     
559a 00        NOP     
559b 00        NOP     
559c 00        NOP     
559d 00        NOP     
559e 00        NOP     
559f 00        NOP     
55a0 00        NOP     
55a1 00        NOP     
55a2 00        NOP     
55a3 00        NOP     
55a4 00        NOP     
55a5 00        NOP     
55a6 00        NOP     
55a7 00        NOP     
55a8 00        NOP     
55a9 00        NOP     
55aa 00        NOP     
55ab 00        NOP     
55ac 00        NOP     
55ad 00        NOP     
55ae 00        NOP     
55af 00        NOP     
55b0 00        NOP     
55b1 00        NOP     
55b2 00        NOP     
55b3 00        NOP     
55b4 00        NOP     
55b5 00        NOP     
55b6 00        NOP     
55b7 00        NOP     
55b8 00        NOP     
55b9 00        NOP     
55ba 00        NOP     
55bb 00        NOP     
55bc 00        NOP     
55bd 00        NOP     
55be 00        NOP     
55bf 00        NOP     
55c0 00        NOP     
55c1 00        NOP     
55c2 00        NOP     
55c3 00        NOP     
55c4 00        NOP     
55c5 00        NOP     
55c6 00        NOP     
55c7 00        NOP     
55c8 00        NOP     
55c9 00        NOP     
55ca 00        NOP     
55cb 00        NOP     
55cc 00        NOP     
55cd 00        NOP     
55ce 00        NOP     
55cf 00        NOP     
55d0 00        NOP     
55d1 00        NOP     
55d2 00        NOP     
55d3 00        NOP     
55d4 00        NOP     
55d5 00        NOP     
55d6 00        NOP     
55d7 00        NOP     
55d8 00        NOP     
55d9 00        NOP     
55da 00        NOP     
55db 00        NOP     
55dc 00        NOP     
55dd 00        NOP     
55de 00        NOP     
55df 00        NOP     
55e0 00        NOP     
55e1 00        NOP     
55e2 00        NOP     
55e3 00        NOP     
55e4 00        NOP     
55e5 00        NOP     
55e6 00        NOP     
55e7 00        NOP     
55e8 00        NOP     
55e9 00        NOP     
55ea 00        NOP     
55eb 00        NOP     
55ec 00        NOP     
55ed 00        NOP     
55ee 00        NOP     
55ef 00        NOP     
55f0 00        NOP     
55f1 00        NOP     
55f2 00        NOP     
55f3 00        NOP     
55f4 00        NOP     
55f5 00        NOP     
55f6 00        NOP     
55f7 00        NOP     
55f8 00        NOP     
55f9 00        NOP     
55fa 00        NOP     
55fb 00        NOP     
55fc 00        NOP     
55fd 00        NOP     
55fe 00        NOP     
55ff 00        NOP     
5600 00        NOP     
5601 00        NOP     
5602 00        NOP     
5603 00        NOP     
5604 00        NOP     
5605 00        NOP     
5606 00        NOP     
5607 00        NOP     
5608 00        NOP     
5609 00        NOP     
560a 00        NOP     
560b 00        NOP     
560c 00        NOP     
560d 00        NOP     
560e 00        NOP     
560f 00        NOP     
5610 00        NOP     
5611 00        NOP     
5612 00        NOP     
5613 00        NOP     
5614 00        NOP     
5615 00        NOP     
5616 00        NOP     
5617 00        NOP     
5618 00        NOP     
5619 00        NOP     
561a 00        NOP     
561b 00        NOP     
561c 00        NOP     
561d 00        NOP     
561e 00        NOP     
561f 00        NOP     
5620 00        NOP     
5621 00        NOP     
5622 00        NOP     
5623 00        NOP     
5624 00        NOP     
5625 00        NOP     
5626 00        NOP     
5627 00        NOP     
5628 00        NOP     
5629 00        NOP     
562a 00        NOP     
562b 00        NOP     
562c 00        NOP     
562d 00        NOP     
562e 00        NOP     
562f 00        NOP     
5630 00        NOP     
5631 00        NOP     
5632 00        NOP     
5633 00        NOP     
5634 00        NOP     
5635 00        NOP     
5636 00        NOP     
5637 00        NOP     
5638 00        NOP     
5639 00        NOP     
563a 00        NOP     
563b 00        NOP     
563c 00        NOP     
563d 00        NOP     
563e 00        NOP     
563f 00        NOP     
5640 00        NOP     
5641 00        NOP     
5642 00        NOP     
5643 00        NOP     
5644 00        NOP     
5645 00        NOP     
5646 00        NOP     
5647 00        NOP     
5648 00        NOP     
5649 00        NOP     
564a 00        NOP     
564b 00        NOP     
564c 00        NOP     
564d 00        NOP     
564e 00        NOP     
564f 00        NOP     
5650 00        NOP     
5651 00        NOP     
5652 00        NOP     
5653 00        NOP     
5654 00        NOP     
5655 00        NOP     
5656 00        NOP     
5657 00        NOP     
5658 00        NOP     
5659 00        NOP     
565a 00        NOP     
565b 00        NOP     
565c 00        NOP     
565d 00        NOP     
565e 00        NOP     
565f 00        NOP     
5660 00        NOP     
5661 00        NOP     
5662 00        NOP     
5663 00        NOP     
5664 00        NOP     
5665 00        NOP     
5666 00        NOP     
5667 00        NOP     
5668 00        NOP     
5669 00        NOP     
566a 00        NOP     
566b 00        NOP     
566c 00        NOP     
566d 00        NOP     
566e 00        NOP     
566f 00        NOP     
5670 00        NOP     
5671 00        NOP     
5672 00        NOP     
5673 00        NOP     
5674 00        NOP     
5675 00        NOP     
5676 00        NOP     
5677 00        NOP     
5678 00        NOP     
5679 00        NOP     
567a 00        NOP     
567b 00        NOP     
567c 00        NOP     
567d 00        NOP     
567e 00        NOP     
567f 00        NOP     
5680 00        NOP     
5681 00        NOP     
5682 00        NOP     
5683 00        NOP     
5684 00        NOP     
5685 00        NOP     
5686 00        NOP     
5687 00        NOP     
5688 00        NOP     
5689 00        NOP     
568a 00        NOP     
568b 00        NOP     
568c 00        NOP     
568d 00        NOP     
568e 00        NOP     
568f 00        NOP     
5690 00        NOP     
5691 00        NOP     
5692 00        NOP     
5693 00        NOP     
5694 00        NOP     
5695 00        NOP     
5696 00        NOP     
5697 00        NOP     
5698 00        NOP     
5699 00        NOP     
569a 00        NOP     
569b 00        NOP     
569c 00        NOP     
569d 00        NOP     
569e 00        NOP     
569f 00        NOP     
56a0 00        NOP     
56a1 00        NOP     
56a2 00        NOP     
56a3 00        NOP     
56a4 00        NOP     
56a5 00        NOP     
56a6 00        NOP     
56a7 00        NOP     
56a8 00        NOP     
56a9 00        NOP     
56aa 00        NOP     
56ab 00        NOP     
56ac 00        NOP     
56ad 00        NOP     
56ae 00        NOP     
56af 00        NOP     
56b0 00        NOP     
56b1 00        NOP     
56b2 00        NOP     
56b3 00        NOP     
56b4 00        NOP     
56b5 00        NOP     
56b6 00        NOP     
56b7 00        NOP     
56b8 00        NOP     
56b9 00        NOP     
56ba 00        NOP     
56bb 00        NOP     
56bc 00        NOP     
56bd 00        NOP     
56be 00        NOP     
56bf 00        NOP     
56c0 00        NOP     
56c1 00        NOP     
56c2 00        NOP     
56c3 00        NOP     
56c4 00        NOP     
56c5 00        NOP     
56c6 00        NOP     
56c7 00        NOP     
56c8 00        NOP     
56c9 00        NOP     
56ca 00        NOP     
56cb 00        NOP     
56cc 00        NOP     
56cd 00        NOP     
56ce 00        NOP     
56cf 00        NOP     
56d0 00        NOP     
56d1 00        NOP     
56d2 00        NOP     
56d3 00        NOP     
56d4 00        NOP     
56d5 00        NOP     
56d6 00        NOP     
56d7 00        NOP     
56d8 00        NOP     
56d9 00        NOP     
56da 00        NOP     
56db 00        NOP     
56dc 00        NOP     
56dd 00        NOP     
56de 00        NOP     
56df 00        NOP     
56e0 00        NOP     
56e1 00        NOP     
56e2 00        NOP     
56e3 00        NOP     
56e4 00        NOP     
56e5 00        NOP     
56e6 00        NOP     
56e7 00        NOP     
56e8 00        NOP     
56e9 00        NOP     
56ea 00        NOP     
56eb 00        NOP     
56ec 00        NOP     
56ed 00        NOP     
56ee 00        NOP     
56ef 00        NOP     
56f0 00        NOP     
56f1 00        NOP     
56f2 00        NOP     
56f3 00        NOP     
56f4 00        NOP     
56f5 00        NOP     
56f6 00        NOP     
56f7 00        NOP     
56f8 00        NOP     
56f9 00        NOP     
56fa 00        NOP     
56fb 00        NOP     
56fc 00        NOP     
56fd 00        NOP     
56fe 00        NOP     
56ff 00        NOP     
5700 00        NOP     
5701 00        NOP     
5702 00        NOP     
5703 00        NOP     
5704 00        NOP     
5705 00        NOP     
5706 00        NOP     
5707 00        NOP     
5708 00        NOP     
5709 00        NOP     
570a 00        NOP     
570b 00        NOP     
570c 00        NOP     
570d 00        NOP     
570e 00        NOP     
570f 00        NOP     
5710 00        NOP     
5711 00        NOP     
5712 00        NOP     
5713 00        NOP     
5714 00        NOP     
5715 00        NOP     
5716 00        NOP     
5717 00        NOP     
5718 00        NOP     
5719 00        NOP     
571a 00        NOP     
571b 00        NOP     
571c 00        NOP     
571d 00        NOP     
571e 00        NOP     
571f 00        NOP     
5720 00        NOP     
5721 00        NOP     
5722 00        NOP     
5723 00        NOP     
5724 00        NOP     
5725 00        NOP     
5726 00        NOP     
5727 00        NOP     
5728 00        NOP     
5729 00        NOP     
572a 00        NOP     
572b 00        NOP     
572c 00        NOP     
572d 00        NOP     
572e 00        NOP     
572f 00        NOP     
5730 00        NOP     
5731 00        NOP     
5732 00        NOP     
5733 00        NOP     
5734 00        NOP     
5735 00        NOP     
5736 00        NOP     
5737 00        NOP     
5738 00        NOP     
5739 00        NOP     
573a 00        NOP     
573b 00        NOP     
573c 00        NOP     
573d 00        NOP     
573e 00        NOP     
573f 00        NOP     
5740 00        NOP     
5741 00        NOP     
5742 00        NOP     
5743 00        NOP     
5744 00        NOP     
5745 00        NOP     
5746 00        NOP     
5747 00        NOP     
5748 00        NOP     
5749 00        NOP     
574a 00        NOP     
574b 00        NOP     
574c 00        NOP     
574d 00        NOP     
574e 00        NOP     
574f 00        NOP     
5750 00        NOP     
5751 00        NOP     
5752 00        NOP     
5753 00        NOP     
5754 00        NOP     
5755 00        NOP     
5756 00        NOP     
5757 00        NOP     
5758 00        NOP     
5759 00        NOP     
575a 00        NOP     
575b 00        NOP     
575c 00        NOP     
575d 00        NOP     
575e 00        NOP     
575f 00        NOP     
5760 00        NOP     
5761 00        NOP     
5762 00        NOP     
5763 00        NOP     
5764 00        NOP     
5765 00        NOP     
5766 00        NOP     
5767 00        NOP     
5768 00        NOP     
5769 00        NOP     
576a 00        NOP     
576b 00        NOP     
576c 00        NOP     
576d 00        NOP     
576e 00        NOP     
576f 00        NOP     
5770 00        NOP     
5771 00        NOP     
5772 00        NOP     
5773 00        NOP     
5774 00        NOP     
5775 00        NOP     
5776 00        NOP     
5777 00        NOP     
5778 00        NOP     
5779 00        NOP     
577a 00        NOP     
577b 00        NOP     
577c 00        NOP     
577d 00        NOP     
577e 00        NOP     
577f 00        NOP     
5780 00        NOP     
5781 00        NOP     
5782 00        NOP     
5783 00        NOP     
5784 00        NOP     
5785 00        NOP     
5786 00        NOP     
5787 00        NOP     
5788 00        NOP     
5789 00        NOP     
578a 00        NOP     
578b 00        NOP     
578c 00        NOP     
578d 00        NOP     
578e 00        NOP     
578f 00        NOP     
5790 00        NOP     
5791 00        NOP     
5792 00        NOP     
5793 00        NOP     
5794 00        NOP     
5795 00        NOP     
5796 00        NOP     
5797 00        NOP     
5798 00        NOP     
5799 00        NOP     
579a 00        NOP     
579b 00        NOP     
579c 00        NOP     
579d 00        NOP     
579e 00        NOP     
579f 00        NOP     
57a0 00        NOP     
57a1 00        NOP     
57a2 00        NOP     
57a3 00        NOP     
57a4 00        NOP     
57a5 00        NOP     
57a6 00        NOP     
57a7 00        NOP     
57a8 00        NOP     
57a9 00        NOP     
57aa 00        NOP     
57ab 00        NOP     
57ac 00        NOP     
57ad 00        NOP     
57ae 00        NOP     
57af 00        NOP     
57b0 00        NOP     
57b1 00        NOP     
57b2 00        NOP     
57b3 00        NOP     
57b4 00        NOP     
57b5 00        NOP     
57b6 00        NOP     
57b7 00        NOP     
57b8 00        NOP     
57b9 00        NOP     
57ba 00        NOP     
57bb 00        NOP     
57bc 00        NOP     
57bd 00        NOP     
57be 00        NOP     
57bf 00        NOP     
57c0 00        NOP     
57c1 00        NOP     
57c2 00        NOP     
57c3 00        NOP     
57c4 00        NOP     
57c5 00        NOP     
57c6 00        NOP     
57c7 00        NOP     
57c8 00        NOP     
57c9 00        NOP     
57ca 00        NOP     
57cb 00        NOP     
57cc 00        NOP     
57cd 00        NOP     
57ce 00        NOP     
57cf 00        NOP     
57d0 00        NOP     
57d1 00        NOP     
57d2 00        NOP     
57d3 00        NOP     
57d4 00        NOP     
57d5 00        NOP     
57d6 00        NOP     
57d7 00        NOP     
57d8 00        NOP     
57d9 00        NOP     
57da 00        NOP     
57db 00        NOP     
57dc 00        NOP     
57dd 00        NOP     
57de 00        NOP     
57df 00        NOP     
57e0 00        NOP     
57e1 00        NOP     
57e2 00        NOP     
57e3 00        NOP     
57e4 00        NOP     
57e5 00        NOP     
57e6 00        NOP     
57e7 00        NOP     
57e8 00        NOP     
57e9 00        NOP     
57ea 00        NOP     
57eb 00        NOP     
57ec 00        NOP     
57ed 00        NOP     
57ee 00        NOP     
57ef 00        NOP     
57f0 00        NOP     
57f1 00        NOP     
57f2 00        NOP     
57f3 00        NOP     
57f4 00        NOP     
57f5 00        NOP     
57f6 00        NOP     
57f7 00        NOP     
57f8 00        NOP     
57f9 00        NOP     
57fa 00        NOP     
57fb 00        NOP     
57fc 00        NOP     
57fd 00        NOP     
57fe 00        NOP     
57ff 00        NOP     
5800 00        NOP     
5801 00        NOP     
5802 00        NOP     
5803 00        NOP     
5804 00        NOP     
5805 00        NOP     
5806 00        NOP     
5807 00        NOP     
5808 00        NOP     
5809 00        NOP     
580a 00        NOP     
580b 00        NOP     
580c 00        NOP     
580d 00        NOP     
580e 00        NOP     
580f 00        NOP     
5810 00        NOP     
5811 00        NOP     
5812 00        NOP     
5813 00        NOP     
5814 00        NOP     
5815 00        NOP     
5816 00        NOP     
5817 00        NOP     
5818 00        NOP     
5819 00        NOP     
581a 00        NOP     
581b 00        NOP     
581c 00        NOP     
581d 00        NOP     
581e 00        NOP     
581f 00        NOP     
5820 00        NOP     
5821 00        NOP     
5822 00        NOP     
5823 00        NOP     
5824 00        NOP     
5825 00        NOP     
5826 00        NOP     
5827 00        NOP     
5828 00        NOP     
5829 00        NOP     
582a 00        NOP     
582b 00        NOP     
582c 00        NOP     
582d 00        NOP     
582e 00        NOP     
582f 00        NOP     
5830 00        NOP     
5831 00        NOP     
5832 00        NOP     
5833 00        NOP     
5834 00        NOP     
5835 00        NOP     
5836 00        NOP     
5837 00        NOP     
5838 00        NOP     
5839 00        NOP     
583a 00        NOP     
583b 00        NOP     
583c 00        NOP     
583d 00        NOP     
583e 00        NOP     
583f 00        NOP     
5840 00        NOP     
5841 00        NOP     
5842 00        NOP     
5843 00        NOP     
5844 00        NOP     
5845 00        NOP     
5846 00        NOP     
5847 00        NOP     
5848 00        NOP     
5849 00        NOP     
584a 00        NOP     
584b 00        NOP     
584c 00        NOP     
584d 00        NOP     
584e 00        NOP     
584f 00        NOP     
5850 00        NOP     
5851 00        NOP     
5852 00        NOP     
5853 00        NOP     
5854 00        NOP     
5855 00        NOP     
5856 00        NOP     
5857 00        NOP     
5858 00        NOP     
5859 00        NOP     
585a 00        NOP     
585b 00        NOP     
585c 00        NOP     
585d 00        NOP     
585e 00        NOP     
585f 00        NOP     
5860 00        NOP     
5861 00        NOP     
5862 00        NOP     
5863 00        NOP     
5864 00        NOP     
5865 00        NOP     
5866 00        NOP     
5867 00        NOP     
5868 00        NOP     
5869 00        NOP     
586a 00        NOP     
586b 00        NOP     
586c 00        NOP     
586d 00        NOP     
586e 00        NOP     
586f 00        NOP     
5870 00        NOP     
5871 00        NOP     
5872 00        NOP     
5873 00        NOP     
5874 00        NOP     
5875 00        NOP     
5876 00        NOP     
5877 00        NOP     
5878 00        NOP     
5879 00        NOP     
587a 00        NOP     
587b 00        NOP     
587c 00        NOP     
587d 00        NOP     
587e 00        NOP     
587f 00        NOP     
5880 00        NOP     
5881 00        NOP     
5882 00        NOP     
5883 00        NOP     
5884 00        NOP     
5885 00        NOP     
5886 00        NOP     
5887 00        NOP     
5888 00        NOP     
5889 00        NOP     
588a 00        NOP     
588b 00        NOP     
588c 00        NOP     
588d 00        NOP     
588e 00        NOP     
588f 00        NOP     
5890 00        NOP     
5891 00        NOP     
5892 00        NOP     
5893 00        NOP     
5894 00        NOP     
5895 00        NOP     
5896 00        NOP     
5897 00        NOP     
5898 00        NOP     
5899 00        NOP     
589a 00        NOP     
589b 00        NOP     
589c 00        NOP     
589d 00        NOP     
589e 00        NOP     
589f 00        NOP     
58a0 00        NOP     
58a1 00        NOP     
58a2 00        NOP     
58a3 00        NOP     
58a4 00        NOP     
58a5 00        NOP     
58a6 00        NOP     
58a7 00        NOP     
58a8 00        NOP     
58a9 00        NOP     
58aa 00        NOP     
58ab 00        NOP     
58ac 00        NOP     
58ad 00        NOP     
58ae 00        NOP     
58af 00        NOP     
58b0 00        NOP     
58b1 00        NOP     
58b2 00        NOP     
58b3 00        NOP     
58b4 00        NOP     
58b5 00        NOP     
58b6 00        NOP     
58b7 00        NOP     
58b8 00        NOP     
58b9 00        NOP     
58ba 00        NOP     
58bb 00        NOP     
58bc 00        NOP     
58bd 00        NOP     
58be 00        NOP     
58bf 00        NOP     
58c0 00        NOP     
58c1 00        NOP     
58c2 00        NOP     
58c3 00        NOP     
58c4 00        NOP     
58c5 00        NOP     
58c6 00        NOP     
58c7 00        NOP     
58c8 00        NOP     
58c9 00        NOP     
58ca 00        NOP     
58cb 00        NOP     
58cc 00        NOP     
58cd 00        NOP     
58ce 00        NOP     
58cf 00        NOP     
58d0 00        NOP     
58d1 00        NOP     
58d2 00        NOP     
58d3 00        NOP     
58d4 00        NOP     
58d5 00        NOP     
58d6 00        NOP     
58d7 00        NOP     
58d8 00        NOP     
58d9 00        NOP     
58da 00        NOP     
58db 00        NOP     
58dc 00        NOP     
58dd 00        NOP     
58de 00        NOP     
58df 00        NOP     
58e0 00        NOP     
58e1 00        NOP     
58e2 00        NOP     
58e3 00        NOP     
58e4 00        NOP     
58e5 00        NOP     
58e6 00        NOP     
58e7 00        NOP     
58e8 00        NOP     
58e9 00        NOP     
58ea 00        NOP     
58eb 00        NOP     
58ec 00        NOP     
58ed 00        NOP     
58ee 00        NOP     
58ef 00        NOP     
58f0 00        NOP     
58f1 00        NOP     
58f2 00        NOP     
58f3 00        NOP     
58f4 00        NOP     
58f5 00        NOP     
58f6 00        NOP     
58f7 00        NOP     
58f8 00        NOP     
58f9 00        NOP     
58fa 00        NOP     
58fb 00        NOP     
58fc 00        NOP     
58fd 00        NOP     
58fe 00        NOP     
58ff 00        NOP     
5900 00        NOP     
5901 00        NOP     
5902 00        NOP     
5903 00        NOP     
5904 00        NOP     
5905 00        NOP     
5906 00        NOP     
5907 00        NOP     
5908 00        NOP     
5909 00        NOP     
590a 00        NOP     
590b 00        NOP     
590c 00        NOP     
590d 00        NOP     
590e 00        NOP     
590f 00        NOP     
5910 00        NOP     
5911 00        NOP     
5912 00        NOP     
5913 00        NOP     
5914 00        NOP     
5915 00        NOP     
5916 00        NOP     
5917 00        NOP     
5918 00        NOP     
5919 00        NOP     
591a 00        NOP     
591b 00        NOP     
591c 00        NOP     
591d 00        NOP     
591e 00        NOP     
591f 00        NOP     
5920 00        NOP     
5921 00        NOP     
5922 00        NOP     
5923 00        NOP     
5924 00        NOP     
5925 00        NOP     
5926 00        NOP     
5927 00        NOP     
5928 00        NOP     
5929 00        NOP     
592a 00        NOP     
592b 00        NOP     
592c 00        NOP     
592d 00        NOP     
592e 00        NOP     
592f 00        NOP     
5930 00        NOP     
5931 00        NOP     
5932 00        NOP     
5933 00        NOP     
5934 00        NOP     
5935 00        NOP     
5936 00        NOP     
5937 00        NOP     
5938 00        NOP     
5939 00        NOP     
593a 00        NOP     
593b 00        NOP     
593c 00        NOP     
593d 00        NOP     
593e 00        NOP     
593f 00        NOP     
5940 00        NOP     
5941 00        NOP     
5942 00        NOP     
5943 00        NOP     
5944 00        NOP     
5945 00        NOP     
5946 00        NOP     
5947 00        NOP     
5948 00        NOP     
5949 00        NOP     
594a 00        NOP     
594b 00        NOP     
594c 00        NOP     
594d 00        NOP     
594e 00        NOP     
594f 00        NOP     
5950 00        NOP     
5951 00        NOP     
5952 00        NOP     
5953 00        NOP     
5954 00        NOP     
5955 00        NOP     
5956 00        NOP     
5957 00        NOP     
5958 00        NOP     
5959 00        NOP     
595a 00        NOP     
595b 00        NOP     
595c 00        NOP     
595d 00        NOP     
595e 00        NOP     
595f 00        NOP     
5960 00        NOP     
5961 00        NOP     
5962 00        NOP     
5963 00        NOP     
5964 00        NOP     
5965 00        NOP     
5966 00        NOP     
5967 00        NOP     
5968 00        NOP     
5969 00        NOP     
596a 00        NOP     
596b 00        NOP     
596c 00        NOP     
596d 00        NOP     
596e 00        NOP     
596f 00        NOP     
5970 00        NOP     
5971 00        NOP     
5972 00        NOP     
5973 00        NOP     
5974 00        NOP     
5975 00        NOP     
5976 00        NOP     
5977 00        NOP     
5978 00        NOP     
5979 00        NOP     
597a 00        NOP     
597b 00        NOP     
597c 00        NOP     
597d 00        NOP     
597e 00        NOP     
597f 00        NOP     
5980 00        NOP     
5981 00        NOP     
5982 00        NOP     
5983 00        NOP     
5984 00        NOP     
5985 00        NOP     
5986 00        NOP     
5987 00        NOP     
5988 00        NOP     
5989 00        NOP     
598a 00        NOP     
598b 00        NOP     
598c 00        NOP     
598d 00        NOP     
598e 00        NOP     
598f 00        NOP     
5990 00        NOP     
5991 00        NOP     
5992 00        NOP     
5993 00        NOP     
5994 00        NOP     
5995 00        NOP     
5996 00        NOP     
5997 00        NOP     
5998 00        NOP     
5999 00        NOP     
599a 00        NOP     
599b 00        NOP     
599c 00        NOP     
599d 00        NOP     
599e 00        NOP     
599f 00        NOP     
59a0 00        NOP     
59a1 00        NOP     
59a2 00        NOP     
59a3 00        NOP     
59a4 00        NOP     
59a5 00        NOP     
59a6 00        NOP     
59a7 00        NOP     
59a8 00        NOP     
59a9 00        NOP     
59aa 00        NOP     
59ab 00        NOP     
59ac 00        NOP     
59ad 00        NOP     
59ae 00        NOP     
59af 00        NOP     
59b0 00        NOP     
59b1 00        NOP     
59b2 00        NOP     
59b3 00        NOP     
59b4 00        NOP     
59b5 00        NOP     
59b6 00        NOP     
59b7 00        NOP     
59b8 00        NOP     
59b9 00        NOP     
59ba 00        NOP     
59bb 00        NOP     
59bc 00        NOP     
59bd 00        NOP     
59be 00        NOP     
59bf 00        NOP     
59c0 00        NOP     
59c1 00        NOP     
59c2 00        NOP     
59c3 00        NOP     
59c4 00        NOP     
59c5 00        NOP     
59c6 00        NOP     
59c7 00        NOP     
59c8 00        NOP     
59c9 00        NOP     
59ca 00        NOP     
59cb 00        NOP     
59cc 00        NOP     
59cd 00        NOP     
59ce 00        NOP     
59cf 00        NOP     
59d0 00        NOP     
59d1 00        NOP     
59d2 00        NOP     
59d3 00        NOP     
59d4 00        NOP     
59d5 00        NOP     
59d6 00        NOP     
59d7 00        NOP     
59d8 00        NOP     
59d9 00        NOP     
59da 00        NOP     
59db 00        NOP     
59dc 00        NOP     
59dd 00        NOP     
59de 00        NOP     
59df 00        NOP     
59e0 00        NOP     
59e1 00        NOP     
59e2 00        NOP     
59e3 00        NOP     
59e4 00        NOP     
59e5 00        NOP     
59e6 00        NOP     
59e7 00        NOP     
59e8 00        NOP     
59e9 00        NOP     
59ea 00        NOP     
59eb 00        NOP     
59ec 00        NOP     
59ed 00        NOP     
59ee 00        NOP     
59ef 00        NOP     
59f0 00        NOP     
59f1 00        NOP     
59f2 00        NOP     
59f3 00        NOP     
59f4 00        NOP     
59f5 00        NOP     
59f6 00        NOP     
59f7 00        NOP     
59f8 00        NOP     
59f9 00        NOP     
59fa 00        NOP     
59fb 00        NOP     
59fc 00        NOP     
59fd 00        NOP     
59fe 00        NOP     
59ff 00        NOP     
5a00 00        NOP     
5a01 00        NOP     
5a02 00        NOP     
5a03 00        NOP     
5a04 00        NOP     
5a05 00        NOP     
5a06 00        NOP     
5a07 00        NOP     
5a08 00        NOP     
5a09 00        NOP     
5a0a 00        NOP     
5a0b 00        NOP     
5a0c 00        NOP     
5a0d 00        NOP     
5a0e 00        NOP     
5a0f 00        NOP     
5a10 00        NOP     
5a11 00        NOP     
5a12 00        NOP     
5a13 00        NOP     
5a14 00        NOP     
5a15 00        NOP     
5a16 00        NOP     
5a17 00        NOP     
5a18 00        NOP     
5a19 00        NOP     
5a1a 00        NOP     
5a1b 00        NOP     
5a1c 00        NOP     
5a1d 00        NOP     
5a1e 00        NOP     
5a1f 00        NOP     
5a20 00        NOP     
5a21 00        NOP     
5a22 00        NOP     
5a23 00        NOP     
5a24 00        NOP     
5a25 00        NOP     
5a26 00        NOP     
5a27 00        NOP     
5a28 00        NOP     
5a29 00        NOP     
5a2a 00        NOP     
5a2b 00        NOP     
5a2c 00        NOP     
5a2d 00        NOP     
5a2e 00        NOP     
5a2f 00        NOP     
5a30 00        NOP     
5a31 00        NOP     
5a32 00        NOP     
5a33 00        NOP     
5a34 00        NOP     
5a35 00        NOP     
5a36 00        NOP     
5a37 00        NOP     
5a38 00        NOP     
5a39 00        NOP     
5a3a 00        NOP     
5a3b 00        NOP     
5a3c 00        NOP     
5a3d 00        NOP     
5a3e 00        NOP     
5a3f 00        NOP     
5a40 00        NOP     
5a41 00        NOP     
5a42 00        NOP     
5a43 00        NOP     
5a44 00        NOP     
5a45 00        NOP     
5a46 00        NOP     
5a47 00        NOP     
5a48 00        NOP     
5a49 00        NOP     
5a4a 00        NOP     
5a4b 00        NOP     
5a4c 00        NOP     
5a4d 00        NOP     
5a4e 00        NOP     
5a4f 00        NOP     
5a50 00        NOP     
5a51 00        NOP     
5a52 00        NOP     
5a53 00        NOP     
5a54 00        NOP     
5a55 00        NOP     
5a56 00        NOP     
5a57 00        NOP     
5a58 00        NOP     
5a59 00        NOP     
5a5a 00        NOP     
5a5b 00        NOP     
5a5c 00        NOP     
5a5d 00        NOP     
5a5e 00        NOP     
5a5f 00        NOP     
5a60 00        NOP     
5a61 00        NOP     
5a62 00        NOP     
5a63 00        NOP     
5a64 00        NOP     
5a65 00        NOP     
5a66 00        NOP     
5a67 00        NOP     
5a68 00        NOP     
5a69 00        NOP     
5a6a 00        NOP     
5a6b 00        NOP     
5a6c 00        NOP     
5a6d 00        NOP     
5a6e 00        NOP     
5a6f 00        NOP     
5a70 00        NOP     
5a71 00        NOP     
5a72 00        NOP     
5a73 00        NOP     
5a74 00        NOP     
5a75 00        NOP     
5a76 00        NOP     
5a77 00        NOP     
5a78 00        NOP     
5a79 00        NOP     
5a7a 00        NOP     
5a7b 00        NOP     
5a7c 00        NOP     
5a7d 00        NOP     
5a7e 00        NOP     
5a7f 00        NOP     
5a80 00        NOP     
5a81 00        NOP     
5a82 00        NOP     
5a83 00        NOP     
5a84 00        NOP     
5a85 00        NOP     
5a86 00        NOP     
5a87 00        NOP     
5a88 00        NOP     
5a89 00        NOP     
5a8a 00        NOP     
5a8b 00        NOP     
5a8c 00        NOP     
5a8d 00        NOP     
5a8e 00        NOP     
5a8f 00        NOP     
5a90 00        NOP     
5a91 00        NOP     
5a92 00        NOP     
5a93 00        NOP     
5a94 00        NOP     
5a95 00        NOP     
5a96 00        NOP     
5a97 00        NOP     
5a98 00        NOP     
5a99 00        NOP     
5a9a 00        NOP     
5a9b 00        NOP     
5a9c 00        NOP     
5a9d 00        NOP     
5a9e 00        NOP     
5a9f 00        NOP     
5aa0 00        NOP     
5aa1 00        NOP     
5aa2 00        NOP     
5aa3 00        NOP     
5aa4 00        NOP     
5aa5 00        NOP     
5aa6 00        NOP     
5aa7 00        NOP     
5aa8 00        NOP     
5aa9 00        NOP     
5aaa 00        NOP     
5aab 00        NOP     
5aac 00        NOP     
5aad 00        NOP     
5aae 00        NOP     
5aaf 00        NOP     
5ab0 00        NOP     
5ab1 00        NOP     
5ab2 00        NOP     
5ab3 00        NOP     
5ab4 00        NOP     
5ab5 00        NOP     
5ab6 00        NOP     
5ab7 00        NOP     
5ab8 00        NOP     
5ab9 00        NOP     
5aba 00        NOP     
5abb 00        NOP     
5abc 00        NOP     
5abd 00        NOP     
5abe 00        NOP     
5abf 00        NOP     
5ac0 00        NOP     
5ac1 00        NOP     
5ac2 00        NOP     
5ac3 00        NOP     
5ac4 00        NOP     
5ac5 00        NOP     
5ac6 00        NOP     
5ac7 00        NOP     
5ac8 00        NOP     
5ac9 00        NOP     
5aca 00        NOP     
5acb 00        NOP     
5acc 00        NOP     
5acd 00        NOP     
5ace 00        NOP     
5acf 00        NOP     
5ad0 00        NOP     
5ad1 00        NOP     
5ad2 00        NOP     
5ad3 00        NOP     
5ad4 00        NOP     
5ad5 00        NOP     
5ad6 00        NOP     
5ad7 00        NOP     
5ad8 00        NOP     
5ad9 00        NOP     
5ada 00        NOP     
5adb 00        NOP     
5adc 00        NOP     
5add 00        NOP     
5ade 00        NOP     
5adf 00        NOP     
5ae0 00        NOP     
5ae1 00        NOP     
5ae2 00        NOP     
5ae3 00        NOP     
5ae4 00        NOP     
5ae5 00        NOP     
5ae6 00        NOP     
5ae7 00        NOP     
5ae8 00        NOP     
5ae9 00        NOP     
5aea 00        NOP     
5aeb 00        NOP     
5aec 00        NOP     
5aed 00        NOP     
5aee 00        NOP     
5aef 00        NOP     
5af0 00        NOP     
5af1 00        NOP     
5af2 00        NOP     
5af3 00        NOP     
5af4 00        NOP     
5af5 00        NOP     
5af6 00        NOP     
5af7 00        NOP     
5af8 00        NOP     
5af9 00        NOP     
5afa 00        NOP     
5afb 00        NOP     
5afc 00        NOP     
5afd 00        NOP     
5afe 00        NOP     
5aff 00        NOP     
5b00 00        NOP     
5b01 00        NOP     
5b02 00        NOP     
5b03 00        NOP     
5b04 00        NOP     
5b05 00        NOP     
5b06 00        NOP     
5b07 00        NOP     
5b08 00        NOP     
5b09 00        NOP     
5b0a 00        NOP     
5b0b 00        NOP     
5b0c 00        NOP     
5b0d 00        NOP     
5b0e 00        NOP     
5b0f 00        NOP     
5b10 00        NOP     
5b11 00        NOP     
5b12 00        NOP     
5b13 00        NOP     
5b14 00        NOP     
5b15 00        NOP     
5b16 00        NOP     
5b17 00        NOP     
5b18 00        NOP     
5b19 00        NOP     
5b1a 00        NOP     
5b1b 00        NOP     
5b1c 00        NOP     
5b1d 00        NOP     
5b1e 00        NOP     
5b1f 00        NOP     
5b20 00        NOP     
5b21 00        NOP     
5b22 00        NOP     
5b23 00        NOP     
5b24 00        NOP     
5b25 00        NOP     
5b26 00        NOP     
5b27 00        NOP     
5b28 00        NOP     
5b29 00        NOP     
5b2a 00        NOP     
5b2b 00        NOP     
5b2c 00        NOP     
5b2d 00        NOP     
5b2e 00        NOP     
5b2f 00        NOP     
5b30 00        NOP     
5b31 00        NOP     
5b32 00        NOP     
5b33 00        NOP     
5b34 00        NOP     
5b35 00        NOP     
5b36 00        NOP     
5b37 00        NOP     
5b38 00        NOP     
5b39 00        NOP     
5b3a 00        NOP     
5b3b 00        NOP     
5b3c 00        NOP     
5b3d 00        NOP     
5b3e 00        NOP     
5b3f 00        NOP     
5b40 00        NOP     
5b41 00        NOP     
5b42 00        NOP     
5b43 00        NOP     
5b44 00        NOP     
5b45 00        NOP     
5b46 00        NOP     
5b47 00        NOP     
5b48 00        NOP     
5b49 00        NOP     
5b4a 00        NOP     
5b4b 00        NOP     
5b4c 00        NOP     
5b4d 00        NOP     
5b4e 00        NOP     
5b4f 00        NOP     
5b50 00        NOP     
5b51 00        NOP     
5b52 00        NOP     
5b53 00        NOP     
5b54 00        NOP     
5b55 00        NOP     
5b56 00        NOP     
5b57 00        NOP     
5b58 00        NOP     
5b59 00        NOP     
5b5a 00        NOP     
5b5b 00        NOP     
5b5c 00        NOP     
5b5d 00        NOP     
5b5e 00        NOP     
5b5f 00        NOP     
5b60 00        NOP     
5b61 00        NOP     
5b62 00        NOP     
5b63 00        NOP     
5b64 00        NOP     
5b65 00        NOP     
5b66 00        NOP     
5b67 00        NOP     
5b68 00        NOP     
5b69 00        NOP     
5b6a 00        NOP     
5b6b 00        NOP     
5b6c 00        NOP     
5b6d 00        NOP     
5b6e 00        NOP     
5b6f 00        NOP     
5b70 00        NOP     
5b71 00        NOP     
5b72 00        NOP     
5b73 00        NOP     
5b74 00        NOP     
5b75 00        NOP     
5b76 00        NOP     
5b77 00        NOP     
5b78 00        NOP     
5b79 00        NOP     
5b7a 00        NOP     
5b7b 00        NOP     
5b7c 00        NOP     
5b7d 00        NOP     
5b7e 00        NOP     
5b7f 00        NOP     
5b80 00        NOP     
5b81 00        NOP     
5b82 00        NOP     
5b83 00        NOP     
5b84 00        NOP     
5b85 00        NOP     
5b86 00        NOP     
5b87 00        NOP     
5b88 00        NOP     
5b89 00        NOP     
5b8a 00        NOP     
5b8b 00        NOP     
5b8c 00        NOP     
5b8d 00        NOP     
5b8e 00        NOP     
5b8f 00        NOP     
5b90 00        NOP     
5b91 00        NOP     
5b92 00        NOP     
5b93 00        NOP     
5b94 00        NOP     
5b95 00        NOP     
5b96 00        NOP     
5b97 00        NOP     
5b98 00        NOP     
5b99 00        NOP     
5b9a 00        NOP     
5b9b 00        NOP     
5b9c 00        NOP     
5b9d 00        NOP     
5b9e 00        NOP     
5b9f 00        NOP     
5ba0 00        NOP     
5ba1 00        NOP     
5ba2 00        NOP     
5ba3 00        NOP     
5ba4 00        NOP     
5ba5 00        NOP     
5ba6 00        NOP     
5ba7 00        NOP     
5ba8 00        NOP     
5ba9 00        NOP     
5baa 00        NOP     
5bab 00        NOP     
5bac 00        NOP     
5bad 00        NOP     
5bae 00        NOP     
5baf 00        NOP     
5bb0 00        NOP     
5bb1 00        NOP     
5bb2 00        NOP     
5bb3 00        NOP     
5bb4 00        NOP     
5bb5 00        NOP     
5bb6 00        NOP     
5bb7 00        NOP     
5bb8 00        NOP     
5bb9 00        NOP     
5bba 00        NOP     
5bbb 00        NOP     
5bbc 00        NOP     
5bbd 00        NOP     
5bbe 00        NOP     
5bbf 00        NOP     
5bc0 00        NOP     
5bc1 00        NOP     
5bc2 00        NOP     
5bc3 00        NOP     
5bc4 00        NOP     
5bc5 00        NOP     
5bc6 00        NOP     
5bc7 00        NOP     
5bc8 00        NOP     
5bc9 00        NOP     
5bca 00        NOP     
5bcb 00        NOP     
5bcc 00        NOP     
5bcd 00        NOP     
5bce 00        NOP     
5bcf 00        NOP     
5bd0 00        NOP     
5bd1 00        NOP     
5bd2 00        NOP     
5bd3 00        NOP     
5bd4 00        NOP     
5bd5 00        NOP     
5bd6 00        NOP     
5bd7 00        NOP     
5bd8 00        NOP     
5bd9 00        NOP     
5bda 00        NOP     
5bdb 00        NOP     
5bdc 00        NOP     
5bdd 00        NOP     
5bde 00        NOP     
5bdf 00        NOP     
5be0 00        NOP     
5be1 00        NOP     
5be2 00        NOP     
5be3 00        NOP     
5be4 00        NOP     
5be5 00        NOP     
5be6 00        NOP     
5be7 00        NOP     
5be8 00        NOP     
5be9 00        NOP     
5bea 00        NOP     
5beb 00        NOP     
5bec 00        NOP     
5bed 00        NOP     
5bee 00        NOP     
5bef 00        NOP     
5bf0 00        NOP     
5bf1 00        NOP     
5bf2 00        NOP     
5bf3 00        NOP     
5bf4 00        NOP     
5bf5 00        NOP     
5bf6 00        NOP     
5bf7 00        NOP     
5bf8 00        NOP     
5bf9 00        NOP     
5bfa 00        NOP     
5bfb 00        NOP     
5bfc 00        NOP     
5bfd 00        NOP     
5bfe 00        NOP     
5bff 00        NOP     
5c00 00        NOP     
5c01 00        NOP     
5c02 00        NOP     
5c03 00        NOP     
5c04 00        NOP     
5c05 00        NOP     
5c06 00        NOP     
5c07 00        NOP     
5c08 00        NOP     
5c09 00        NOP     
5c0a 00        NOP     
5c0b 00        NOP     
5c0c 00        NOP     
5c0d 00        NOP     
5c0e 00        NOP     
5c0f 00        NOP     
5c10 00        NOP     
5c11 00        NOP     
5c12 00        NOP     
5c13 00        NOP     
5c14 00        NOP     
5c15 00        NOP     
5c16 00        NOP     
5c17 00        NOP     
5c18 00        NOP     
5c19 00        NOP     
5c1a 00        NOP     
5c1b 00        NOP     
5c1c 00        NOP     
5c1d 00        NOP     
5c1e 00        NOP     
5c1f 00        NOP     
5c20 00        NOP     
5c21 00        NOP     
5c22 00        NOP     
5c23 00        NOP     
5c24 00        NOP     
5c25 00        NOP     
5c26 00        NOP     
5c27 00        NOP     
5c28 00        NOP     
5c29 00        NOP     
5c2a 00        NOP     
5c2b 00        NOP     
5c2c 00        NOP     
5c2d 00        NOP     
5c2e 00        NOP     
5c2f 00        NOP     
5c30 00        NOP     
5c31 00        NOP     
5c32 00        NOP     
5c33 00        NOP     
5c34 00        NOP     
5c35 00        NOP     
5c36 00        NOP     
5c37 00        NOP     
5c38 00        NOP     
5c39 00        NOP     
5c3a 00        NOP     
5c3b 00        NOP     
5c3c 00        NOP     
5c3d 00        NOP     
5c3e 00        NOP     
5c3f 00        NOP     
5c40 00        NOP     
5c41 00        NOP     
5c42 00        NOP     
5c43 00        NOP     
5c44 00        NOP     
5c45 00        NOP     
5c46 00        NOP     
5c47 00        NOP     
5c48 00        NOP     
5c49 00        NOP     
5c4a 00        NOP     
5c4b 00        NOP     
5c4c 00        NOP     
5c4d 00        NOP     
5c4e 00        NOP     
5c4f 00        NOP     
5c50 00        NOP     
5c51 00        NOP     
5c52 00        NOP     
5c53 00        NOP     
5c54 00        NOP     
5c55 00        NOP     
5c56 00        NOP     
5c57 00        NOP     
5c58 00        NOP     
5c59 00        NOP     
5c5a 00        NOP     
5c5b 00        NOP     
5c5c 00        NOP     
5c5d 00        NOP     
5c5e 00        NOP     
5c5f 00        NOP     
5c60 00        NOP     
5c61 00        NOP     
5c62 00        NOP     
5c63 00        NOP     
5c64 00        NOP     
5c65 00        NOP     
5c66 00        NOP     
5c67 00        NOP     
5c68 00        NOP     
5c69 00        NOP     
5c6a 00        NOP     
5c6b 00        NOP     
5c6c 00        NOP     
5c6d 00        NOP     
5c6e 00        NOP     
5c6f 00        NOP     
5c70 00        NOP     
5c71 00        NOP     
5c72 00        NOP     
5c73 00        NOP     
5c74 00        NOP     
5c75 00        NOP     
5c76 00        NOP     
5c77 00        NOP     
5c78 00        NOP     
5c79 00        NOP     
5c7a 00        NOP     
5c7b 00        NOP     
5c7c 00        NOP     
5c7d 00        NOP     
5c7e 00        NOP     
5c7f 00        NOP     
5c80 00        NOP     
5c81 00        NOP     
5c82 00        NOP     
5c83 00        NOP     
5c84 00        NOP     
5c85 00        NOP     
5c86 00        NOP     
5c87 00        NOP     
5c88 00        NOP     
5c89 00        NOP     
5c8a 00        NOP     
5c8b 00        NOP     
5c8c 00        NOP     
5c8d 00        NOP     
5c8e 00        NOP     
5c8f 00        NOP     
5c90 00        NOP     
5c91 00        NOP     
5c92 00        NOP     
5c93 00        NOP     
5c94 00        NOP     
5c95 00        NOP     
5c96 00        NOP     
5c97 00        NOP     
5c98 00        NOP     
5c99 00        NOP     
5c9a 00        NOP     
5c9b 00        NOP     
5c9c 00        NOP     
5c9d 00        NOP     
5c9e 00        NOP     
5c9f 00        NOP     
5ca0 00        NOP     
5ca1 00        NOP     
5ca2 00        NOP     
5ca3 00        NOP     
5ca4 00        NOP     
5ca5 00        NOP     
5ca6 00        NOP     
5ca7 00        NOP     
5ca8 00        NOP     
5ca9 00        NOP     
5caa 00        NOP     
5cab 00        NOP     
5cac 00        NOP     
5cad 00        NOP     
5cae 00        NOP     
5caf 00        NOP     
5cb0 00        NOP     
5cb1 00        NOP     
5cb2 00        NOP     
5cb3 00        NOP     
5cb4 00        NOP     
5cb5 00        NOP     
5cb6 00        NOP     
5cb7 00        NOP     
5cb8 00        NOP     
5cb9 00        NOP     
5cba 00        NOP     
5cbb 00        NOP     
5cbc 00        NOP     
5cbd 00        NOP     
5cbe 00        NOP     
5cbf 00        NOP     
5cc0 00        NOP     
5cc1 00        NOP     
5cc2 00        NOP     
5cc3 00        NOP     
5cc4 00        NOP     
5cc5 00        NOP     
5cc6 00        NOP     
5cc7 00        NOP     
5cc8 00        NOP     
5cc9 00        NOP     
5cca 00        NOP     
5ccb 00        NOP     
5ccc 00        NOP     
5ccd 00        NOP     
5cce 00        NOP     
5ccf 00        NOP     
5cd0 00        NOP     
5cd1 00        NOP     
5cd2 00        NOP     
5cd3 00        NOP     
5cd4 00        NOP     
5cd5 00        NOP     
5cd6 00        NOP     
5cd7 00        NOP     
5cd8 00        NOP     
5cd9 00        NOP     
5cda 00        NOP     
5cdb 00        NOP     
5cdc 00        NOP     
5cdd 00        NOP     
5cde 00        NOP     
5cdf 00        NOP     
5ce0 00        NOP     
5ce1 00        NOP     
5ce2 00        NOP     
5ce3 00        NOP     
5ce4 00        NOP     
5ce5 00        NOP     
5ce6 00        NOP     
5ce7 00        NOP     
5ce8 00        NOP     
5ce9 00        NOP     
5cea 00        NOP     
5ceb 00        NOP     
5cec 00        NOP     
5ced 00        NOP     
5cee 00        NOP     
5cef 00        NOP     
5cf0 00        NOP     
5cf1 00        NOP     
5cf2 00        NOP     
5cf3 00        NOP     
5cf4 00        NOP     
5cf5 00        NOP     
5cf6 00        NOP     
5cf7 00        NOP     
5cf8 00        NOP     
5cf9 00        NOP     
5cfa 00        NOP     
5cfb 00        NOP     
5cfc 00        NOP     
5cfd 00        NOP     
5cfe 00        NOP     
5cff 00        NOP     
5d00 00        NOP     
5d01 00        NOP     
5d02 00        NOP     
5d03 00        NOP     
5d04 00        NOP     
5d05 00        NOP     
5d06 00        NOP     
5d07 00        NOP     
5d08 00        NOP     
5d09 00        NOP     
5d0a 00        NOP     
5d0b 00        NOP     
5d0c 00        NOP     
5d0d 00        NOP     
5d0e 00        NOP     
5d0f 00        NOP     
5d10 00        NOP     
5d11 00        NOP     
5d12 00        NOP     
5d13 00        NOP     
5d14 00        NOP     
5d15 00        NOP     
5d16 00        NOP     
5d17 00        NOP     
5d18 00        NOP     
5d19 00        NOP     
5d1a 00        NOP     
5d1b 00        NOP     
5d1c 00        NOP     
5d1d 00        NOP     
5d1e 00        NOP     
5d1f 00        NOP     
5d20 00        NOP     
5d21 00        NOP     
5d22 00        NOP     
5d23 00        NOP     
5d24 00        NOP     
5d25 00        NOP     
5d26 00        NOP     
5d27 00        NOP     
5d28 00        NOP     
5d29 00        NOP     
5d2a 00        NOP     
5d2b 00        NOP     
5d2c 00        NOP     
5d2d 00        NOP     
5d2e 00        NOP     
5d2f 00        NOP     
5d30 00        NOP     
5d31 00        NOP     
5d32 00        NOP     
5d33 00        NOP     
5d34 00        NOP     
5d35 00        NOP     
5d36 00        NOP     
5d37 00        NOP     
5d38 00        NOP     
5d39 00        NOP     
5d3a 00        NOP     
5d3b 00        NOP     
5d3c 00        NOP     
5d3d 00        NOP     
5d3e 00        NOP     
5d3f 00        NOP     
5d40 00        NOP     
5d41 00        NOP     
5d42 00        NOP     
5d43 00        NOP     
5d44 00        NOP     
5d45 00        NOP     
5d46 00        NOP     
5d47 00        NOP     
5d48 00        NOP     
5d49 00        NOP     
5d4a 00        NOP     
5d4b 00        NOP     
5d4c 00        NOP     
5d4d 00        NOP     
5d4e 00        NOP     
5d4f 00        NOP     
5d50 00        NOP     
5d51 00        NOP     
5d52 00        NOP     
5d53 00        NOP     
5d54 00        NOP     
5d55 00        NOP     
5d56 00        NOP     
5d57 00        NOP     
5d58 00        NOP     
5d59 00        NOP     
5d5a 00        NOP     
5d5b 00        NOP     
5d5c 00        NOP     
5d5d 00        NOP     
5d5e 00        NOP     
5d5f 00        NOP     
5d60 00        NOP     
5d61 00        NOP     
5d62 00        NOP     
5d63 00        NOP     
5d64 00        NOP     
5d65 00        NOP     
5d66 00        NOP     
5d67 00        NOP     
5d68 00        NOP     
5d69 00        NOP     
5d6a 00        NOP     
5d6b 00        NOP     
5d6c 00        NOP     
5d6d 00        NOP     
5d6e 00        NOP     
5d6f 00        NOP     
5d70 00        NOP     
5d71 00        NOP     
5d72 00        NOP     
5d73 00        NOP     
5d74 00        NOP     
5d75 00        NOP     
5d76 00        NOP     
5d77 00        NOP     
5d78 00        NOP     
5d79 00        NOP     
5d7a 00        NOP     
5d7b 00        NOP     
5d7c 00        NOP     
5d7d 00        NOP     
5d7e 00        NOP     
5d7f 00        NOP     
5d80 00        NOP     
5d81 00        NOP     
5d82 00        NOP     
5d83 00        NOP     
5d84 00        NOP     
5d85 00        NOP     
5d86 00        NOP     
5d87 00        NOP     
5d88 00        NOP     
5d89 00        NOP     
5d8a 00        NOP     
5d8b 00        NOP     
5d8c 00        NOP     
5d8d 00        NOP     
5d8e 00        NOP     
5d8f 00        NOP     
5d90 00        NOP     
5d91 00        NOP     
5d92 00        NOP     
5d93 00        NOP     
5d94 00        NOP     
5d95 00        NOP     
5d96 00        NOP     
5d97 00        NOP     
5d98 00        NOP     
5d99 00        NOP     
5d9a 00        NOP     
5d9b 00        NOP     
5d9c 00        NOP     
5d9d 00        NOP     
5d9e 00        NOP     
5d9f 00        NOP     
5da0 00        NOP     
5da1 00        NOP     
5da2 00        NOP     
5da3 00        NOP     
5da4 00        NOP     
5da5 00        NOP     
5da6 00        NOP     
5da7 00        NOP     
5da8 00        NOP     
5da9 00        NOP     
5daa 00        NOP     
5dab 00        NOP     
5dac 00        NOP     
5dad 00        NOP     
5dae 00        NOP     
5daf 00        NOP     
5db0 00        NOP     
5db1 00        NOP     
5db2 00        NOP     
5db3 00        NOP     
5db4 00        NOP     
5db5 00        NOP     
5db6 00        NOP     
5db7 00        NOP     
5db8 00        NOP     
5db9 00        NOP     
5dba 00        NOP     
5dbb 00        NOP     
5dbc 00        NOP     
5dbd 00        NOP     
5dbe 00        NOP     
5dbf 00        NOP     
5dc0 00        NOP     
5dc1 00        NOP     
5dc2 00        NOP     
5dc3 00        NOP     
5dc4 00        NOP     
5dc5 00        NOP     
5dc6 00        NOP     
5dc7 00        NOP     
5dc8 00        NOP     
5dc9 00        NOP     
5dca 00        NOP     
5dcb 00        NOP     
5dcc 00        NOP     
5dcd 00        NOP     
5dce 00        NOP     
5dcf 00        NOP     
5dd0 00        NOP     
5dd1 00        NOP     
5dd2 00        NOP     
5dd3 00        NOP     
5dd4 00        NOP     
5dd5 00        NOP     
5dd6 00        NOP     
5dd7 00        NOP     
5dd8 00        NOP     
5dd9 00        NOP     
5dda 00        NOP     
5ddb 00        NOP     
5ddc 00        NOP     
5ddd 00        NOP     
5dde 00        NOP     
5ddf 00        NOP     
5de0 00        NOP     
5de1 00        NOP     
5de2 00        NOP     
5de3 00        NOP     
5de4 00        NOP     
5de5 00        NOP     
5de6 00        NOP     
5de7 00        NOP     
5de8 00        NOP     
5de9 00        NOP     
5dea 00        NOP     
5deb 00        NOP     
5dec 00        NOP     
5ded 00        NOP     
5dee 00        NOP     
5def 00        NOP     
5df0 00        NOP     
5df1 00        NOP     
5df2 00        NOP     
5df3 00        NOP     
5df4 00        NOP     
5df5 00        NOP     
5df6 00        NOP     
5df7 00        NOP     
5df8 00        NOP     
5df9 00        NOP     
5dfa 00        NOP     
5dfb 00        NOP     
5dfc 00        NOP     
5dfd 00        NOP     
5dfe 00        NOP     
5dff 00        NOP     
5e00 00        NOP     
5e01 00        NOP     
5e02 00        NOP     
5e03 00        NOP     
5e04 00        NOP     
5e05 00        NOP     
5e06 00        NOP     
5e07 00        NOP     
5e08 00        NOP     
5e09 00        NOP     
5e0a 00        NOP     
5e0b 00        NOP     
5e0c 00        NOP     
5e0d 00        NOP     
5e0e 00        NOP     
5e0f 00        NOP     
5e10 00        NOP     
5e11 00        NOP     
5e12 00        NOP     
5e13 00        NOP     
5e14 00        NOP     
5e15 00        NOP     
5e16 00        NOP     
5e17 00        NOP     
5e18 00        NOP     
5e19 00        NOP     
5e1a 00        NOP     
5e1b 00        NOP     
5e1c 00        NOP     
5e1d 00        NOP     
5e1e 00        NOP     
5e1f 00        NOP     
5e20 00        NOP     
5e21 00        NOP     
5e22 00        NOP     
5e23 00        NOP     
5e24 00        NOP     
5e25 00        NOP     
5e26 00        NOP     
5e27 00        NOP     
5e28 00        NOP     
5e29 00        NOP     
5e2a 00        NOP     
5e2b 00        NOP     
5e2c 00        NOP     
5e2d 00        NOP     
5e2e 00        NOP     
5e2f 00        NOP     
5e30 00        NOP     
5e31 00        NOP     
5e32 00        NOP     
5e33 00        NOP     
5e34 00        NOP     
5e35 00        NOP     
5e36 00        NOP     
5e37 00        NOP     
5e38 00        NOP     
5e39 00        NOP     
5e3a 00        NOP     
5e3b 00        NOP     
5e3c 00        NOP     
5e3d 00        NOP     
5e3e 00        NOP     
5e3f 00        NOP     
5e40 00        NOP     
5e41 00        NOP     
5e42 00        NOP     
5e43 00        NOP     
5e44 00        NOP     
5e45 00        NOP     
5e46 00        NOP     
5e47 00        NOP     
5e48 00        NOP     
5e49 00        NOP     
5e4a 00        NOP     
5e4b 00        NOP     
5e4c 00        NOP     
5e4d 00        NOP     
5e4e 00        NOP     
5e4f 00        NOP     
5e50 00        NOP     
5e51 00        NOP     
5e52 00        NOP     
5e53 00        NOP     
5e54 00        NOP     
5e55 00        NOP     
5e56 00        NOP     
5e57 00        NOP     
5e58 00        NOP     
5e59 00        NOP     
5e5a 00        NOP     
5e5b 00        NOP     
5e5c 00        NOP     
5e5d 00        NOP     
5e5e 00        NOP     
5e5f 00        NOP     
5e60 00        NOP     
5e61 00        NOP     
5e62 00        NOP     
5e63 00        NOP     
5e64 00        NOP     
5e65 00        NOP     
5e66 00        NOP     
5e67 00        NOP     
5e68 00        NOP     
5e69 00        NOP     
5e6a 00        NOP     
5e6b 00        NOP     
5e6c 00        NOP     
5e6d 00        NOP     
5e6e 00        NOP     
5e6f 00        NOP     
5e70 00        NOP     
5e71 00        NOP     
5e72 00        NOP     
5e73 00        NOP     
5e74 00        NOP     
5e75 00        NOP     
5e76 00        NOP     
5e77 00        NOP     
5e78 00        NOP     
5e79 00        NOP     
5e7a 00        NOP     
5e7b 00        NOP     
5e7c 00        NOP     
5e7d 00        NOP     
5e7e 00        NOP     
5e7f 00        NOP     
5e80 00        NOP     
5e81 00        NOP     
5e82 00        NOP     
5e83 00        NOP     
5e84 00        NOP     
5e85 00        NOP     
5e86 00        NOP     
5e87 00        NOP     
5e88 00        NOP     
5e89 00        NOP     
5e8a 00        NOP     
5e8b 00        NOP     
5e8c 00        NOP     
5e8d 00        NOP     
5e8e 00        NOP     
5e8f 00        NOP     
5e90 00        NOP     
5e91 00        NOP     
5e92 00        NOP     
5e93 00        NOP     
5e94 00        NOP     
5e95 00        NOP     
5e96 00        NOP     
5e97 00        NOP     
5e98 00        NOP     
5e99 00        NOP     
5e9a 00        NOP     
5e9b 00        NOP     
5e9c 00        NOP     
5e9d 00        NOP     
5e9e 00        NOP     
5e9f 00        NOP     
5ea0 00        NOP     
5ea1 00        NOP     
5ea2 00        NOP     
5ea3 00        NOP     
5ea4 00        NOP     
5ea5 00        NOP     
5ea6 00        NOP     
5ea7 00        NOP     
5ea8 00        NOP     
5ea9 00        NOP     
5eaa 00        NOP     
5eab 00        NOP     
5eac 00        NOP     
5ead 00        NOP     
5eae 00        NOP     
5eaf 00        NOP     
5eb0 00        NOP     
5eb1 00        NOP     
5eb2 00        NOP     
5eb3 00        NOP     
5eb4 00        NOP     
5eb5 00        NOP     
5eb6 00        NOP     
5eb7 00        NOP     
5eb8 00        NOP     
5eb9 00        NOP     
5eba 00        NOP     
5ebb 00        NOP     
5ebc 00        NOP     
5ebd 00        NOP     
5ebe 00        NOP     
5ebf 00        NOP     
5ec0 00        NOP     
5ec1 00        NOP     
5ec2 00        NOP     
5ec3 00        NOP     
5ec4 00        NOP     
5ec5 00        NOP     
5ec6 00        NOP     
5ec7 00        NOP     
5ec8 00        NOP     
5ec9 00        NOP     
5eca 00        NOP     
5ecb 00        NOP     
5ecc 00        NOP     
5ecd 00        NOP     
5ece 00        NOP     
5ecf 00        NOP     
5ed0 00        NOP     
5ed1 00        NOP     
5ed2 00        NOP     
5ed3 00        NOP     
5ed4 00        NOP     
5ed5 00        NOP     
5ed6 00        NOP     
5ed7 00        NOP     
5ed8 00        NOP     
5ed9 00        NOP     
5eda 00        NOP     
5edb 00        NOP     
5edc 00        NOP     
5edd 00        NOP     
5ede 00        NOP     
5edf 00        NOP     
5ee0 00        NOP     
5ee1 00        NOP     
5ee2 00        NOP     
5ee3 00        NOP     
5ee4 00        NOP     
5ee5 00        NOP     
5ee6 00        NOP     
5ee7 00        NOP     
5ee8 00        NOP     
5ee9 00        NOP     
5eea 00        NOP     
5eeb 00        NOP     
5eec 00        NOP     
5eed 00        NOP     
5eee 00        NOP     
5eef 00        NOP     
5ef0 00        NOP     
5ef1 00        NOP     
5ef2 00        NOP     
5ef3 00        NOP     
5ef4 00        NOP     
5ef5 00        NOP     
5ef6 00        NOP     
5ef7 00        NOP     
5ef8 00        NOP     
5ef9 00        NOP     
5efa 00        NOP     
5efb 00        NOP     
5efc 00        NOP     
5efd 00        NOP     
5efe 00        NOP     
5eff 00        NOP     
5f00 00        NOP     
5f01 00        NOP     
5f02 00        NOP     
5f03 00        NOP     
5f04 00        NOP     
5f05 00        NOP     
5f06 00        NOP     
5f07 00        NOP     
5f08 00        NOP     
5f09 00        NOP     
5f0a 00        NOP     
5f0b 00        NOP     
5f0c 00        NOP     
5f0d 00        NOP     
5f0e 00        NOP     
5f0f 00        NOP     
5f10 00        NOP     
5f11 00        NOP     
5f12 00        NOP     
5f13 00        NOP     
5f14 00        NOP     
5f15 00        NOP     
5f16 00        NOP     
5f17 00        NOP     
5f18 00        NOP     
5f19 00        NOP     
5f1a 00        NOP     
5f1b 00        NOP     
5f1c 00        NOP     
5f1d 00        NOP     
5f1e 00        NOP     
5f1f 00        NOP     
5f20 00        NOP     
5f21 00        NOP     
5f22 00        NOP     
5f23 00        NOP     
5f24 00        NOP     
5f25 00        NOP     
5f26 00        NOP     
5f27 00        NOP     
5f28 00        NOP     
5f29 00        NOP     
5f2a 00        NOP     
5f2b 00        NOP     
5f2c 00        NOP     
5f2d 00        NOP     
5f2e 00        NOP     
5f2f 00        NOP     
5f30 00        NOP     
5f31 00        NOP     
5f32 00        NOP     
5f33 00        NOP     
5f34 00        NOP     
5f35 00        NOP     
5f36 00        NOP     
5f37 00        NOP     
5f38 00        NOP     
5f39 00        NOP     
5f3a 00        NOP     
5f3b 00        NOP     
5f3c 00        NOP     
5f3d 00        NOP     
5f3e 00        NOP     
5f3f 00        NOP     
5f40 00        NOP     
5f41 00        NOP     
5f42 00        NOP     
5f43 00        NOP     
5f44 00        NOP     
5f45 00        NOP     
5f46 00        NOP     
5f47 00        NOP     
5f48 00        NOP     
5f49 00        NOP     
5f4a 00        NOP     
5f4b 00        NOP     
5f4c 00        NOP     
5f4d 00        NOP     
5f4e 00        NOP     
5f4f 00        NOP     
5f50 00        NOP     
5f51 00        NOP     
5f52 00        NOP     
5f53 00        NOP     
5f54 00        NOP     
5f55 00        NOP     
5f56 00        NOP     
5f57 00        NOP     
5f58 00        NOP     
5f59 00        NOP     
5f5a 00        NOP     
5f5b 00        NOP     
5f5c 00        NOP     
5f5d 00        NOP     
5f5e 00        NOP     
5f5f 00        NOP     
5f60 00        NOP     
5f61 00        NOP     
5f62 00        NOP     
5f63 00        NOP     
5f64 00        NOP     
5f65 00        NOP     
5f66 00        NOP     
5f67 00        NOP     
5f68 00        NOP     
5f69 00        NOP     
5f6a 00        NOP     
5f6b 00        NOP     
5f6c 00        NOP     
5f6d 00        NOP     
5f6e 00        NOP     
5f6f 00        NOP     
5f70 00        NOP     
5f71 00        NOP     
5f72 00        NOP     
5f73 00        NOP     
5f74 00        NOP     
5f75 00        NOP     
5f76 00        NOP     
5f77 00        NOP     
5f78 00        NOP     
5f79 00        NOP     
5f7a 00        NOP     
5f7b 00        NOP     
5f7c 00        NOP     
5f7d 00        NOP     
5f7e 00        NOP     
5f7f 00        NOP     
5f80 00        NOP     
5f81 00        NOP     
5f82 00        NOP     
5f83 00        NOP     
5f84 00        NOP     
5f85 00        NOP     
5f86 00        NOP     
5f87 00        NOP     
5f88 00        NOP     
5f89 00        NOP     
5f8a 00        NOP     
5f8b 00        NOP     
5f8c 00        NOP     
5f8d 00        NOP     
5f8e 00        NOP     
5f8f 00        NOP     
5f90 00        NOP     
5f91 00        NOP     
5f92 00        NOP     
5f93 00        NOP     
5f94 00        NOP     
5f95 00        NOP     
5f96 00        NOP     
5f97 00        NOP     
5f98 00        NOP     
5f99 00        NOP     
5f9a 00        NOP     
5f9b 00        NOP     
5f9c 00        NOP     
5f9d 00        NOP     
5f9e 00        NOP     
5f9f 00        NOP     
5fa0 00        NOP     
5fa1 00        NOP     
5fa2 00        NOP     
5fa3 00        NOP     
5fa4 00        NOP     
5fa5 00        NOP     
5fa6 00        NOP     
5fa7 00        NOP     
5fa8 00        NOP     
5fa9 00        NOP     
5faa 00        NOP     
5fab 00        NOP     
5fac 00        NOP     
5fad 00        NOP     
5fae 00        NOP     
5faf 00        NOP     
5fb0 00        NOP     
5fb1 00        NOP     
5fb2 00        NOP     
5fb3 00        NOP     
5fb4 00        NOP     
5fb5 00        NOP     
5fb6 00        NOP     
5fb7 00        NOP     
5fb8 00        NOP     
5fb9 00        NOP     
5fba 00        NOP     
5fbb 00        NOP     
5fbc 00        NOP     
5fbd 00        NOP     
5fbe 00        NOP     
5fbf 00        NOP     
5fc0 00        NOP     
5fc1 00        NOP     
5fc2 00        NOP     
5fc3 00        NOP     
5fc4 00        NOP     
5fc5 00        NOP     
5fc6 00        NOP     
5fc7 00        NOP     
5fc8 00        NOP     
5fc9 00        NOP     
5fca 00        NOP     
5fcb 00        NOP     
5fcc 00        NOP     
5fcd 00        NOP     
5fce 00        NOP     
5fcf 00        NOP     
5fd0 00        NOP     
5fd1 00        NOP     
5fd2 00        NOP     
5fd3 00        NOP     
5fd4 00        NOP     
5fd5 00        NOP     
5fd6 00        NOP     
5fd7 00        NOP     
5fd8 00        NOP     
5fd9 00        NOP     
5fda 00        NOP     
5fdb 00        NOP     
5fdc 00        NOP     
5fdd 00        NOP     
5fde 00        NOP     
5fdf 00        NOP     
5fe0 00        NOP     
5fe1 00        NOP     
5fe2 00        NOP     
5fe3 00        NOP     
5fe4 00        NOP     
5fe5 00        NOP     
5fe6 00        NOP     
5fe7 00        NOP     
5fe8 00        NOP     
5fe9 00        NOP     
5fea 00        NOP     
5feb 00        NOP     
5fec 00        NOP     
5fed 00        NOP     
5fee 00        NOP     
5fef 00        NOP     
5ff0 00        NOP     
5ff1 00        NOP     
5ff2 00        NOP     
5ff3 00        NOP     
5ff4 00        NOP     
5ff5 00        NOP     
5ff6 00        NOP     
5ff7 00        NOP     
5ff8 00        NOP     
5ff9 00        NOP     
5ffa 00        NOP     
5ffb 00        NOP     
5ffc 00        NOP     
5ffd 00        NOP     
5ffe 00        NOP     
5fff 00        NOP     
6000 00        NOP     
6001 00        NOP     
6002 00        NOP     
6003 00        NOP     
6004 00        NOP     
6005 00        NOP     
6006 00        NOP     
6007 00        NOP     
6008 00        NOP     
6009 00        NOP     
600a 00        NOP     
600b 00        NOP     
600c 00        NOP     
600d 00        NOP     
600e 00        NOP     
600f 00        NOP     
6010 00        NOP     
6011 00        NOP     
6012 00        NOP     
6013 00        NOP     
6014 00        NOP     
6015 00        NOP     
6016 00        NOP     
6017 00        NOP     
6018 00        NOP     
6019 00        NOP     
601a 00        NOP     
601b 00        NOP     
601c 00        NOP     
601d 00        NOP     
601e 00        NOP     
601f 00        NOP     
6020 00        NOP     
6021 00        NOP     
6022 00        NOP     
6023 00        NOP     
6024 00        NOP     
6025 00        NOP     
6026 00        NOP     
6027 00        NOP     
6028 00        NOP     
6029 00        NOP     
602a 00        NOP     
602b 00        NOP     
602c 00        NOP     
602d 00        NOP     
602e 00        NOP     
602f 00        NOP     
6030 00        NOP     
6031 00        NOP     
6032 00        NOP     
6033 00        NOP     
6034 00        NOP     
6035 00        NOP     
6036 00        NOP     
6037 00        NOP     
6038 00        NOP     
6039 00        NOP     
603a 00        NOP     
603b 00        NOP     
603c 00        NOP     
603d 00        NOP     
603e 00        NOP     
603f 00        NOP     
6040 00        NOP     
6041 00        NOP     
6042 00        NOP     
6043 00        NOP     
6044 00        NOP     
6045 00        NOP     
6046 00        NOP     
6047 00        NOP     
6048 00        NOP     
6049 00        NOP     
604a 00        NOP     
604b 00        NOP     
604c 00        NOP     
604d 00        NOP     
604e 00        NOP     
604f 00        NOP     
6050 00        NOP     
6051 00        NOP     
6052 00        NOP     
6053 00        NOP     
6054 00        NOP     
6055 00        NOP     
6056 00        NOP     
6057 00        NOP     
6058 00        NOP     
6059 00        NOP     
605a 00        NOP     
605b 00        NOP     
605c 00        NOP     
605d 00        NOP     
605e 00        NOP     
605f 00        NOP     
6060 00        NOP     
6061 00        NOP     
6062 00        NOP     
6063 00        NOP     
6064 00        NOP     
6065 00        NOP     
6066 00        NOP     
6067 00        NOP     
6068 00        NOP     
6069 00        NOP     
606a 00        NOP     
606b 00        NOP     
606c 00        NOP     
606d 00        NOP     
606e 00        NOP     
606f 00        NOP     
6070 00        NOP     
6071 00        NOP     
6072 00        NOP     
6073 00        NOP     
6074 00        NOP     
6075 00        NOP     
6076 00        NOP     
6077 00        NOP     
6078 00        NOP     
6079 00        NOP     
607a 00        NOP     
607b 00        NOP     
607c 00        NOP     
607d 00        NOP     
607e 00        NOP     
607f 00        NOP     
6080 00        NOP     
6081 00        NOP     
6082 00        NOP     
6083 00        NOP     
6084 00        NOP     
6085 00        NOP     
6086 00        NOP     
6087 00        NOP     
6088 00        NOP     
6089 00        NOP     
608a 00        NOP     
608b 00        NOP     
608c 00        NOP     
608d 00        NOP     
608e 00        NOP     
608f 00        NOP     
6090 00        NOP     
6091 00        NOP     
6092 00        NOP     
6093 00        NOP     
6094 00        NOP     
6095 00        NOP     
6096 00        NOP     
6097 00        NOP     
6098 00        NOP     
6099 00        NOP     
609a 00        NOP     
609b 00        NOP     
609c 00        NOP     
609d 00        NOP     
609e 00        NOP     
609f 00        NOP     
60a0 00        NOP     
60a1 00        NOP     
60a2 00        NOP     
60a3 00        NOP     
60a4 00        NOP     
60a5 00        NOP     
60a6 00        NOP     
60a7 00        NOP     
60a8 00        NOP     
60a9 00        NOP     
60aa 00        NOP     
60ab 00        NOP     
60ac 00        NOP     
60ad 00        NOP     
60ae 00        NOP     
60af 00        NOP     
60b0 00        NOP     
60b1 00        NOP     
60b2 00        NOP     
60b3 00        NOP     
60b4 00        NOP     
60b5 00        NOP     
60b6 00        NOP     
60b7 00        NOP     
60b8 00        NOP     
60b9 00        NOP     
60ba 00        NOP     
60bb 00        NOP     
60bc 00        NOP     
60bd 00        NOP     
60be 00        NOP     
60bf 00        NOP     
60c0 00        NOP     
60c1 00        NOP     
60c2 00        NOP     
60c3 00        NOP     
60c4 00        NOP     
60c5 00        NOP     
60c6 00        NOP     
60c7 00        NOP     
60c8 00        NOP     
60c9 00        NOP     
60ca 00        NOP     
60cb 00        NOP     
60cc 00        NOP     
60cd 00        NOP     
60ce 00        NOP     
60cf 00        NOP     
60d0 00        NOP     
60d1 00        NOP     
60d2 00        NOP     
60d3 00        NOP     
60d4 00        NOP     
60d5 00        NOP     
60d6 00        NOP     
60d7 00        NOP     
60d8 00        NOP     
60d9 00        NOP     
60da 00        NOP     
60db 00        NOP     
60dc 00        NOP     
60dd 00        NOP     
60de 00        NOP     
60df 00        NOP     
60e0 00        NOP     
60e1 00        NOP     
60e2 00        NOP     
60e3 00        NOP     
60e4 00        NOP     
60e5 00        NOP     
60e6 00        NOP     
60e7 00        NOP     
60e8 00        NOP     
60e9 00        NOP     
60ea 00        NOP     
60eb 00        NOP     
60ec 00        NOP     
60ed 00        NOP     
60ee 00        NOP     
60ef 00        NOP     
60f0 00        NOP     
60f1 00        NOP     
60f2 00        NOP     
60f3 00        NOP     
60f4 00        NOP     
60f5 00        NOP     
60f6 00        NOP     
60f7 00        NOP     
60f8 00        NOP     
60f9 00        NOP     
60fa 00        NOP     
60fb 00        NOP     
60fc 00        NOP     
60fd 00        NOP     
60fe 00        NOP     
60ff 00        NOP     
6100 00        NOP     
6101 00        NOP     
6102 00        NOP     
6103 00        NOP     
6104 00        NOP     
6105 00        NOP     
6106 00        NOP     
6107 00        NOP     
6108 00        NOP     
6109 00        NOP     
610a 00        NOP     
610b 00        NOP     
610c 00        NOP     
610d 00        NOP     
610e 00        NOP     
610f 00        NOP     
6110 00        NOP     
6111 00        NOP     
6112 00        NOP     
6113 00        NOP     
6114 00        NOP     
6115 00        NOP     
6116 00        NOP     
6117 00        NOP     
6118 00        NOP     
6119 00        NOP     
611a 00        NOP     
611b 00        NOP     
611c 00        NOP     
611d 00        NOP     
611e 00        NOP     
611f 00        NOP     
6120 00        NOP     
6121 00        NOP     
6122 00        NOP     
6123 00        NOP     
6124 00        NOP     
6125 00        NOP     
6126 00        NOP     
6127 00        NOP     
6128 00        NOP     
6129 00        NOP     
612a 00        NOP     
612b 00        NOP     
612c 00        NOP     
612d 00        NOP     
612e 00        NOP     
612f 00        NOP     
6130 00        NOP     
6131 00        NOP     
6132 00        NOP     
6133 00        NOP     
6134 00        NOP     
6135 00        NOP     
6136 00        NOP     
6137 00        NOP     
6138 00        NOP     
6139 00        NOP     
613a 00        NOP     
613b 00        NOP     
613c 00        NOP     
613d 00        NOP     
613e 00        NOP     
613f 00        NOP     
6140 00        NOP     
6141 00        NOP     
6142 00        NOP     
6143 00        NOP     
6144 00        NOP     
6145 00        NOP     
6146 00        NOP     
6147 00        NOP     
6148 00        NOP     
6149 00        NOP     
614a 00        NOP     
614b 00        NOP     
614c 00        NOP     
614d 00        NOP     
614e 00        NOP     
614f 00        NOP     
6150 00        NOP     
6151 00        NOP     
6152 00        NOP     
6153 00        NOP     
6154 00        NOP     
6155 00        NOP     
6156 00        NOP     
6157 00        NOP     
6158 00        NOP     
6159 00        NOP     
615a 00        NOP     
615b 00        NOP     
615c 00        NOP     
615d 00        NOP     
615e 00        NOP     
615f 00        NOP     
6160 00        NOP     
6161 00        NOP     
6162 00        NOP     
6163 00        NOP     
6164 00        NOP     
6165 00        NOP     
6166 00        NOP     
6167 00        NOP     
6168 00        NOP     
6169 00        NOP     
616a 00        NOP     
616b 00        NOP     
616c 00        NOP     
616d 00        NOP     
616e 00        NOP     
616f 00        NOP     
6170 00        NOP     
6171 00        NOP     
6172 00        NOP     
6173 00        NOP     
6174 00        NOP     
6175 00        NOP     
6176 00        NOP     
6177 00        NOP     
6178 00        NOP     
6179 00        NOP     
617a 00        NOP     
617b 00        NOP     
617c 00        NOP     
617d 00        NOP     
617e 00        NOP     
617f 00        NOP     
6180 00        NOP     
6181 00        NOP     
6182 00        NOP     
6183 00        NOP     
6184 00        NOP     
6185 00        NOP     
6186 00        NOP     
6187 00        NOP     
6188 00        NOP     
6189 00        NOP     
618a 00        NOP     
618b 00        NOP     
618c 00        NOP     
618d 00        NOP     
618e 00        NOP     
618f 00        NOP     
6190 00        NOP     
6191 00        NOP     
6192 00        NOP     
6193 00        NOP     
6194 00        NOP     
6195 00        NOP     
6196 00        NOP     
6197 00        NOP     
6198 00        NOP     
6199 00        NOP     
619a 00        NOP     
619b 00        NOP     
619c 00        NOP     
619d 00        NOP     
619e 00        NOP     
619f 00        NOP     
61a0 00        NOP     
61a1 00        NOP     
61a2 00        NOP     
61a3 00        NOP     
61a4 00        NOP     
61a5 00        NOP     
61a6 00        NOP     
61a7 00        NOP     
61a8 00        NOP     
61a9 00        NOP     
61aa 00        NOP     
61ab 00        NOP     
61ac 00        NOP     
61ad 00        NOP     
61ae 00        NOP     
61af 00        NOP     
61b0 00        NOP     
61b1 00        NOP     
61b2 00        NOP     
61b3 00        NOP     
61b4 00        NOP     
61b5 00        NOP     
61b6 00        NOP     
61b7 00        NOP     
61b8 00        NOP     
61b9 00        NOP     
61ba 00        NOP     
61bb 00        NOP     
61bc 00        NOP     
61bd 00        NOP     
61be 00        NOP     
61bf 00        NOP     
61c0 00        NOP     
61c1 00        NOP     
61c2 00        NOP     
61c3 00        NOP     
61c4 00        NOP     
61c5 00        NOP     
61c6 00        NOP     
61c7 00        NOP     
61c8 00        NOP     
61c9 00        NOP     
61ca 00        NOP     
61cb 00        NOP     
61cc 00        NOP     
61cd 00        NOP     
61ce 00        NOP     
61cf 00        NOP     
61d0 00        NOP     
61d1 00        NOP     
61d2 00        NOP     
61d3 00        NOP     
61d4 00        NOP     
61d5 00        NOP     
61d6 00        NOP     
61d7 00        NOP     
61d8 00        NOP     
61d9 00        NOP     
61da 00        NOP     
61db 00        NOP     
61dc 00        NOP     
61dd 00        NOP     
61de 00        NOP     
61df 00        NOP     
61e0 00        NOP     
61e1 00        NOP     
61e2 00        NOP     
61e3 00        NOP     
61e4 00        NOP     
61e5 00        NOP     
61e6 00        NOP     
61e7 00        NOP     
61e8 00        NOP     
61e9 00        NOP     
61ea 00        NOP     
61eb 00        NOP     
61ec 00        NOP     
61ed 00        NOP     
61ee 00        NOP     
61ef 00        NOP     
61f0 00        NOP     
61f1 00        NOP     
61f2 00        NOP     
61f3 00        NOP     
61f4 00        NOP     
61f5 00        NOP     
61f6 00        NOP     
61f7 00        NOP     
61f8 00        NOP     
61f9 00        NOP     
61fa 00        NOP     
61fb 00        NOP     
61fc 00        NOP     
61fd 00        NOP     
61fe 00        NOP     
61ff 00        NOP     
6200 00        NOP     
6201 00        NOP     
6202 00        NOP     
6203 00        NOP     
6204 00        NOP     
6205 00        NOP     
6206 00        NOP     
6207 00        NOP     
6208 00        NOP     
6209 00        NOP     
620a 00        NOP     
620b 00        NOP     
620c 00        NOP     
620d 00        NOP     
620e 00        NOP     
620f 00        NOP     
6210 00        NOP     
6211 00        NOP     
6212 00        NOP     
6213 00        NOP     
6214 00        NOP     
6215 00        NOP     
6216 00        NOP     
6217 00        NOP     
6218 00        NOP     
6219 00        NOP     
621a 00        NOP     
621b 00        NOP     
621c 00        NOP     
621d 00        NOP     
621e 00        NOP     
621f 00        NOP     
6220 00        NOP     
6221 00        NOP     
6222 00        NOP     
6223 00        NOP     
6224 00        NOP     
6225 00        NOP     
6226 00        NOP     
6227 00        NOP     
6228 00        NOP     
6229 00        NOP     
622a 00        NOP     
622b 00        NOP     
622c 00        NOP     
622d 00        NOP     
622e 00        NOP     
622f 00        NOP     
6230 00        NOP     
6231 00        NOP     
6232 00        NOP     
6233 00        NOP     
6234 00        NOP     
6235 00        NOP     
6236 00        NOP     
6237 00        NOP     
6238 00        NOP     
6239 00        NOP     
623a 00        NOP     
623b 00        NOP     
623c 00        NOP     
623d 00        NOP     
623e 00        NOP     
623f 00        NOP     
6240 00        NOP     
6241 00        NOP     
6242 00        NOP     
6243 00        NOP     
6244 00        NOP     
6245 00        NOP     
6246 00        NOP     
6247 00        NOP     
6248 00        NOP     
6249 00        NOP     
624a 00        NOP     
624b 00        NOP     
624c 00        NOP     
624d 00        NOP     
624e 00        NOP     
624f 00        NOP     
6250 00        NOP     
6251 00        NOP     
6252 00        NOP     
6253 00        NOP     
6254 00        NOP     
6255 00        NOP     
6256 00        NOP     
6257 00        NOP     
6258 00        NOP     
6259 00        NOP     
625a 00        NOP     
625b 00        NOP     
625c 00        NOP     
625d 00        NOP     
625e 00        NOP     
625f 00        NOP     
6260 00        NOP     
6261 00        NOP     
6262 00        NOP     
6263 00        NOP     
6264 00        NOP     
6265 00        NOP     
6266 00        NOP     
6267 00        NOP     
6268 00        NOP     
6269 00        NOP     
626a 00        NOP     
626b 00        NOP     
626c 00        NOP     
626d 00        NOP     
626e 00        NOP     
626f 00        NOP     
6270 00        NOP     
6271 00        NOP     
6272 00        NOP     
6273 00        NOP     
6274 00        NOP     
6275 00        NOP     
6276 00        NOP     
6277 00        NOP     
6278 00        NOP     
6279 00        NOP     
627a 00        NOP     
627b 00        NOP     
627c 00        NOP     
627d 00        NOP     
627e 00        NOP     
627f 00        NOP     
6280 00        NOP     
6281 00        NOP     
6282 00        NOP     
6283 00        NOP     
6284 00        NOP     
6285 00        NOP     
6286 00        NOP     
6287 00        NOP     
6288 00        NOP     
6289 00        NOP     
628a 00        NOP     
628b 00        NOP     
628c 00        NOP     
628d 00        NOP     
628e 00        NOP     
628f 00        NOP     
6290 00        NOP     
6291 00        NOP     
6292 00        NOP     
6293 00        NOP     
6294 00        NOP     
6295 00        NOP     
6296 00        NOP     
6297 00        NOP     
6298 00        NOP     
6299 00        NOP     
629a 00        NOP     
629b 00        NOP     
629c 00        NOP     
629d 00        NOP     
629e 00        NOP     
629f 00        NOP     
62a0 00        NOP     
62a1 00        NOP     
62a2 00        NOP     
62a3 00        NOP     
62a4 00        NOP     
62a5 00        NOP     
62a6 00        NOP     
62a7 00        NOP     
62a8 00        NOP     
62a9 00        NOP     
62aa 00        NOP     
62ab 00        NOP     
62ac 00        NOP     
62ad 00        NOP     
62ae 00        NOP     
62af 00        NOP     
62b0 00        NOP     
62b1 00        NOP     
62b2 00        NOP     
62b3 00        NOP     
62b4 00        NOP     
62b5 00        NOP     
62b6 00        NOP     
62b7 00        NOP     
62b8 00        NOP     
62b9 00        NOP     
62ba 00        NOP     
62bb 00        NOP     
62bc 00        NOP     
62bd 00        NOP     
62be 00        NOP     
62bf 00        NOP     
62c0 00        NOP     
62c1 00        NOP     
62c2 00        NOP     
62c3 00        NOP     
62c4 00        NOP     
62c5 00        NOP     
62c6 00        NOP     
62c7 00        NOP     
62c8 00        NOP     
62c9 00        NOP     
62ca 00        NOP     
62cb 00        NOP     
62cc 00        NOP     
62cd 00        NOP     
62ce 00        NOP     
62cf 00        NOP     
62d0 00        NOP     
62d1 00        NOP     
62d2 00        NOP     
62d3 00        NOP     
62d4 00        NOP     
62d5 00        NOP     
62d6 00        NOP     
62d7 00        NOP     
62d8 00        NOP     
62d9 00        NOP     
62da 00        NOP     
62db 00        NOP     
62dc 00        NOP     
62dd 00        NOP     
62de 00        NOP     
62df 00        NOP     
62e0 00        NOP     
62e1 00        NOP     
62e2 00        NOP     
62e3 00        NOP     
62e4 00        NOP     
62e5 00        NOP     
62e6 00        NOP     
62e7 00        NOP     
62e8 00        NOP     
62e9 00        NOP     
62ea 00        NOP     
62eb 00        NOP     
62ec 00        NOP     
62ed 00        NOP     
62ee 00        NOP     
62ef 00        NOP     
62f0 00        NOP     
62f1 00        NOP     
62f2 00        NOP     
62f3 00        NOP     
62f4 00        NOP     
62f5 00        NOP     
62f6 00        NOP     
62f7 00        NOP     
62f8 00        NOP     
62f9 00        NOP     
62fa 00        NOP     
62fb 00        NOP     
62fc 00        NOP     
62fd 00        NOP     
62fe 00        NOP     
62ff 00        NOP     
6300 00        NOP     
6301 00        NOP     
6302 00        NOP     
6303 00        NOP     
6304 00        NOP     
6305 00        NOP     
6306 00        NOP     
6307 00        NOP     
6308 00        NOP     
6309 00        NOP     
630a 00        NOP     
630b 00        NOP     
630c 00        NOP     
630d 00        NOP     
630e 00        NOP     
630f 00        NOP     
6310 00        NOP     
6311 00        NOP     
6312 00        NOP     
6313 00        NOP     
6314 00        NOP     
6315 00        NOP     
6316 00        NOP     
6317 00        NOP     
6318 00        NOP     
6319 00        NOP     
631a 00        NOP     
631b 00        NOP     
631c 00        NOP     
631d 00        NOP     
631e 00        NOP     
631f 00        NOP     
6320 00        NOP     
6321 00        NOP     
6322 00        NOP     
6323 00        NOP     
6324 00        NOP     
6325 00        NOP     
6326 00        NOP     
6327 00        NOP     
6328 00        NOP     
6329 00        NOP     
632a 00        NOP     
632b 00        NOP     
632c 00        NOP     
632d 00        NOP     
632e 00        NOP     
632f 00        NOP     
6330 00        NOP     
6331 00        NOP     
6332 00        NOP     
6333 00        NOP     
6334 00        NOP     
6335 00        NOP     
6336 00        NOP     
6337 00        NOP     
6338 00        NOP     
6339 00        NOP     
633a 00        NOP     
633b 00        NOP     
633c 00        NOP     
633d 00        NOP     
633e 00        NOP     
633f 00        NOP     
6340 00        NOP     
6341 00        NOP     
6342 00        NOP     
6343 00        NOP     
6344 00        NOP     
6345 00        NOP     
6346 00        NOP     
6347 00        NOP     
6348 00        NOP     
6349 00        NOP     
634a 00        NOP     
634b 00        NOP     
634c 00        NOP     
634d 00        NOP     
634e 00        NOP     
634f 00        NOP     
6350 00        NOP     
6351 00        NOP     
6352 00        NOP     
6353 00        NOP     
6354 00        NOP     
6355 00        NOP     
6356 00        NOP     
6357 00        NOP     
6358 00        NOP     
6359 00        NOP     
635a 00        NOP     
635b 00        NOP     
635c 00        NOP     
635d 00        NOP     
635e 00        NOP     
635f 00        NOP     
6360 00        NOP     
6361 00        NOP     
6362 00        NOP     
6363 00        NOP     
6364 00        NOP     
6365 00        NOP     
6366 00        NOP     
6367 00        NOP     
6368 00        NOP     
6369 00        NOP     
636a 00        NOP     
636b 00        NOP     
636c 00        NOP     
636d 00        NOP     
636e 00        NOP     
636f 00        NOP     
6370 00        NOP     
6371 00        NOP     
6372 00        NOP     
6373 00        NOP     
6374 00        NOP     
6375 00        NOP     
6376 00        NOP     
6377 00        NOP     
6378 00        NOP     
6379 00        NOP     
637a 00        NOP     
637b 00        NOP     
637c 00        NOP     
637d 00        NOP     
637e 00        NOP     
637f 00        NOP     
6380 00        NOP     
6381 00        NOP     
6382 00        NOP     
6383 00        NOP     
6384 00        NOP     
6385 00        NOP     
6386 00        NOP     
6387 00        NOP     
6388 00        NOP     
6389 00        NOP     
638a 00        NOP     
638b 00        NOP     
638c 00        NOP     
638d 00        NOP     
638e 00        NOP     
638f 00        NOP     
6390 00        NOP     
6391 00        NOP     
6392 00        NOP     
6393 00        NOP     
6394 00        NOP     
6395 00        NOP     
6396 00        NOP     
6397 00        NOP     
6398 00        NOP     
6399 00        NOP     
639a 00        NOP     
639b 00        NOP     
639c 00        NOP     
639d 00        NOP     
639e 00        NOP     
639f 00        NOP     
63a0 00        NOP     
63a1 00        NOP     
63a2 00        NOP     
63a3 00        NOP     
63a4 00        NOP     
63a5 00        NOP     
63a6 00        NOP     
63a7 00        NOP     
63a8 00        NOP     
63a9 00        NOP     
63aa 00        NOP     
63ab 00        NOP     
63ac 00        NOP     
63ad 00        NOP     
63ae 00        NOP     
63af 00        NOP     
63b0 00        NOP     
63b1 00        NOP     
63b2 00        NOP     
63b3 00        NOP     
63b4 00        NOP     
63b5 00        NOP     
63b6 00        NOP     
63b7 00        NOP     
63b8 00        NOP     
63b9 00        NOP     
63ba 00        NOP     
63bb 00        NOP     
63bc 00        NOP     
63bd 00        NOP     
63be 00        NOP     
63bf 00        NOP     
63c0 00        NOP     
63c1 00        NOP     
63c2 00        NOP     
63c3 00        NOP     
63c4 00        NOP     
63c5 00        NOP     
63c6 00        NOP     
63c7 00        NOP     
63c8 00        NOP     
63c9 00        NOP     
63ca 00        NOP     
63cb 00        NOP     
63cc 00        NOP     
63cd 00        NOP     
63ce 00        NOP     
63cf 00        NOP     
63d0 00        NOP     
63d1 00        NOP     
63d2 00        NOP     
63d3 00        NOP     
63d4 00        NOP     
63d5 00        NOP     
63d6 00        NOP     
63d7 00        NOP     
63d8 00        NOP     
63d9 00        NOP     
63da 00        NOP     
63db 00        NOP     
63dc 00        NOP     
63dd 00        NOP     
63de 00        NOP     
63df 00        NOP     
63e0 00        NOP     
63e1 00        NOP     
63e2 00        NOP     
63e3 00        NOP     
63e4 00        NOP     
63e5 00        NOP     
63e6 00        NOP     
63e7 00        NOP     
63e8 00        NOP     
63e9 00        NOP     
63ea 00        NOP     
63eb 00        NOP     
63ec 00        NOP     
63ed 00        NOP     
63ee 00        NOP     
63ef 00        NOP     
63f0 00        NOP     
63f1 00        NOP     
63f2 00        NOP     
63f3 00        NOP     
63f4 00        NOP     
63f5 00        NOP     
63f6 00        NOP     
63f7 00        NOP     
63f8 00        NOP     
63f9 00        NOP     
63fa 00        NOP     
63fb 00        NOP     
63fc 00        NOP     
63fd 00        NOP     
63fe 00        NOP     
63ff 00        NOP     
6400 00        NOP     
6401 00        NOP     
6402 00        NOP     
6403 00        NOP     
6404 00        NOP     
6405 00        NOP     
6406 00        NOP     
6407 00        NOP     
6408 00        NOP     
6409 00        NOP     
640a 00        NOP     
640b 00        NOP     
640c 00        NOP     
640d 00        NOP     
640e 00        NOP     
640f 00        NOP     
6410 00        NOP     
6411 00        NOP     
6412 00        NOP     
6413 00        NOP     
6414 00        NOP     
6415 00        NOP     
6416 00        NOP     
6417 00        NOP     
6418 00        NOP     
6419 00        NOP     
641a 00        NOP     
641b 00        NOP     
641c 00        NOP     
641d 00        NOP     
641e 00        NOP     
641f 00        NOP     
6420 00        NOP     
6421 00        NOP     
6422 00        NOP     
6423 00        NOP     
6424 00        NOP     
6425 00        NOP     
6426 00        NOP     
6427 00        NOP     
6428 00        NOP     
6429 00        NOP     
642a 00        NOP     
642b 00        NOP     
642c 00        NOP     
642d 00        NOP     
642e 00        NOP     
642f 00        NOP     
6430 00        NOP     
6431 00        NOP     
6432 00        NOP     
6433 00        NOP     
6434 00        NOP     
6435 00        NOP     
6436 00        NOP     
6437 00        NOP     
6438 00        NOP     
6439 00        NOP     
643a 00        NOP     
643b 00        NOP     
643c 00        NOP     
643d 00        NOP     
643e 00        NOP     
643f 00        NOP     
6440 00        NOP     
6441 00        NOP     
6442 00        NOP     
6443 00        NOP     
6444 00        NOP     
6445 00        NOP     
6446 00        NOP     
6447 00        NOP     
6448 00        NOP     
6449 00        NOP     
644a 00        NOP     
644b 00        NOP     
644c 00        NOP     
644d 00        NOP     
644e 00        NOP     
644f 00        NOP     
6450 00        NOP     
6451 00        NOP     
6452 00        NOP     
6453 00        NOP     
6454 00        NOP     
6455 00        NOP     
6456 00        NOP     
6457 00        NOP     
6458 00        NOP     
6459 00        NOP     
645a 00        NOP     
645b 00        NOP     
645c 00        NOP     
645d 00        NOP     
645e 00        NOP     
645f 00        NOP     
6460 00        NOP     
6461 00        NOP     
6462 00        NOP     
6463 00        NOP     
6464 00        NOP     
6465 00        NOP     
6466 00        NOP     
6467 00        NOP     
6468 00        NOP     
6469 00        NOP     
646a 00        NOP     
646b 00        NOP     
646c 00        NOP     
646d 00        NOP     
646e 00        NOP     
646f 00        NOP     
6470 00        NOP     
6471 00        NOP     
6472 00        NOP     
6473 00        NOP     
6474 00        NOP     
6475 00        NOP     
6476 00        NOP     
6477 00        NOP     
6478 00        NOP     
6479 00        NOP     
647a 00        NOP     
647b 00        NOP     
647c 00        NOP     
647d 00        NOP     
647e 00        NOP     
647f 00        NOP     
6480 00        NOP     
6481 00        NOP     
6482 00        NOP     
6483 00        NOP     
6484 00        NOP     
6485 00        NOP     
6486 00        NOP     
6487 00        NOP     
6488 00        NOP     
6489 00        NOP     
648a 00        NOP     
648b 00        NOP     
648c 00        NOP     
648d 00        NOP     
648e 00        NOP     
648f 00        NOP     
6490 00        NOP     
6491 00        NOP     
6492 00        NOP     
6493 00        NOP     
6494 00        NOP     
6495 00        NOP     
6496 00        NOP     
6497 00        NOP     
6498 00        NOP     
6499 00        NOP     
649a 00        NOP     
649b 00        NOP     
649c 00        NOP     
649d 00        NOP     
649e 00        NOP     
649f 00        NOP     
64a0 00        NOP     
64a1 00        NOP     
64a2 00        NOP     
64a3 00        NOP     
64a4 00        NOP     
64a5 00        NOP     
64a6 00        NOP     
64a7 00        NOP     
64a8 00        NOP     
64a9 00        NOP     
64aa 00        NOP     
64ab 00        NOP     
64ac 00        NOP     
64ad 00        NOP     
64ae 00        NOP     
64af 00        NOP     
64b0 00        NOP     
64b1 00        NOP     
64b2 00        NOP     
64b3 00        NOP     
64b4 00        NOP     
64b5 00        NOP     
64b6 00        NOP     
64b7 00        NOP     
64b8 00        NOP     
64b9 00        NOP     
64ba 00        NOP     
64bb 00        NOP     
64bc 00        NOP     
64bd 00        NOP     
64be 00        NOP     
64bf 00        NOP     
64c0 00        NOP     
64c1 00        NOP     
64c2 00        NOP     
64c3 00        NOP     
64c4 00        NOP     
64c5 00        NOP     
64c6 00        NOP     
64c7 00        NOP     
64c8 00        NOP     
64c9 00        NOP     
64ca 00        NOP     
64cb 00        NOP     
64cc 00        NOP     
64cd 00        NOP     
64ce 00        NOP     
64cf 00        NOP     
64d0 00        NOP     
64d1 00        NOP     
64d2 00        NOP     
64d3 00        NOP     
64d4 00        NOP     
64d5 00        NOP     
64d6 00        NOP     
64d7 00        NOP     
64d8 00        NOP     
64d9 00        NOP     
64da 00        NOP     
64db 00        NOP     
64dc 00        NOP     
64dd 00        NOP     
64de 00        NOP     
64df 00        NOP     
64e0 00        NOP     
64e1 00        NOP     
64e2 00        NOP     
64e3 00        NOP     
64e4 00        NOP     
64e5 00        NOP     
64e6 00        NOP     
64e7 00        NOP     
64e8 00        NOP     
64e9 00        NOP     
64ea 00        NOP     
64eb 00        NOP     
64ec 00        NOP     
64ed 00        NOP     
64ee 00        NOP     
64ef 00        NOP     
64f0 00        NOP     
64f1 00        NOP     
64f2 00        NOP     
64f3 00        NOP     
64f4 00        NOP     
64f5 00        NOP     
64f6 00        NOP     
64f7 00        NOP     
64f8 00        NOP     
64f9 00        NOP     
64fa 00        NOP     
64fb 00        NOP     
64fc 00        NOP     
64fd 00        NOP     
64fe 00        NOP     
64ff 00        NOP     
6500 00        NOP     
6501 00        NOP     
6502 00        NOP     
6503 00        NOP     
6504 00        NOP     
6505 00        NOP     
6506 00        NOP     
6507 00        NOP     
6508 00        NOP     
6509 00        NOP     
650a 00        NOP     
650b 00        NOP     
650c 00        NOP     
650d 00        NOP     
650e 00        NOP     
650f 00        NOP     
6510 00        NOP     
6511 00        NOP     
6512 00        NOP     
6513 00        NOP     
6514 00        NOP     
6515 00        NOP     
6516 00        NOP     
6517 00        NOP     
6518 00        NOP     
6519 00        NOP     
651a 00        NOP     
651b 00        NOP     
651c 00        NOP     
651d 00        NOP     
651e 00        NOP     
651f 00        NOP     
6520 00        NOP     
6521 00        NOP     
6522 00        NOP     
6523 00        NOP     
6524 00        NOP     
6525 00        NOP     
6526 00        NOP     
6527 00        NOP     
6528 00        NOP     
6529 00        NOP     
652a 00        NOP     
652b 00        NOP     
652c 00        NOP     
652d 00        NOP     
652e 00        NOP     
652f 00        NOP     
6530 00        NOP     
6531 00        NOP     
6532 00        NOP     
6533 00        NOP     
6534 00        NOP     
6535 00        NOP     
6536 00        NOP     
6537 00        NOP     
6538 00        NOP     
6539 00        NOP     
653a 00        NOP     
653b 00        NOP     
653c 00        NOP     
653d 00        NOP     
653e 00        NOP     
653f 00        NOP     
6540 00        NOP     
6541 00        NOP     
6542 00        NOP     
6543 00        NOP     
6544 00        NOP     
6545 00        NOP     
6546 00        NOP     
6547 00        NOP     
6548 00        NOP     
6549 00        NOP     
654a 00        NOP     
654b 00        NOP     
654c 00        NOP     
654d 00        NOP     
654e 00        NOP     
654f 00        NOP     
6550 00        NOP     
6551 00        NOP     
6552 00        NOP     
6553 00        NOP     
6554 00        NOP     
6555 00        NOP     
6556 00        NOP     
6557 00        NOP     
6558 00        NOP     
6559 00        NOP     
655a 00        NOP     
655b 00        NOP     
655c 00        NOP     
655d 00        NOP     
655e 00        NOP     
655f 00        NOP     
6560 00        NOP     
6561 00        NOP     
6562 00        NOP     
6563 00        NOP     
6564 00        NOP     
6565 00        NOP     
6566 00        NOP     
6567 00        NOP     
6568 00        NOP     
6569 00        NOP     
656a 00        NOP     
656b 00        NOP     
656c 00        NOP     
656d 00        NOP     
656e 00        NOP     
656f 00        NOP     
6570 00        NOP     
6571 00        NOP     
6572 00        NOP     
6573 00        NOP     
6574 00        NOP     
6575 00        NOP     
6576 00        NOP     
6577 00        NOP     
6578 00        NOP     
6579 00        NOP     
657a 00        NOP     
657b 00        NOP     
657c 00        NOP     
657d 00        NOP     
657e 00        NOP     
657f 00        NOP     
6580 00        NOP     
6581 00        NOP     
6582 00        NOP     
6583 00        NOP     
6584 00        NOP     
6585 00        NOP     
6586 00        NOP     
6587 00        NOP     
6588 00        NOP     
6589 00        NOP     
658a 00        NOP     
658b 00        NOP     
658c 00        NOP     
658d 00        NOP     
658e 00        NOP     
658f 00        NOP     
6590 00        NOP     
6591 00        NOP     
6592 00        NOP     
6593 00        NOP     
6594 00        NOP     
6595 00        NOP     
6596 00        NOP     
6597 00        NOP     
6598 00        NOP     
6599 00        NOP     
659a 00        NOP     
659b 00        NOP     
659c 00        NOP     
659d 00        NOP     
659e 00        NOP     
659f 00        NOP     
65a0 00        NOP     
65a1 00        NOP     
65a2 00        NOP     
65a3 00        NOP     
65a4 00        NOP     
65a5 00        NOP     
65a6 00        NOP     
65a7 00        NOP     
65a8 00        NOP     
65a9 00        NOP     
65aa 00        NOP     
65ab 00        NOP     
65ac 00        NOP     
65ad 00        NOP     
65ae 00        NOP     
65af 00        NOP     
65b0 00        NOP     
65b1 00        NOP     
65b2 00        NOP     
65b3 00        NOP     
65b4 00        NOP     
65b5 00        NOP     
65b6 00        NOP     
65b7 00        NOP     
65b8 00        NOP     
65b9 00        NOP     
65ba 00        NOP     
65bb 00        NOP     
65bc 00        NOP     
65bd 00        NOP     
65be 00        NOP     
65bf 00        NOP     
65c0 00        NOP     
65c1 00        NOP     
65c2 00        NOP     
65c3 00        NOP     
65c4 00        NOP     
65c5 00        NOP     
65c6 00        NOP     
65c7 00        NOP     
65c8 00        NOP     
65c9 00        NOP     
65ca 00        NOP     
65cb 00        NOP     
65cc 00        NOP     
65cd 00        NOP     
65ce 00        NOP     
65cf 00        NOP     
65d0 00        NOP     
65d1 00        NOP     
65d2 00        NOP     
65d3 00        NOP     
65d4 00        NOP     
65d5 00        NOP     
65d6 00        NOP     
65d7 00        NOP     
65d8 00        NOP     
65d9 00        NOP     
65da 00        NOP     
65db 00        NOP     
65dc 00        NOP     
65dd 00        NOP     
65de 00        NOP     
65df 00        NOP     
65e0 00        NOP     
65e1 00        NOP     
65e2 00        NOP     
65e3 00        NOP     
65e4 00        NOP     
65e5 00        NOP     
65e6 00        NOP     
65e7 00        NOP     
65e8 00        NOP     
65e9 00        NOP     
65ea 00        NOP     
65eb 00        NOP     
65ec 00        NOP     
65ed 00        NOP     
65ee 00        NOP     
65ef 00        NOP     
65f0 00        NOP     
65f1 00        NOP     
65f2 00        NOP     
65f3 00        NOP     
65f4 00        NOP     
65f5 00        NOP     
65f6 00        NOP     
65f7 00        NOP     
65f8 00        NOP     
65f9 00        NOP     
65fa 00        NOP     
65fb 00        NOP     
65fc 00        NOP     
65fd 00        NOP     
65fe 00        NOP     
65ff 00        NOP     
6600 00        NOP     
6601 00        NOP     
6602 00        NOP     
6603 00        NOP     
6604 00        NOP     
6605 00        NOP     
6606 00        NOP     
6607 00        NOP     
6608 00        NOP     
6609 00        NOP     
660a 00        NOP     
660b 00        NOP     
660c 00        NOP     
660d 00        NOP     
660e 00        NOP     
660f 00        NOP     
6610 00        NOP     
6611 00        NOP     
6612 00        NOP     
6613 00        NOP     
6614 00        NOP     
6615 00        NOP     
6616 00        NOP     
6617 00        NOP     
6618 00        NOP     
6619 00        NOP     
661a 00        NOP     
661b 00        NOP     
661c 00        NOP     
661d 00        NOP     
661e 00        NOP     
661f 00        NOP     
6620 00        NOP     
6621 00        NOP     
6622 00        NOP     
6623 00        NOP     
6624 00        NOP     
6625 00        NOP     
6626 00        NOP     
6627 00        NOP     
6628 00        NOP     
6629 00        NOP     
662a 00        NOP     
662b 00        NOP     
662c 00        NOP     
662d 00        NOP     
662e 00        NOP     
662f 00        NOP     
6630 00        NOP     
6631 00        NOP     
6632 00        NOP     
6633 00        NOP     
6634 00        NOP     
6635 00        NOP     
6636 00        NOP     
6637 00        NOP     
6638 00        NOP     
6639 00        NOP     
663a 00        NOP     
663b 00        NOP     
663c 00        NOP     
663d 00        NOP     
663e 00        NOP     
663f 00        NOP     
6640 00        NOP     
6641 00        NOP     
6642 00        NOP     
6643 00        NOP     
6644 00        NOP     
6645 00        NOP     
6646 00        NOP     
6647 00        NOP     
6648 00        NOP     
6649 00        NOP     
664a 00        NOP     
664b 00        NOP     
664c 00        NOP     
664d 00        NOP     
664e 00        NOP     
664f 00        NOP     
6650 00        NOP     
6651 00        NOP     
6652 00        NOP     
6653 00        NOP     
6654 00        NOP     
6655 00        NOP     
6656 00        NOP     
6657 00        NOP     
6658 00        NOP     
6659 00        NOP     
665a 00        NOP     
665b 00        NOP     
665c 00        NOP     
665d 00        NOP     
665e 00        NOP     
665f 00        NOP     
6660 00        NOP     
6661 00        NOP     
6662 00        NOP     
6663 00        NOP     
6664 00        NOP     
6665 00        NOP     
6666 00        NOP     
6667 00        NOP     
6668 00        NOP     
6669 00        NOP     
666a 00        NOP     
666b 00        NOP     
666c 00        NOP     
666d 00        NOP     
666e 00        NOP     
666f 00        NOP     
6670 00        NOP     
6671 00        NOP     
6672 00        NOP     
6673 00        NOP     
6674 00        NOP     
6675 00        NOP     
6676 00        NOP     
6677 00        NOP     
6678 00        NOP     
6679 00        NOP     
667a 00        NOP     
667b 00        NOP     
667c 00        NOP     
667d 00        NOP     
667e 00        NOP     
667f 00        NOP     
6680 00        NOP     
6681 00        NOP     
6682 00        NOP     
6683 00        NOP     
6684 00        NOP     
6685 00        NOP     
6686 00        NOP     
6687 00        NOP     
6688 00        NOP     
6689 00        NOP     
668a 00        NOP     
668b 00        NOP     
668c 00        NOP     
668d 00        NOP     
668e 00        NOP     
668f 00        NOP     
6690 00        NOP     
6691 00        NOP     
6692 00        NOP     
6693 00        NOP     
6694 00        NOP     
6695 00        NOP     
6696 00        NOP     
6697 00        NOP     
6698 00        NOP     
6699 00        NOP     
669a 00        NOP     
669b 00        NOP     
669c 00        NOP     
669d 00        NOP     
669e 00        NOP     
669f 00        NOP     
66a0 00        NOP     
66a1 00        NOP     
66a2 00        NOP     
66a3 00        NOP     
66a4 00        NOP     
66a5 00        NOP     
66a6 00        NOP     
66a7 00        NOP     
66a8 00        NOP     
66a9 00        NOP     
66aa 00        NOP     
66ab 00        NOP     
66ac 00        NOP     
66ad 00        NOP     
66ae 00        NOP     
66af 00        NOP     
66b0 00        NOP     
66b1 00        NOP     
66b2 00        NOP     
66b3 00        NOP     
66b4 00        NOP     
66b5 00        NOP     
66b6 00        NOP     
66b7 00        NOP     
66b8 00        NOP     
66b9 00        NOP     
66ba 00        NOP     
66bb 00        NOP     
66bc 00        NOP     
66bd 00        NOP     
66be 00        NOP     
66bf 00        NOP     
66c0 00        NOP     
66c1 00        NOP     
66c2 00        NOP     
66c3 00        NOP     
66c4 00        NOP     
66c5 00        NOP     
66c6 00        NOP     
66c7 00        NOP     
66c8 00        NOP     
66c9 00        NOP     
66ca 00        NOP     
66cb 00        NOP     
66cc 00        NOP     
66cd 00        NOP     
66ce 00        NOP     
66cf 00        NOP     
66d0 00        NOP     
66d1 00        NOP     
66d2 00        NOP     
66d3 00        NOP     
66d4 00        NOP     
66d5 00        NOP     
66d6 00        NOP     
66d7 00        NOP     
66d8 00        NOP     
66d9 00        NOP     
66da 00        NOP     
66db 00        NOP     
66dc 00        NOP     
66dd 00        NOP     
66de 00        NOP     
66df 00        NOP     
66e0 00        NOP     
66e1 00        NOP     
66e2 00        NOP     
66e3 00        NOP     
66e4 00        NOP     
66e5 00        NOP     
66e6 00        NOP     
66e7 00        NOP     
66e8 00        NOP     
66e9 00        NOP     
66ea 00        NOP     
66eb 00        NOP     
66ec 00        NOP     
66ed 00        NOP     
66ee 00        NOP     
66ef 00        NOP     
66f0 00        NOP     
66f1 00        NOP     
66f2 00        NOP     
66f3 00        NOP     
66f4 00        NOP     
66f5 00        NOP     
66f6 00        NOP     
66f7 00        NOP     
66f8 00        NOP     
66f9 00        NOP     
66fa 00        NOP     
66fb 00        NOP     
66fc 00        NOP     
66fd 00        NOP     
66fe 00        NOP     
66ff 00        NOP     
6700 00        NOP     
6701 00        NOP     
6702 00        NOP     
6703 00        NOP     
6704 00        NOP     
6705 00        NOP     
6706 00        NOP     
6707 00        NOP     
6708 00        NOP     
6709 00        NOP     
670a 00        NOP     
670b 00        NOP     
670c 00        NOP     
670d 00        NOP     
670e 00        NOP     
670f 00        NOP     
6710 00        NOP     
6711 00        NOP     
6712 00        NOP     
6713 00        NOP     
6714 00        NOP     
6715 00        NOP     
6716 00        NOP     
6717 00        NOP     
6718 00        NOP     
6719 00        NOP     
671a 00        NOP     
671b 00        NOP     
671c 00        NOP     
671d 00        NOP     
671e 00        NOP     
671f 00        NOP     
6720 00        NOP     
6721 00        NOP     
6722 00        NOP     
6723 00        NOP     
6724 00        NOP     
6725 00        NOP     
6726 00        NOP     
6727 00        NOP     
6728 00        NOP     
6729 00        NOP     
672a 00        NOP     
672b 00        NOP     
672c 00        NOP     
672d 00        NOP     
672e 00        NOP     
672f 00        NOP     
6730 00        NOP     
6731 00        NOP     
6732 00        NOP     
6733 00        NOP     
6734 00        NOP     
6735 00        NOP     
6736 00        NOP     
6737 00        NOP     
6738 00        NOP     
6739 00        NOP     
673a 00        NOP     
673b 00        NOP     
673c 00        NOP     
673d 00        NOP     
673e 00        NOP     
673f 00        NOP     
6740 00        NOP     
6741 00        NOP     
6742 00        NOP     
6743 00        NOP     
6744 00        NOP     
6745 00        NOP     
6746 00        NOP     
6747 00        NOP     
6748 00        NOP     
6749 00        NOP     
674a 00        NOP     
674b 00        NOP     
674c 00        NOP     
674d 00        NOP     
674e 00        NOP     
674f 00        NOP     
6750 00        NOP     
6751 00        NOP     
6752 00        NOP     
6753 00        NOP     
6754 00        NOP     
6755 00        NOP     
6756 00        NOP     
6757 00        NOP     
6758 00        NOP     
6759 00        NOP     
675a 00        NOP     
675b 00        NOP     
675c 00        NOP     
675d 00        NOP     
675e 00        NOP     
675f 00        NOP     
6760 00        NOP     
6761 00        NOP     
6762 00        NOP     
6763 00        NOP     
6764 00        NOP     
6765 00        NOP     
6766 00        NOP     
6767 00        NOP     
6768 00        NOP     
6769 00        NOP     
676a 00        NOP     
676b 00        NOP     
676c 00        NOP     
676d 00        NOP     
676e 00        NOP     
676f 00        NOP     
6770 00        NOP     
6771 00        NOP     
6772 00        NOP     
6773 00        NOP     
6774 00        NOP     
6775 00        NOP     
6776 00        NOP     
6777 00        NOP     
6778 00        NOP     
6779 00        NOP     
677a 00        NOP     
677b 00        NOP     
677c 00        NOP     
677d 00        NOP     
677e 00        NOP     
677f 00        NOP     
6780 00        NOP     
6781 00        NOP     
6782 00        NOP     
6783 00        NOP     
6784 00        NOP     
6785 00        NOP     
6786 00        NOP     
6787 00        NOP     
6788 00        NOP     
6789 00        NOP     
678a 00        NOP     
678b 00        NOP     
678c 00        NOP     
678d 00        NOP     
678e 00        NOP     
678f 00        NOP     
6790 00        NOP     
6791 00        NOP     
6792 00        NOP     
6793 00        NOP     
6794 00        NOP     
6795 00        NOP     
6796 00        NOP     
6797 00        NOP     
6798 00        NOP     
6799 00        NOP     
679a 00        NOP     
679b 00        NOP     
679c 00        NOP     
679d 00        NOP     
679e 00        NOP     
679f 00        NOP     
67a0 00        NOP     
67a1 00        NOP     
67a2 00        NOP     
67a3 00        NOP     
67a4 00        NOP     
67a5 00        NOP     
67a6 00        NOP     
67a7 00        NOP     
67a8 00        NOP     
67a9 00        NOP     
67aa 00        NOP     
67ab 00        NOP     
67ac 00        NOP     
67ad 00        NOP     
67ae 00        NOP     
67af 00        NOP     
67b0 00        NOP     
67b1 00        NOP     
67b2 00        NOP     
67b3 00        NOP     
67b4 00        NOP     
67b5 00        NOP     
67b6 00        NOP     
67b7 00        NOP     
67b8 00        NOP     
67b9 00        NOP     
67ba 00        NOP     
67bb 00        NOP     
67bc 00        NOP     
67bd 00        NOP     
67be 00        NOP     
67bf 00        NOP     
67c0 00        NOP     
67c1 00        NOP     
67c2 00        NOP     
67c3 00        NOP     
67c4 00        NOP     
67c5 00        NOP     
67c6 00        NOP     
67c7 00        NOP     
67c8 00        NOP     
67c9 00        NOP     
67ca 00        NOP     
67cb 00        NOP     
67cc 00        NOP     
67cd 00        NOP     
67ce 00        NOP     
67cf 00        NOP     
67d0 00        NOP     
67d1 00        NOP     
67d2 00        NOP     
67d3 00        NOP     
67d4 00        NOP     
67d5 00        NOP     
67d6 00        NOP     
67d7 00        NOP     
67d8 00        NOP     
67d9 00        NOP     
67da 00        NOP     
67db 00        NOP     
67dc 00        NOP     
67dd 00        NOP     
67de 00        NOP     
67df 00        NOP     
67e0 00        NOP     
67e1 00        NOP     
67e2 00        NOP     
67e3 00        NOP     
67e4 00        NOP     
67e5 00        NOP     
67e6 00        NOP     
67e7 00        NOP     
67e8 00        NOP     
67e9 00        NOP     
67ea 00        NOP     
67eb 00        NOP     
67ec 00        NOP     
67ed 00        NOP     
67ee 00        NOP     
67ef 00        NOP     
67f0 00        NOP     
67f1 00        NOP     
67f2 00        NOP     
67f3 00        NOP     
67f4 00        NOP     
67f5 00        NOP     
67f6 00        NOP     
67f7 00        NOP     
67f8 00        NOP     
67f9 00        NOP     
67fa 00        NOP     
67fb 00        NOP     
67fc 00        NOP     
67fd 00        NOP     
67fe 00        NOP     
67ff 00        NOP     
6800 00        NOP     
6801 00        NOP     
6802 00        NOP     
6803 00        NOP     
6804 00        NOP     
6805 00        NOP     
6806 00        NOP     
6807 00        NOP     
6808 00        NOP     
6809 00        NOP     
680a 00        NOP     
680b 00        NOP     
680c 00        NOP     
680d 00        NOP     
680e 00        NOP     
680f 00        NOP     
6810 00        NOP     
6811 00        NOP     
6812 00        NOP     
6813 00        NOP     
6814 00        NOP     
6815 00        NOP     
6816 00        NOP     
6817 00        NOP     
6818 00        NOP     
6819 00        NOP     
681a 00        NOP     
681b 00        NOP     
681c 00        NOP     
681d 00        NOP     
681e 00        NOP     
681f 00        NOP     
6820 00        NOP     
6821 00        NOP     
6822 00        NOP     
6823 00        NOP     
6824 00        NOP     
6825 00        NOP     
6826 00        NOP     
6827 00        NOP     
6828 00        NOP     
6829 00        NOP     
682a 00        NOP     
682b 00        NOP     
682c 00        NOP     
682d 00        NOP     
682e 00        NOP     
682f 00        NOP     
6830 00        NOP     
6831 00        NOP     
6832 00        NOP     
6833 00        NOP     
6834 00        NOP     
6835 00        NOP     
6836 00        NOP     
6837 00        NOP     
6838 00        NOP     
6839 00        NOP     
683a 00        NOP     
683b 00        NOP     
683c 00        NOP     
683d 00        NOP     
683e 00        NOP     
683f 00        NOP     
6840 00        NOP     
6841 00        NOP     
6842 00        NOP     
6843 00        NOP     
6844 00        NOP     
6845 00        NOP     
6846 00        NOP     
6847 00        NOP     
6848 00        NOP     
6849 00        NOP     
684a 00        NOP     
684b 00        NOP     
684c 00        NOP     
684d 00        NOP     
684e 00        NOP     
684f 00        NOP     
6850 00        NOP     
6851 00        NOP     
6852 00        NOP     
6853 00        NOP     
6854 00        NOP     
6855 00        NOP     
6856 00        NOP     
6857 00        NOP     
6858 00        NOP     
6859 00        NOP     
685a 00        NOP     
685b 00        NOP     
685c 00        NOP     
685d 00        NOP     
685e 00        NOP     
685f 00        NOP     
6860 00        NOP     
6861 00        NOP     
6862 00        NOP     
6863 00        NOP     
6864 00        NOP     
6865 00        NOP     
6866 00        NOP     
6867 00        NOP     
6868 00        NOP     
6869 00        NOP     
686a 00        NOP     
686b 00        NOP     
686c 00        NOP     
686d 00        NOP     
686e 00        NOP     
686f 00        NOP     
6870 00        NOP     
6871 00        NOP     
6872 00        NOP     
6873 00        NOP     
6874 00        NOP     
6875 00        NOP     
6876 00        NOP     
6877 00        NOP     
6878 00        NOP     
6879 00        NOP     
687a 00        NOP     
687b 00        NOP     
687c 00        NOP     
687d 00        NOP     
687e 00        NOP     
687f 00        NOP     
6880 00        NOP     
6881 00        NOP     
6882 00        NOP     
6883 00        NOP     
6884 00        NOP     
6885 00        NOP     
6886 00        NOP     
6887 00        NOP     
6888 00        NOP     
6889 00        NOP     
688a 00        NOP     
688b 00        NOP     
688c 00        NOP     
688d 00        NOP     
688e 00        NOP     
688f 00        NOP     
6890 00        NOP     
6891 00        NOP     
6892 00        NOP     
6893 00        NOP     
6894 00        NOP     
6895 00        NOP     
6896 00        NOP     
6897 00        NOP     
6898 00        NOP     
6899 00        NOP     
689a 00        NOP     
689b 00        NOP     
689c 00        NOP     
689d 00        NOP     
689e 00        NOP     
689f 00        NOP     
68a0 00        NOP     
68a1 00        NOP     
68a2 00        NOP     
68a3 00        NOP     
68a4 00        NOP     
68a5 00        NOP     
68a6 00        NOP     
68a7 00        NOP     
68a8 00        NOP     
68a9 00        NOP     
68aa 00        NOP     
68ab 00        NOP     
68ac 00        NOP     
68ad 00        NOP     
68ae 00        NOP     
68af 00        NOP     
68b0 00        NOP     
68b1 00        NOP     
68b2 00        NOP     
68b3 00        NOP     
68b4 00        NOP     
68b5 00        NOP     
68b6 00        NOP     
68b7 00        NOP     
68b8 00        NOP     
68b9 00        NOP     
68ba 00        NOP     
68bb 00        NOP     
68bc 00        NOP     
68bd 00        NOP     
68be 00        NOP     
68bf 00        NOP     
68c0 00        NOP     
68c1 00        NOP     
68c2 00        NOP     
68c3 00        NOP     
68c4 00        NOP     
68c5 00        NOP     
68c6 00        NOP     
68c7 00        NOP     
68c8 00        NOP     
68c9 00        NOP     
68ca 00        NOP     
68cb 00        NOP     
68cc 00        NOP     
68cd 00        NOP     
68ce 00        NOP     
68cf 00        NOP     
68d0 00        NOP     
68d1 00        NOP     
68d2 00        NOP     
68d3 00        NOP     
68d4 00        NOP     
68d5 00        NOP     
68d6 00        NOP     
68d7 00        NOP     
68d8 00        NOP     
68d9 00        NOP     
68da 00        NOP     
68db 00        NOP     
68dc 00        NOP     
68dd 00        NOP     
68de 00        NOP     
68df 00        NOP     
68e0 00        NOP     
68e1 00        NOP     
68e2 00        NOP     
68e3 00        NOP     
68e4 00        NOP     
68e5 00        NOP     
68e6 00        NOP     
68e7 00        NOP     
68e8 00        NOP     
68e9 00        NOP     
68ea 00        NOP     
68eb 00        NOP     
68ec 00        NOP     
68ed 00        NOP     
68ee 00        NOP     
68ef 00        NOP     
68f0 00        NOP     
68f1 00        NOP     
68f2 00        NOP     
68f3 00        NOP     
68f4 00        NOP     
68f5 00        NOP     
68f6 00        NOP     
68f7 00        NOP     
68f8 00        NOP     
68f9 00        NOP     
68fa 00        NOP     
68fb 00        NOP     
68fc 00        NOP     
68fd 00        NOP     
68fe 00        NOP     
68ff 00        NOP     
6900 00        NOP     
6901 00        NOP     
6902 00        NOP     
6903 00        NOP     
6904 00        NOP     
6905 00        NOP     
6906 00        NOP     
6907 00        NOP     
6908 00        NOP     
6909 00        NOP     
690a 00        NOP     
690b 00        NOP     
690c 00        NOP     
690d 00        NOP     
690e 00        NOP     
690f 00        NOP     
6910 00        NOP     
6911 00        NOP     
6912 00        NOP     
6913 00        NOP     
6914 00        NOP     
6915 00        NOP     
6916 00        NOP     
6917 00        NOP     
6918 00        NOP     
6919 00        NOP     
691a 00        NOP     
691b 00        NOP     
691c 00        NOP     
691d 00        NOP     
691e 00        NOP     
691f 00        NOP     
6920 00        NOP     
6921 00        NOP     
6922 00        NOP     
6923 00        NOP     
6924 00        NOP     
6925 00        NOP     
6926 00        NOP     
6927 00        NOP     
6928 00        NOP     
6929 00        NOP     
692a 00        NOP     
692b 00        NOP     
692c 00        NOP     
692d 00        NOP     
692e 00        NOP     
692f 00        NOP     
6930 00        NOP     
6931 00        NOP     
6932 00        NOP     
6933 00        NOP     
6934 00        NOP     
6935 00        NOP     
6936 00        NOP     
6937 00        NOP     
6938 00        NOP     
6939 00        NOP     
693a 00        NOP     
693b 00        NOP     
693c 00        NOP     
693d 00        NOP     
693e 00        NOP     
693f 00        NOP     
6940 00        NOP     
6941 00        NOP     
6942 00        NOP     
6943 00        NOP     
6944 00        NOP     
6945 00        NOP     
6946 00        NOP     
6947 00        NOP     
6948 00        NOP     
6949 00        NOP     
694a 00        NOP     
694b 00        NOP     
694c 00        NOP     
694d 00        NOP     
694e 00        NOP     
694f 00        NOP     
6950 00        NOP     
6951 00        NOP     
6952 00        NOP     
6953 00        NOP     
6954 00        NOP     
6955 00        NOP     
6956 00        NOP     
6957 00        NOP     
6958 00        NOP     
6959 00        NOP     
695a 00        NOP     
695b 00        NOP     
695c 00        NOP     
695d 00        NOP     
695e 00        NOP     
695f 00        NOP     
6960 00        NOP     
6961 00        NOP     
6962 00        NOP     
6963 00        NOP     
6964 00        NOP     
6965 00        NOP     
6966 00        NOP     
6967 00        NOP     
6968 00        NOP     
6969 00        NOP     
696a 00        NOP     
696b 00        NOP     
696c 00        NOP     
696d 00        NOP     
696e 00        NOP     
696f 00        NOP     
6970 00        NOP     
6971 00        NOP     
6972 00        NOP     
6973 00        NOP     
6974 00        NOP     
6975 00        NOP     
6976 00        NOP     
6977 00        NOP     
6978 00        NOP     
6979 00        NOP     
697a 00        NOP     
697b 00        NOP     
697c 00        NOP     
697d 00        NOP     
697e 00        NOP     
697f 00        NOP     
6980 00        NOP     
6981 00        NOP     
6982 00        NOP     
6983 00        NOP     
6984 00        NOP     
6985 00        NOP     
6986 00        NOP     
6987 00        NOP     
6988 00        NOP     
6989 00        NOP     
698a 00        NOP     
698b 00        NOP     
698c 00        NOP     
698d 00        NOP     
698e 00        NOP     
698f 00        NOP     
6990 00        NOP     
6991 00        NOP     
6992 00        NOP     
6993 00        NOP     
6994 00        NOP     
6995 00        NOP     
6996 00        NOP     
6997 00        NOP     
6998 00        NOP     
6999 00        NOP     
699a 00        NOP     
699b 00        NOP     
699c 00        NOP     
699d 00        NOP     
699e 00        NOP     
699f 00        NOP     
69a0 00        NOP     
69a1 00        NOP     
69a2 00        NOP     
69a3 00        NOP     
69a4 00        NOP     
69a5 00        NOP     
69a6 00        NOP     
69a7 00        NOP     
69a8 00        NOP     
69a9 00        NOP     
69aa 00        NOP     
69ab 00        NOP     
69ac 00        NOP     
69ad 00        NOP     
69ae 00        NOP     
69af 00        NOP     
69b0 00        NOP     
69b1 00        NOP     
69b2 00        NOP     
69b3 00        NOP     
69b4 00        NOP     
69b5 00        NOP     
69b6 00        NOP     
69b7 00        NOP     
69b8 00        NOP     
69b9 00        NOP     
69ba 00        NOP     
69bb 00        NOP     
69bc 00        NOP     
69bd 00        NOP     
69be 00        NOP     
69bf 00        NOP     
69c0 00        NOP     
69c1 00        NOP     
69c2 00        NOP     
69c3 00        NOP     
69c4 00        NOP     
69c5 00        NOP     
69c6 00        NOP     
69c7 00        NOP     
69c8 00        NOP     
69c9 00        NOP     
69ca 00        NOP     
69cb 00        NOP     
69cc 00        NOP     
69cd 00        NOP     
69ce 00        NOP     
69cf 00        NOP     
69d0 00        NOP     
69d1 00        NOP     
69d2 00        NOP     
69d3 00        NOP     
69d4 00        NOP     
69d5 00        NOP     
69d6 00        NOP     
69d7 00        NOP     
69d8 00        NOP     
69d9 00        NOP     
69da 00        NOP     
69db 00        NOP     
69dc 00        NOP     
69dd 00        NOP     
69de 00        NOP     
69df 00        NOP     
69e0 00        NOP     
69e1 00        NOP     
69e2 00        NOP     
69e3 00        NOP     
69e4 00        NOP     
69e5 00        NOP     
69e6 00        NOP     
69e7 00        NOP     
69e8 00        NOP     
69e9 00        NOP     
69ea 00        NOP     
69eb 00        NOP     
69ec 00        NOP     
69ed 00        NOP     
69ee 00        NOP     
69ef 00        NOP     
69f0 00        NOP     
69f1 00        NOP     
69f2 00        NOP     
69f3 00        NOP     
69f4 00        NOP     
69f5 00        NOP     
69f6 00        NOP     
69f7 00        NOP     
69f8 00        NOP     
69f9 00        NOP     
69fa 00        NOP     
69fb 00        NOP     
69fc 00        NOP     
69fd 00        NOP     
69fe 00        NOP     
69ff 00        NOP     
6a00 00        NOP     
6a01 00        NOP     
6a02 00        NOP     
6a03 00        NOP     
6a04 00        NOP     
6a05 00        NOP     
6a06 00        NOP     
6a07 00        NOP     
6a08 00        NOP     
6a09 00        NOP     
6a0a 00        NOP     
6a0b 00        NOP     
6a0c 00        NOP     
6a0d 00        NOP     
6a0e 00        NOP     
6a0f 00        NOP     
6a10 00        NOP     
6a11 00        NOP     
6a12 00        NOP     
6a13 00        NOP     
6a14 00        NOP     
6a15 00        NOP     
6a16 00        NOP     
6a17 00        NOP     
6a18 00        NOP     
6a19 00        NOP     
6a1a 00        NOP     
6a1b 00        NOP     
6a1c 00        NOP     
6a1d 00        NOP     
6a1e 00        NOP     
6a1f 00        NOP     
6a20 00        NOP     
6a21 00        NOP     
6a22 00        NOP     
6a23 00        NOP     
6a24 00        NOP     
6a25 00        NOP     
6a26 00        NOP     
6a27 00        NOP     
6a28 00        NOP     
6a29 00        NOP     
6a2a 00        NOP     
6a2b 00        NOP     
6a2c 00        NOP     
6a2d 00        NOP     
6a2e 00        NOP     
6a2f 00        NOP     
6a30 00        NOP     
6a31 00        NOP     
6a32 00        NOP     
6a33 00        NOP     
6a34 00        NOP     
6a35 00        NOP     
6a36 00        NOP     
6a37 00        NOP     
6a38 00        NOP     
6a39 00        NOP     
6a3a 00        NOP     
6a3b 00        NOP     
6a3c 00        NOP     
6a3d 00        NOP     
6a3e 00        NOP     
6a3f 00        NOP     
6a40 00        NOP     
6a41 00        NOP     
6a42 00        NOP     
6a43 00        NOP     
6a44 00        NOP     
6a45 00        NOP     
6a46 00        NOP     
6a47 00        NOP     
6a48 00        NOP     
6a49 00        NOP     
6a4a 00        NOP     
6a4b 00        NOP     
6a4c 00        NOP     
6a4d 00        NOP     
6a4e 00        NOP     
6a4f 00        NOP     
6a50 00        NOP     
6a51 00        NOP     
6a52 00        NOP     
6a53 00        NOP     
6a54 00        NOP     
6a55 00        NOP     
6a56 00        NOP     
6a57 00        NOP     
6a58 00        NOP     
6a59 00        NOP     
6a5a 00        NOP     
6a5b 00        NOP     
6a5c 00        NOP     
6a5d 00        NOP     
6a5e 00        NOP     
6a5f 00        NOP     
6a60 00        NOP     
6a61 00        NOP     
6a62 00        NOP     
6a63 00        NOP     
6a64 00        NOP     
6a65 00        NOP     
6a66 00        NOP     
6a67 00        NOP     
6a68 00        NOP     
6a69 00        NOP     
6a6a 00        NOP     
6a6b 00        NOP     
6a6c 00        NOP     
6a6d 00        NOP     
6a6e 00        NOP     
6a6f 00        NOP     
6a70 00        NOP     
6a71 00        NOP     
6a72 00        NOP     
6a73 00        NOP     
6a74 00        NOP     
6a75 00        NOP     
6a76 00        NOP     
6a77 00        NOP     
6a78 00        NOP     
6a79 00        NOP     
6a7a 00        NOP     
6a7b 00        NOP     
6a7c 00        NOP     
6a7d 00        NOP     
6a7e 00        NOP     
6a7f 00        NOP     
6a80 00        NOP     
6a81 00        NOP     
6a82 00        NOP     
6a83 00        NOP     
6a84 00        NOP     
6a85 00        NOP     
6a86 00        NOP     
6a87 00        NOP     
6a88 00        NOP     
6a89 00        NOP     
6a8a 00        NOP     
6a8b 00        NOP     
6a8c 00        NOP     
6a8d 00        NOP     
6a8e 00        NOP     
6a8f 00        NOP     
6a90 00        NOP     
6a91 00        NOP     
6a92 00        NOP     
6a93 00        NOP     
6a94 00        NOP     
6a95 00        NOP     
6a96 00        NOP     
6a97 00        NOP     
6a98 00        NOP     
6a99 00        NOP     
6a9a 00        NOP     
6a9b 00        NOP     
6a9c 00        NOP     
6a9d 00        NOP     
6a9e 00        NOP     
6a9f 00        NOP     
6aa0 00        NOP     
6aa1 00        NOP     
6aa2 00        NOP     
6aa3 00        NOP     
6aa4 00        NOP     
6aa5 00        NOP     
6aa6 00        NOP     
6aa7 00        NOP     
6aa8 00        NOP     
6aa9 00        NOP     
6aaa 00        NOP     
6aab 00        NOP     
6aac 00        NOP     
6aad 00        NOP     
6aae 00        NOP     
6aaf 00        NOP     
6ab0 00        NOP     
6ab1 00        NOP     
6ab2 00        NOP     
6ab3 00        NOP     
6ab4 00        NOP     
6ab5 00        NOP     
6ab6 00        NOP     
6ab7 00        NOP     
6ab8 00        NOP     
6ab9 00        NOP     
6aba 00        NOP     
6abb 00        NOP     
6abc 00        NOP     
6abd 00        NOP     
6abe 00        NOP     
6abf 00        NOP     
6ac0 00        NOP     
6ac1 00        NOP     
6ac2 00        NOP     
6ac3 00        NOP     
6ac4 00        NOP     
6ac5 00        NOP     
6ac6 00        NOP     
6ac7 00        NOP     
6ac8 00        NOP     
6ac9 00        NOP     
6aca 00        NOP     
6acb 00        NOP     
6acc 00        NOP     
6acd 00        NOP     
6ace 00        NOP     
6acf 00        NOP     
6ad0 00        NOP     
6ad1 00        NOP     
6ad2 00        NOP     
6ad3 00        NOP     
6ad4 00        NOP     
6ad5 00        NOP     
6ad6 00        NOP     
6ad7 00        NOP     
6ad8 00        NOP     
6ad9 00        NOP     
6ada 00        NOP     
6adb 00        NOP     
6adc 00        NOP     
6add 00        NOP     
6ade 00        NOP     
6adf 00        NOP     
6ae0 00        NOP     
6ae1 00        NOP     
6ae2 00        NOP     
6ae3 00        NOP     
6ae4 00        NOP     
6ae5 00        NOP     
6ae6 00        NOP     
6ae7 00        NOP     
6ae8 00        NOP     
6ae9 00        NOP     
6aea 00        NOP     
6aeb 00        NOP     
6aec 00        NOP     
6aed 00        NOP     
6aee 00        NOP     
6aef 00        NOP     
6af0 00        NOP     
6af1 00        NOP     
6af2 00        NOP     
6af3 00        NOP     
6af4 00        NOP     
6af5 00        NOP     
6af6 00        NOP     
6af7 00        NOP     
6af8 00        NOP     
6af9 00        NOP     
6afa 00        NOP     
6afb 00        NOP     
6afc 00        NOP     
6afd 00        NOP     
6afe 00        NOP     
6aff 00        NOP     
6b00 00        NOP     
6b01 00        NOP     
6b02 00        NOP     
6b03 00        NOP     
6b04 00        NOP     
6b05 00        NOP     
6b06 00        NOP     
6b07 00        NOP     
6b08 00        NOP     
6b09 00        NOP     
6b0a 00        NOP     
6b0b 00        NOP     
6b0c 00        NOP     
6b0d 00        NOP     
6b0e 00        NOP     
6b0f 00        NOP     
6b10 00        NOP     
6b11 00        NOP     
6b12 00        NOP     
6b13 00        NOP     
6b14 00        NOP     
6b15 00        NOP     
6b16 00        NOP     
6b17 00        NOP     
6b18 00        NOP     
6b19 00        NOP     
6b1a 00        NOP     
6b1b 00        NOP     
6b1c 00        NOP     
6b1d 00        NOP     
6b1e 00        NOP     
6b1f 00        NOP     
6b20 00        NOP     
6b21 00        NOP     
6b22 00        NOP     
6b23 00        NOP     
6b24 00        NOP     
6b25 00        NOP     
6b26 00        NOP     
6b27 00        NOP     
6b28 00        NOP     
6b29 00        NOP     
6b2a 00        NOP     
6b2b 00        NOP     
6b2c 00        NOP     
6b2d 00        NOP     
6b2e 00        NOP     
6b2f 00        NOP     
6b30 00        NOP     
6b31 00        NOP     
6b32 00        NOP     
6b33 00        NOP     
6b34 00        NOP     
6b35 00        NOP     
6b36 00        NOP     
6b37 00        NOP     
6b38 00        NOP     
6b39 00        NOP     
6b3a 00        NOP     
6b3b 00        NOP     
6b3c 00        NOP     
6b3d 00        NOP     
6b3e 00        NOP     
6b3f 00        NOP     
6b40 00        NOP     
6b41 00        NOP     
6b42 00        NOP     
6b43 00        NOP     
6b44 00        NOP     
6b45 00        NOP     
6b46 00        NOP     
6b47 00        NOP     
6b48 00        NOP     
6b49 00        NOP     
6b4a 00        NOP     
6b4b 00        NOP     
6b4c 00        NOP     
6b4d 00        NOP     
6b4e 00        NOP     
6b4f 00        NOP     
6b50 00        NOP     
6b51 00        NOP     
6b52 00        NOP     
6b53 00        NOP     
6b54 00        NOP     
6b55 00        NOP     
6b56 00        NOP     
6b57 00        NOP     
6b58 00        NOP     
6b59 00        NOP     
6b5a 00        NOP     
6b5b 00        NOP     
6b5c 00        NOP     
6b5d 00        NOP     
6b5e 00        NOP     
6b5f 00        NOP     
6b60 00        NOP     
6b61 00        NOP     
6b62 00        NOP     
6b63 00        NOP     
6b64 00        NOP     
6b65 00        NOP     
6b66 00        NOP     
6b67 00        NOP     
6b68 00        NOP     
6b69 00        NOP     
6b6a 00        NOP     
6b6b 00        NOP     
6b6c 00        NOP     
6b6d 00        NOP     
6b6e 00        NOP     
6b6f 00        NOP     
6b70 00        NOP     
6b71 00        NOP     
6b72 00        NOP     
6b73 00        NOP     
6b74 00        NOP     
6b75 00        NOP     
6b76 00        NOP     
6b77 00        NOP     
6b78 00        NOP     
6b79 00        NOP     
6b7a 00        NOP     
6b7b 00        NOP     
6b7c 00        NOP     
6b7d 00        NOP     
6b7e 00        NOP     
6b7f 00        NOP     
6b80 00        NOP     
6b81 00        NOP     
6b82 00        NOP     
6b83 00        NOP     
6b84 00        NOP     
6b85 00        NOP     
6b86 00        NOP     
6b87 00        NOP     
6b88 00        NOP     
6b89 00        NOP     
6b8a 00        NOP     
6b8b 00        NOP     
6b8c 00        NOP     
6b8d 00        NOP     
6b8e 00        NOP     
6b8f 00        NOP     
6b90 00        NOP     
6b91 00        NOP     
6b92 00        NOP     
6b93 00        NOP     
6b94 00        NOP     
6b95 00        NOP     
6b96 00        NOP     
6b97 00        NOP     
6b98 00        NOP     
6b99 00        NOP     
6b9a 00        NOP     
6b9b 00        NOP     
6b9c 00        NOP     
6b9d 00        NOP     
6b9e 00        NOP     
6b9f 00        NOP     
6ba0 00        NOP     
6ba1 00        NOP     
6ba2 00        NOP     
6ba3 00        NOP     
6ba4 00        NOP     
6ba5 00        NOP     
6ba6 00        NOP     
6ba7 00        NOP     
6ba8 00        NOP     
6ba9 00        NOP     
6baa 00        NOP     
6bab 00        NOP     
6bac 00        NOP     
6bad 00        NOP     
6bae 00        NOP     
6baf 00        NOP     
6bb0 00        NOP     
6bb1 00        NOP     
6bb2 00        NOP     
6bb3 00        NOP     
6bb4 00        NOP     
6bb5 00        NOP     
6bb6 00        NOP     
6bb7 00        NOP     
6bb8 00        NOP     
6bb9 00        NOP     
6bba 00        NOP     
6bbb 00        NOP     
6bbc 00        NOP     
6bbd 00        NOP     
6bbe 00        NOP     
6bbf 00        NOP     
6bc0 00        NOP     
6bc1 00        NOP     
6bc2 00        NOP     
6bc3 00        NOP     
6bc4 00        NOP     
6bc5 00        NOP     
6bc6 00        NOP     
6bc7 00        NOP     
6bc8 00        NOP     
6bc9 00        NOP     
6bca 00        NOP     
6bcb 00        NOP     
6bcc 00        NOP     
6bcd 00        NOP     
6bce 00        NOP     
6bcf 00        NOP     
6bd0 00        NOP     
6bd1 00        NOP     
6bd2 00        NOP     
6bd3 00        NOP     
6bd4 00        NOP     
6bd5 00        NOP     
6bd6 00        NOP     
6bd7 00        NOP     
6bd8 00        NOP     
6bd9 00        NOP     
6bda 00        NOP     
6bdb 00        NOP     
6bdc 00        NOP     
6bdd 00        NOP     
6bde 00        NOP     
6bdf 00        NOP     
6be0 00        NOP     
6be1 00        NOP     
6be2 00        NOP     
6be3 00        NOP     
6be4 00        NOP     
6be5 00        NOP     
6be6 00        NOP     
6be7 00        NOP     
6be8 00        NOP     
6be9 00        NOP     
6bea 00        NOP     
6beb 00        NOP     
6bec 00        NOP     
6bed 00        NOP     
6bee 00        NOP     
6bef 00        NOP     
6bf0 00        NOP     
6bf1 00        NOP     
6bf2 00        NOP     
6bf3 00        NOP     
6bf4 00        NOP     
6bf5 00        NOP     
6bf6 00        NOP     
6bf7 00        NOP     
6bf8 00        NOP     
6bf9 00        NOP     
6bfa 00        NOP     
6bfb 00        NOP     
6bfc 00        NOP     
6bfd 00        NOP     
6bfe 00        NOP     
6bff 00        NOP     
6c00 00        NOP     
6c01 00        NOP     
6c02 00        NOP     
6c03 00        NOP     
6c04 00        NOP     
6c05 00        NOP     
6c06 00        NOP     
6c07 00        NOP     
6c08 00        NOP     
6c09 00        NOP     
6c0a 00        NOP     
6c0b 00        NOP     
6c0c 00        NOP     
6c0d 00        NOP     
6c0e 00        NOP     
6c0f 00        NOP     
6c10 00        NOP     
6c11 00        NOP     
6c12 00        NOP     
6c13 00        NOP     
6c14 00        NOP     
6c15 00        NOP     
6c16 00        NOP     
6c17 00        NOP     
6c18 00        NOP     
6c19 00        NOP     
6c1a 00        NOP     
6c1b 00        NOP     
6c1c 00        NOP     
6c1d 00        NOP     
6c1e 00        NOP     
6c1f 00        NOP     
6c20 00        NOP     
6c21 00        NOP     
6c22 00        NOP     
6c23 00        NOP     
6c24 00        NOP     
6c25 00        NOP     
6c26 00        NOP     
6c27 00        NOP     
6c28 00        NOP     
6c29 00        NOP     
6c2a 00        NOP     
6c2b 00        NOP     
6c2c 00        NOP     
6c2d 00        NOP     
6c2e 00        NOP     
6c2f 00        NOP     
6c30 00        NOP     
6c31 00        NOP     
6c32 00        NOP     
6c33 00        NOP     
6c34 00        NOP     
6c35 00        NOP     
6c36 00        NOP     
6c37 00        NOP     
6c38 00        NOP     
6c39 00        NOP     
6c3a 00        NOP     
6c3b 00        NOP     
6c3c 00        NOP     
6c3d 00        NOP     
6c3e 00        NOP     
6c3f 00        NOP     
6c40 00        NOP     
6c41 00        NOP     
6c42 00        NOP     
6c43 00        NOP     
6c44 00        NOP     
6c45 00        NOP     
6c46 00        NOP     
6c47 00        NOP     
6c48 00        NOP     
6c49 00        NOP     
6c4a 00        NOP     
6c4b 00        NOP     
6c4c 00        NOP     
6c4d 00        NOP     
6c4e 00        NOP     
6c4f 00        NOP     
6c50 00        NOP     
6c51 00        NOP     
6c52 00        NOP     
6c53 00        NOP     
6c54 00        NOP     
6c55 00        NOP     
6c56 00        NOP     
6c57 00        NOP     
6c58 00        NOP     
6c59 00        NOP     
6c5a 00        NOP     
6c5b 00        NOP     
6c5c 00        NOP     
6c5d 00        NOP     
6c5e 00        NOP     
6c5f 00        NOP     
6c60 00        NOP     
6c61 00        NOP     
6c62 00        NOP     
6c63 00        NOP     
6c64 00        NOP     
6c65 00        NOP     
6c66 00        NOP     
6c67 00        NOP     
6c68 00        NOP     
6c69 00        NOP     
6c6a 00        NOP     
6c6b 00        NOP     
6c6c 00        NOP     
6c6d 00        NOP     
6c6e 00        NOP     
6c6f 00        NOP     
6c70 00        NOP     
6c71 00        NOP     
6c72 00        NOP     
6c73 00        NOP     
6c74 00        NOP     
6c75 00        NOP     
6c76 00        NOP     
6c77 00        NOP     
6c78 00        NOP     
6c79 00        NOP     
6c7a 00        NOP     
6c7b 00        NOP     
6c7c 00        NOP     
6c7d 00        NOP     
6c7e 00        NOP     
6c7f 00        NOP     
6c80 00        NOP     
6c81 00        NOP     
6c82 00        NOP     
6c83 00        NOP     
6c84 00        NOP     
6c85 00        NOP     
6c86 00        NOP     
6c87 00        NOP     
6c88 00        NOP     
6c89 00        NOP     
6c8a 00        NOP     
6c8b 00        NOP     
6c8c 00        NOP     
6c8d 00        NOP     
6c8e 00        NOP     
6c8f 00        NOP     
6c90 00        NOP     
6c91 00        NOP     
6c92 00        NOP     
6c93 00        NOP     
6c94 00        NOP     
6c95 00        NOP     
6c96 00        NOP     
6c97 00        NOP     
6c98 00        NOP     
6c99 00        NOP     
6c9a 00        NOP     
6c9b 00        NOP     
6c9c 00        NOP     
6c9d 00        NOP     
6c9e 00        NOP     
6c9f 00        NOP     
6ca0 00        NOP     
6ca1 00        NOP     
6ca2 00        NOP     
6ca3 00        NOP     
6ca4 00        NOP     
6ca5 00        NOP     
6ca6 00        NOP     
6ca7 00        NOP     
6ca8 00        NOP     
6ca9 00        NOP     
6caa 00        NOP     
6cab 00        NOP     
6cac 00        NOP     
6cad 00        NOP     
6cae 00        NOP     
6caf 00        NOP     
6cb0 00        NOP     
6cb1 00        NOP     
6cb2 00        NOP     
6cb3 00        NOP     
6cb4 00        NOP     
6cb5 00        NOP     
6cb6 00        NOP     
6cb7 00        NOP     
6cb8 00        NOP     
6cb9 00        NOP     
6cba 00        NOP     
6cbb 00        NOP     
6cbc 00        NOP     
6cbd 00        NOP     
6cbe 00        NOP     
6cbf 00        NOP     
6cc0 00        NOP     
6cc1 00        NOP     
6cc2 00        NOP     
6cc3 00        NOP     
6cc4 00        NOP     
6cc5 00        NOP     
6cc6 00        NOP     
6cc7 00        NOP     
6cc8 00        NOP     
6cc9 00        NOP     
6cca 00        NOP     
6ccb 00        NOP     
6ccc 00        NOP     
6ccd 00        NOP     
6cce 00        NOP     
6ccf 00        NOP     
6cd0 00        NOP     
6cd1 00        NOP     
6cd2 00        NOP     
6cd3 00        NOP     
6cd4 00        NOP     
6cd5 00        NOP     
6cd6 00        NOP     
6cd7 00        NOP     
6cd8 00        NOP     
6cd9 00        NOP     
6cda 00        NOP     
6cdb 00        NOP     
6cdc 00        NOP     
6cdd 00        NOP     
6cde 00        NOP     
6cdf 00        NOP     
6ce0 00        NOP     
6ce1 00        NOP     
6ce2 00        NOP     
6ce3 00        NOP     
6ce4 00        NOP     
6ce5 00        NOP     
6ce6 00        NOP     
6ce7 00        NOP     
6ce8 00        NOP     
6ce9 00        NOP     
6cea 00        NOP     
6ceb 00        NOP     
6cec 00        NOP     
6ced 00        NOP     
6cee 00        NOP     
6cef 00        NOP     
6cf0 00        NOP     
6cf1 00        NOP     
6cf2 00        NOP     
6cf3 00        NOP     
6cf4 00        NOP     
6cf5 00        NOP     
6cf6 00        NOP     
6cf7 00        NOP     
6cf8 00        NOP     
6cf9 00        NOP     
6cfa 00        NOP     
6cfb 00        NOP     
6cfc 00        NOP     
6cfd 00        NOP     
6cfe 00        NOP     
6cff 00        NOP     
6d00 00        NOP     
6d01 00        NOP     
6d02 00        NOP     
6d03 00        NOP     
6d04 00        NOP     
6d05 00        NOP     
6d06 00        NOP     
6d07 00        NOP     
6d08 00        NOP     
6d09 00        NOP     
6d0a 00        NOP     
6d0b 00        NOP     
6d0c 00        NOP     
6d0d 00        NOP     
6d0e 00        NOP     
6d0f 00        NOP     
6d10 00        NOP     
6d11 00        NOP     
6d12 00        NOP     
6d13 00        NOP     
6d14 00        NOP     
6d15 00        NOP     
6d16 00        NOP     
6d17 00        NOP     
6d18 00        NOP     
6d19 00        NOP     
6d1a 00        NOP     
6d1b 00        NOP     
6d1c 00        NOP     
6d1d 00        NOP     
6d1e 00        NOP     
6d1f 00        NOP     
6d20 00        NOP     
6d21 00        NOP     
6d22 00        NOP     
6d23 00        NOP     
6d24 00        NOP     
6d25 00        NOP     
6d26 00        NOP     
6d27 00        NOP     
6d28 00        NOP     
6d29 00        NOP     
6d2a 00        NOP     
6d2b 00        NOP     
6d2c 00        NOP     
6d2d 00        NOP     
6d2e 00        NOP     
6d2f 00        NOP     
6d30 00        NOP     
6d31 00        NOP     
6d32 00        NOP     
6d33 00        NOP     
6d34 00        NOP     
6d35 00        NOP     
6d36 00        NOP     
6d37 00        NOP     
6d38 00        NOP     
6d39 00        NOP     
6d3a 00        NOP     
6d3b 00        NOP     
6d3c 00        NOP     
6d3d 00        NOP     
6d3e 00        NOP     
6d3f 00        NOP     
6d40 00        NOP     
6d41 00        NOP     
6d42 00        NOP     
6d43 00        NOP     
6d44 00        NOP     
6d45 00        NOP     
6d46 00        NOP     
6d47 00        NOP     
6d48 00        NOP     
6d49 00        NOP     
6d4a 00        NOP     
6d4b 00        NOP     
6d4c 00        NOP     
6d4d 00        NOP     
6d4e 00        NOP     
6d4f 00        NOP     
6d50 00        NOP     
6d51 00        NOP     
6d52 00        NOP     
6d53 00        NOP     
6d54 00        NOP     
6d55 00        NOP     
6d56 00        NOP     
6d57 00        NOP     
6d58 00        NOP     
6d59 00        NOP     
6d5a 00        NOP     
6d5b 00        NOP     
6d5c 00        NOP     
6d5d 00        NOP     
6d5e 00        NOP     
6d5f 00        NOP     
6d60 00        NOP     
6d61 00        NOP     
6d62 00        NOP     
6d63 00        NOP     
6d64 00        NOP     
6d65 00        NOP     
6d66 00        NOP     
6d67 00        NOP     
6d68 00        NOP     
6d69 00        NOP     
6d6a 00        NOP     
6d6b 00        NOP     
6d6c 00        NOP     
6d6d 00        NOP     
6d6e 00        NOP     
6d6f 00        NOP     
6d70 00        NOP     
6d71 00        NOP     
6d72 00        NOP     
6d73 00        NOP     
6d74 00        NOP     
6d75 00        NOP     
6d76 00        NOP     
6d77 00        NOP     
6d78 00        NOP     
6d79 00        NOP     
6d7a 00        NOP     
6d7b 00        NOP     
6d7c 00        NOP     
6d7d 00        NOP     
6d7e 00        NOP     
6d7f 00        NOP     
6d80 00        NOP     
6d81 00        NOP     
6d82 00        NOP     
6d83 00        NOP     
6d84 00        NOP     
6d85 00        NOP     
6d86 00        NOP     
6d87 00        NOP     
6d88 00        NOP     
6d89 00        NOP     
6d8a 00        NOP     
6d8b 00        NOP     
6d8c 00        NOP     
6d8d 00        NOP     
6d8e 00        NOP     
6d8f 00        NOP     
6d90 00        NOP     
6d91 00        NOP     
6d92 00        NOP     
6d93 00        NOP     
6d94 00        NOP     
6d95 00        NOP     
6d96 00        NOP     
6d97 00        NOP     
6d98 00        NOP     
6d99 00        NOP     
6d9a 00        NOP     
6d9b 00        NOP     
6d9c 00        NOP     
6d9d 00        NOP     
6d9e 00        NOP     
6d9f 00        NOP     
6da0 00        NOP     
6da1 00        NOP     
6da2 00        NOP     
6da3 00        NOP     
6da4 00        NOP     
6da5 00        NOP     
6da6 00        NOP     
6da7 00        NOP     
6da8 00        NOP     
6da9 00        NOP     
6daa 00        NOP     
6dab 00        NOP     
6dac 00        NOP     
6dad 00        NOP     
6dae 00        NOP     
6daf 00        NOP     
6db0 00        NOP     
6db1 00        NOP     
6db2 00        NOP     
6db3 00        NOP     
6db4 00        NOP     
6db5 00        NOP     
6db6 00        NOP     
6db7 00        NOP     
6db8 00        NOP     
6db9 00        NOP     
6dba 00        NOP     
6dbb 00        NOP     
6dbc 00        NOP     
6dbd 00        NOP     
6dbe 00        NOP     
6dbf 00        NOP     
6dc0 00        NOP     
6dc1 00        NOP     
6dc2 00        NOP     
6dc3 00        NOP     
6dc4 00        NOP     
6dc5 00        NOP     
6dc6 00        NOP     
6dc7 00        NOP     
6dc8 00        NOP     
6dc9 00        NOP     
6dca 00        NOP     
6dcb 00        NOP     
6dcc 00        NOP     
6dcd 00        NOP     
6dce 00        NOP     
6dcf 00        NOP     
6dd0 00        NOP     
6dd1 00        NOP     
6dd2 00        NOP     
6dd3 00        NOP     
6dd4 00        NOP     
6dd5 00        NOP     
6dd6 00        NOP     
6dd7 00        NOP     
6dd8 00        NOP     
6dd9 00        NOP     
6dda 00        NOP     
6ddb 00        NOP     
6ddc 00        NOP     
6ddd 00        NOP     
6dde 00        NOP     
6ddf 00        NOP     
6de0 00        NOP     
6de1 00        NOP     
6de2 00        NOP     
6de3 00        NOP     
6de4 00        NOP     
6de5 00        NOP     
6de6 00        NOP     
6de7 00        NOP     
6de8 00        NOP     
6de9 00        NOP     
6dea 00        NOP     
6deb 00        NOP     
6dec 00        NOP     
6ded 00        NOP     
6dee 00        NOP     
6def 00        NOP     
6df0 00        NOP     
6df1 00        NOP     
6df2 00        NOP     
6df3 00        NOP     
6df4 00        NOP     
6df5 00        NOP     
6df6 00        NOP     
6df7 00        NOP     
6df8 00        NOP     
6df9 00        NOP     
6dfa 00        NOP     
6dfb 00        NOP     
6dfc 00        NOP     
6dfd 00        NOP     
6dfe 00        NOP     
6dff 00        NOP     
6e00 00        NOP     
6e01 00        NOP     
6e02 00        NOP     
6e03 00        NOP     
6e04 00        NOP     
6e05 00        NOP     
6e06 00        NOP     
6e07 00        NOP     
6e08 00        NOP     
6e09 00        NOP     
6e0a 00        NOP     
6e0b 00        NOP     
6e0c 00        NOP     
6e0d 00        NOP     
6e0e 00        NOP     
6e0f 00        NOP     
6e10 00        NOP     
6e11 00        NOP     
6e12 00        NOP     
6e13 00        NOP     
6e14 00        NOP     
6e15 00        NOP     
6e16 00        NOP     
6e17 00        NOP     
6e18 00        NOP     
6e19 00        NOP     
6e1a 00        NOP     
6e1b 00        NOP     
6e1c 00        NOP     
6e1d 00        NOP     
6e1e 00        NOP     
6e1f 00        NOP     
6e20 00        NOP     
6e21 00        NOP     
6e22 00        NOP     
6e23 00        NOP     
6e24 00        NOP     
6e25 00        NOP     
6e26 00        NOP     
6e27 00        NOP     
6e28 00        NOP     
6e29 00        NOP     
6e2a 00        NOP     
6e2b 00        NOP     
6e2c 00        NOP     
6e2d 00        NOP     
6e2e 00        NOP     
6e2f 00        NOP     
6e30 00        NOP     
6e31 00        NOP     
6e32 00        NOP     
6e33 00        NOP     
6e34 00        NOP     
6e35 00        NOP     
6e36 00        NOP     
6e37 00        NOP     
6e38 00        NOP     
6e39 00        NOP     
6e3a 00        NOP     
6e3b 00        NOP     
6e3c 00        NOP     
6e3d 00        NOP     
6e3e 00        NOP     
6e3f 00        NOP     
6e40 00        NOP     
6e41 00        NOP     
6e42 00        NOP     
6e43 00        NOP     
6e44 00        NOP     
6e45 00        NOP     
6e46 00        NOP     
6e47 00        NOP     
6e48 00        NOP     
6e49 00        NOP     
6e4a 00        NOP     
6e4b 00        NOP     
6e4c 00        NOP     
6e4d 00        NOP     
6e4e 00        NOP     
6e4f 00        NOP     
6e50 00        NOP     
6e51 00        NOP     
6e52 00        NOP     
6e53 00        NOP     
6e54 00        NOP     
6e55 00        NOP     
6e56 00        NOP     
6e57 00        NOP     
6e58 00        NOP     
6e59 00        NOP     
6e5a 00        NOP     
6e5b 00        NOP     
6e5c 00        NOP     
6e5d 00        NOP     
6e5e 00        NOP     
6e5f 00        NOP     
6e60 00        NOP     
6e61 00        NOP     
6e62 00        NOP     
6e63 00        NOP     
6e64 00        NOP     
6e65 00        NOP     
6e66 00        NOP     
6e67 00        NOP     
6e68 00        NOP     
6e69 00        NOP     
6e6a 00        NOP     
6e6b 00        NOP     
6e6c 00        NOP     
6e6d 00        NOP     
6e6e 00        NOP     
6e6f 00        NOP     
6e70 00        NOP     
6e71 00        NOP     
6e72 00        NOP     
6e73 00        NOP     
6e74 00        NOP     
6e75 00        NOP     
6e76 00        NOP     
6e77 00        NOP     
6e78 00        NOP     
6e79 00        NOP     
6e7a 00        NOP     
6e7b 00        NOP     
6e7c 00        NOP     
6e7d 00        NOP     
6e7e 00        NOP     
6e7f 00        NOP     
6e80 00        NOP     
6e81 00        NOP     
6e82 00        NOP     
6e83 00        NOP     
6e84 00        NOP     
6e85 00        NOP     
6e86 00        NOP     
6e87 00        NOP     
6e88 00        NOP     
6e89 00        NOP     
6e8a 00        NOP     
6e8b 00        NOP     
6e8c 00        NOP     
6e8d 00        NOP     
6e8e 00        NOP     
6e8f 00        NOP     
6e90 00        NOP     
6e91 00        NOP     
6e92 00        NOP     
6e93 00        NOP     
6e94 00        NOP     
6e95 00        NOP     
6e96 00        NOP     
6e97 00        NOP     
6e98 00        NOP     
6e99 00        NOP     
6e9a 00        NOP     
6e9b 00        NOP     
6e9c 00        NOP     
6e9d 00        NOP     
6e9e 00        NOP     
6e9f 00        NOP     
6ea0 00        NOP     
6ea1 00        NOP     
6ea2 00        NOP     
6ea3 00        NOP     
6ea4 00        NOP     
6ea5 00        NOP     
6ea6 00        NOP     
6ea7 00        NOP     
6ea8 00        NOP     
6ea9 00        NOP     
6eaa 00        NOP     
6eab 00        NOP     
6eac 00        NOP     
6ead 00        NOP     
6eae 00        NOP     
6eaf 00        NOP     
6eb0 00        NOP     
6eb1 00        NOP     
6eb2 00        NOP     
6eb3 00        NOP     
6eb4 00        NOP     
6eb5 00        NOP     
6eb6 00        NOP     
6eb7 00        NOP     
6eb8 00        NOP     
6eb9 00        NOP     
6eba 00        NOP     
6ebb 00        NOP     
6ebc 00        NOP     
6ebd 00        NOP     
6ebe 00        NOP     
6ebf 00        NOP     
6ec0 00        NOP     
6ec1 00        NOP     
6ec2 00        NOP     
6ec3 00        NOP     
6ec4 00        NOP     
6ec5 00        NOP     
6ec6 00        NOP     
6ec7 00        NOP     
6ec8 00        NOP     
6ec9 00        NOP     
6eca 00        NOP     
6ecb 00        NOP     
6ecc 00        NOP     
6ecd 00        NOP     
6ece 00        NOP     
6ecf 00        NOP     
6ed0 00        NOP     
6ed1 00        NOP     
6ed2 00        NOP     
6ed3 00        NOP     
6ed4 00        NOP     
6ed5 00        NOP     
6ed6 00        NOP     
6ed7 00        NOP     
6ed8 00        NOP     
6ed9 00        NOP     
6eda 00        NOP     
6edb 00        NOP     
6edc 00        NOP     
6edd 00        NOP     
6ede 00        NOP     
6edf 00        NOP     
6ee0 00        NOP     
6ee1 00        NOP     
6ee2 00        NOP     
6ee3 00        NOP     
6ee4 00        NOP     
6ee5 00        NOP     
6ee6 00        NOP     
6ee7 00        NOP     
6ee8 00        NOP     
6ee9 00        NOP     
6eea 00        NOP     
6eeb 00        NOP     
6eec 00        NOP     
6eed 00        NOP     
6eee 00        NOP     
6eef 00        NOP     
6ef0 00        NOP     
6ef1 00        NOP     
6ef2 00        NOP     
6ef3 00        NOP     
6ef4 00        NOP     
6ef5 00        NOP     
6ef6 00        NOP     
6ef7 00        NOP     
6ef8 00        NOP     
6ef9 00        NOP     
6efa 00        NOP     
6efb 00        NOP     
6efc 00        NOP     
6efd 00        NOP     
6efe 00        NOP     
6eff 00        NOP     
6f00 00        NOP     
6f01 00        NOP     
6f02 00        NOP     
6f03 00        NOP     
6f04 00        NOP     
6f05 00        NOP     
6f06 00        NOP     
6f07 00        NOP     
6f08 00        NOP     
6f09 00        NOP     
6f0a 00        NOP     
6f0b 00        NOP     
6f0c 00        NOP     
6f0d 00        NOP     
6f0e 00        NOP     
6f0f 00        NOP     
6f10 00        NOP     
6f11 00        NOP     
6f12 00        NOP     
6f13 00        NOP     
6f14 00        NOP     
6f15 00        NOP     
6f16 00        NOP     
6f17 00        NOP     
6f18 00        NOP     
6f19 00        NOP     
6f1a 00        NOP     
6f1b 00        NOP     
6f1c 00        NOP     
6f1d 00        NOP     
6f1e 00        NOP     
6f1f 00        NOP     
6f20 00        NOP     
6f21 00        NOP     
6f22 00        NOP     
6f23 00        NOP     
6f24 00        NOP     
6f25 00        NOP     
6f26 00        NOP     
6f27 00        NOP     
6f28 00        NOP     
6f29 00        NOP     
6f2a 00        NOP     
6f2b 00        NOP     
6f2c 00        NOP     
6f2d 00        NOP     
6f2e 00        NOP     
6f2f 00        NOP     
6f30 00        NOP     
6f31 00        NOP     
6f32 00        NOP     
6f33 00        NOP     
6f34 00        NOP     
6f35 00        NOP     
6f36 00        NOP     
6f37 00        NOP     
6f38 00        NOP     
6f39 00        NOP     
6f3a 00        NOP     
6f3b 00        NOP     
6f3c 00        NOP     
6f3d 00        NOP     
6f3e 00        NOP     
6f3f 00        NOP     
6f40 00        NOP     
6f41 00        NOP     
6f42 00        NOP     
6f43 00        NOP     
6f44 00        NOP     
6f45 00        NOP     
6f46 00        NOP     
6f47 00        NOP     
6f48 00        NOP     
6f49 00        NOP     
6f4a 00        NOP     
6f4b 00        NOP     
6f4c 00        NOP     
6f4d 00        NOP     
6f4e 00        NOP     
6f4f 00        NOP     
6f50 00        NOP     
6f51 00        NOP     
6f52 00        NOP     
6f53 00        NOP     
6f54 00        NOP     
6f55 00        NOP     
6f56 00        NOP     
6f57 00        NOP     
6f58 00        NOP     
6f59 00        NOP     
6f5a 00        NOP     
6f5b 00        NOP     
6f5c 00        NOP     
6f5d 00        NOP     
6f5e 00        NOP     
6f5f 00        NOP     
6f60 00        NOP     
6f61 00        NOP     
6f62 00        NOP     
6f63 00        NOP     
6f64 00        NOP     
6f65 00        NOP     
6f66 00        NOP     
6f67 00        NOP     
6f68 00        NOP     
6f69 00        NOP     
6f6a 00        NOP     
6f6b 00        NOP     
6f6c 00        NOP     
6f6d 00        NOP     
6f6e 00        NOP     
6f6f 00        NOP     
6f70 00        NOP     
6f71 00        NOP     
6f72 00        NOP     
6f73 00        NOP     
6f74 00        NOP     
6f75 00        NOP     
6f76 00        NOP     
6f77 00        NOP     
6f78 00        NOP     
6f79 00        NOP     
6f7a 00        NOP     
6f7b 00        NOP     
6f7c 00        NOP     
6f7d 00        NOP     
6f7e 00        NOP     
6f7f 00        NOP     
6f80 00        NOP     
6f81 00        NOP     
6f82 00        NOP     
6f83 00        NOP     
6f84 00        NOP     
6f85 00        NOP     
6f86 00        NOP     
6f87 00        NOP     
6f88 00        NOP     
6f89 00        NOP     
6f8a 00        NOP     
6f8b 00        NOP     
6f8c 00        NOP     
6f8d 00        NOP     
6f8e 00        NOP     
6f8f 00        NOP     
6f90 00        NOP     
6f91 00        NOP     
6f92 00        NOP     
6f93 00        NOP     
6f94 00        NOP     
6f95 00        NOP     
6f96 00        NOP     
6f97 00        NOP     
6f98 00        NOP     
6f99 00        NOP     
6f9a 00        NOP     
6f9b 00        NOP     
6f9c 00        NOP     
6f9d 00        NOP     
6f9e 00        NOP     
6f9f 00        NOP     
6fa0 00        NOP     
6fa1 00        NOP     
6fa2 00        NOP     
6fa3 00        NOP     
6fa4 00        NOP     
6fa5 00        NOP     
6fa6 00        NOP     
6fa7 00        NOP     
6fa8 00        NOP     
6fa9 00        NOP     
6faa 00        NOP     
6fab 00        NOP     
6fac 00        NOP     
6fad 00        NOP     
6fae 00        NOP     
6faf 00        NOP     
6fb0 00        NOP     
6fb1 00        NOP     
6fb2 00        NOP     
6fb3 00        NOP     
6fb4 00        NOP     
6fb5 00        NOP     
6fb6 00        NOP     
6fb7 00        NOP     
6fb8 00        NOP     
6fb9 00        NOP     
6fba 00        NOP     
6fbb 00        NOP     
6fbc 00        NOP     
6fbd 00        NOP     
6fbe 00        NOP     
6fbf 00        NOP     
6fc0 00        NOP     
6fc1 00        NOP     
6fc2 00        NOP     
6fc3 00        NOP     
6fc4 00        NOP     
6fc5 00        NOP     
6fc6 00        NOP     
6fc7 00        NOP     
6fc8 00        NOP     
6fc9 00        NOP     
6fca 00        NOP     
6fcb 00        NOP     
6fcc 00        NOP     
6fcd 00        NOP     
6fce 00        NOP     
6fcf 00        NOP     
6fd0 00        NOP     
6fd1 00        NOP     
6fd2 00        NOP     
6fd3 00        NOP     
6fd4 00        NOP     
6fd5 00        NOP     
6fd6 00        NOP     
6fd7 00        NOP     
6fd8 00        NOP     
6fd9 00        NOP     
6fda 00        NOP     
6fdb 00        NOP     
6fdc 00        NOP     
6fdd 00        NOP     
6fde 00        NOP     
6fdf 00        NOP     
6fe0 00        NOP     
6fe1 00        NOP     
6fe2 00        NOP     
6fe3 00        NOP     
6fe4 00        NOP     
6fe5 00        NOP     
6fe6 00        NOP     
6fe7 00        NOP     
6fe8 00        NOP     
6fe9 00        NOP     
6fea 00        NOP     
6feb 00        NOP     
6fec 00        NOP     
6fed 00        NOP     
6fee 00        NOP     
6fef 00        NOP     
6ff0 00        NOP     
6ff1 00        NOP     
6ff2 00        NOP     
6ff3 00        NOP     
6ff4 00        NOP     
6ff5 00        NOP     
6ff6 00        NOP     
6ff7 00        NOP     
6ff8 00        NOP     
6ff9 00        NOP     
6ffa 00        NOP     
6ffb 00        NOP     
6ffc 00        NOP     
6ffd 00        NOP     
6ffe 00        NOP     
6fff 00        NOP     
7000 00        NOP     
7001 00        NOP     
7002 00        NOP     
7003 00        NOP     
7004 00        NOP     
7005 00        NOP     
7006 00        NOP     
7007 00        NOP     
7008 00        NOP     
7009 00        NOP     
700a 00        NOP     
700b 00        NOP     
700c 00        NOP     
700d 00        NOP     
700e 00        NOP     
700f 00        NOP     
7010 00        NOP     
7011 00        NOP     
7012 00        NOP     
7013 00        NOP     
7014 00        NOP     
7015 00        NOP     
7016 00        NOP     
7017 00        NOP     
7018 00        NOP     
7019 00        NOP     
701a 00        NOP     
701b 00        NOP     
701c 00        NOP     
701d 00        NOP     
701e 00        NOP     
701f 00        NOP     
7020 00        NOP     
7021 00        NOP     
7022 00        NOP     
7023 00        NOP     
7024 00        NOP     
7025 00        NOP     
7026 00        NOP     
7027 00        NOP     
7028 00        NOP     
7029 00        NOP     
702a 00        NOP     
702b 00        NOP     
702c 00        NOP     
702d 00        NOP     
702e 00        NOP     
702f 00        NOP     
7030 00        NOP     
7031 00        NOP     
7032 00        NOP     
7033 00        NOP     
7034 00        NOP     
7035 00        NOP     
7036 00        NOP     
7037 00        NOP     
7038 00        NOP     
7039 00        NOP     
703a 00        NOP     
703b 00        NOP     
703c 00        NOP     
703d 00        NOP     
703e 00        NOP     
703f 00        NOP     
7040 00        NOP     
7041 00        NOP     
7042 00        NOP     
7043 00        NOP     
7044 00        NOP     
7045 00        NOP     
7046 00        NOP     
7047 00        NOP     
7048 00        NOP     
7049 00        NOP     
704a 00        NOP     
704b 00        NOP     
704c 00        NOP     
704d 00        NOP     
704e 00        NOP     
704f 00        NOP     
7050 00        NOP     
7051 00        NOP     
7052 00        NOP     
7053 00        NOP     
7054 00        NOP     
7055 00        NOP     
7056 00        NOP     
7057 00        NOP     
7058 00        NOP     
7059 00        NOP     
705a 00        NOP     
705b 00        NOP     
705c 00        NOP     
705d 00        NOP     
705e 00        NOP     
705f 00        NOP     
7060 00        NOP     
7061 00        NOP     
7062 00        NOP     
7063 00        NOP     
7064 00        NOP     
7065 00        NOP     
7066 00        NOP     
7067 00        NOP     
7068 00        NOP     
7069 00        NOP     
706a 00        NOP     
706b 00        NOP     
706c 00        NOP     
706d 00        NOP     
706e 00        NOP     
706f 00        NOP     
7070 00        NOP     
7071 00        NOP     
7072 00        NOP     
7073 00        NOP     
7074 00        NOP     
7075 00        NOP     
7076 00        NOP     
7077 00        NOP     
7078 00        NOP     
7079 00        NOP     
707a 00        NOP     
707b 00        NOP     
707c 00        NOP     
707d 00        NOP     
707e 00        NOP     
707f 00        NOP     
7080 00        NOP     
7081 00        NOP     
7082 00        NOP     
7083 00        NOP     
7084 00        NOP     
7085 00        NOP     
7086 00        NOP     
7087 00        NOP     
7088 00        NOP     
7089 00        NOP     
708a 00        NOP     
708b 00        NOP     
708c 00        NOP     
708d 00        NOP     
708e 00        NOP     
708f 00        NOP     
7090 00        NOP     
7091 00        NOP     
7092 00        NOP     
7093 00        NOP     
7094 00        NOP     
7095 00        NOP     
7096 00        NOP     
7097 00        NOP     
7098 00        NOP     
7099 00        NOP     
709a 00        NOP     
709b 00        NOP     
709c 00        NOP     
709d 00        NOP     
709e 00        NOP     
709f 00        NOP     
70a0 00        NOP     
70a1 00        NOP     
70a2 00        NOP     
70a3 00        NOP     
70a4 00        NOP     
70a5 00        NOP     
70a6 00        NOP     
70a7 00        NOP     
70a8 00        NOP     
70a9 00        NOP     
70aa 00        NOP     
70ab 00        NOP     
70ac 00        NOP     
70ad 00        NOP     
70ae 00        NOP     
70af 00        NOP     
70b0 00        NOP     
70b1 00        NOP     
70b2 00        NOP     
70b3 00        NOP     
70b4 00        NOP     
70b5 00        NOP     
70b6 00        NOP     
70b7 00        NOP     
70b8 00        NOP     
70b9 00        NOP     
70ba 00        NOP     
70bb 00        NOP     
70bc 00        NOP     
70bd 00        NOP     
70be 00        NOP     
70bf 00        NOP     
70c0 00        NOP     
70c1 00        NOP     
70c2 00        NOP     
70c3 00        NOP     
70c4 00        NOP     
70c5 00        NOP     
70c6 00        NOP     
70c7 00        NOP     
70c8 00        NOP     
70c9 00        NOP     
70ca 00        NOP     
70cb 00        NOP     
70cc 00        NOP     
70cd 00        NOP     
70ce 00        NOP     
70cf 00        NOP     
70d0 00        NOP     
70d1 00        NOP     
70d2 00        NOP     
70d3 00        NOP     
70d4 00        NOP     
70d5 00        NOP     
70d6 00        NOP     
70d7 00        NOP     
70d8 00        NOP     
70d9 00        NOP     
70da 00        NOP     
70db 00        NOP     
70dc 00        NOP     
70dd 00        NOP     
70de 00        NOP     
70df 00        NOP     
70e0 00        NOP     
70e1 00        NOP     
70e2 00        NOP     
70e3 00        NOP     
70e4 00        NOP     
70e5 00        NOP     
70e6 00        NOP     
70e7 00        NOP     
70e8 00        NOP     
70e9 00        NOP     
70ea 00        NOP     
70eb 00        NOP     
70ec 00        NOP     
70ed 00        NOP     
70ee 00        NOP     
70ef 00        NOP     
70f0 00        NOP     
70f1 00        NOP     
70f2 00        NOP     
70f3 00        NOP     
70f4 00        NOP     
70f5 00        NOP     
70f6 00        NOP     
70f7 00        NOP     
70f8 00        NOP     
70f9 00        NOP     
70fa 00        NOP     
70fb 00        NOP     
70fc 00        NOP     
70fd 00        NOP     
70fe 00        NOP     
70ff 00        NOP     
7100 00        NOP     
7101 00        NOP     
7102 00        NOP     
7103 00        NOP     
7104 00        NOP     
7105 00        NOP     
7106 00        NOP     
7107 00        NOP     
7108 00        NOP     
7109 00        NOP     
710a 00        NOP     
710b 00        NOP     
710c 00        NOP     
710d 00        NOP     
710e 00        NOP     
710f 00        NOP     
7110 00        NOP     
7111 00        NOP     
7112 00        NOP     
7113 00        NOP     
7114 00        NOP     
7115 00        NOP     
7116 00        NOP     
7117 00        NOP     
7118 00        NOP     
7119 00        NOP     
711a 00        NOP     
711b 00        NOP     
711c 00        NOP     
711d 00        NOP     
711e 00        NOP     
711f 00        NOP     
7120 00        NOP     
7121 00        NOP     
7122 00        NOP     
7123 00        NOP     
7124 00        NOP     
7125 00        NOP     
7126 00        NOP     
7127 00        NOP     
7128 00        NOP     
7129 00        NOP     
712a 00        NOP     
712b 00        NOP     
712c 00        NOP     
712d 00        NOP     
712e 00        NOP     
712f 00        NOP     
7130 00        NOP     
7131 00        NOP     
7132 00        NOP     
7133 00        NOP     
7134 00        NOP     
7135 00        NOP     
7136 00        NOP     
7137 00        NOP     
7138 00        NOP     
7139 00        NOP     
713a 00        NOP     
713b 00        NOP     
713c 00        NOP     
713d 00        NOP     
713e 00        NOP     
713f 00        NOP     
7140 00        NOP     
7141 00        NOP     
7142 00        NOP     
7143 00        NOP     
7144 00        NOP     
7145 00        NOP     
7146 00        NOP     
7147 00        NOP     
7148 00        NOP     
7149 00        NOP     
714a 00        NOP     
714b 00        NOP     
714c 00        NOP     
714d 00        NOP     
714e 00        NOP     
714f 00        NOP     
7150 00        NOP     
7151 00        NOP     
7152 00        NOP     
7153 00        NOP     
7154 00        NOP     
7155 00        NOP     
7156 00        NOP     
7157 00        NOP     
7158 00        NOP     
7159 00        NOP     
715a 00        NOP     
715b 00        NOP     
715c 00        NOP     
715d 00        NOP     
715e 00        NOP     
715f 00        NOP     
7160 00        NOP     
7161 00        NOP     
7162 00        NOP     
7163 00        NOP     
7164 00        NOP     
7165 00        NOP     
7166 00        NOP     
7167 00        NOP     
7168 00        NOP     
7169 00        NOP     
716a 00        NOP     
716b 00        NOP     
716c 00        NOP     
716d 00        NOP     
716e 00        NOP     
716f 00        NOP     
7170 00        NOP     
7171 00        NOP     
7172 00        NOP     
7173 00        NOP     
7174 00        NOP     
7175 00        NOP     
7176 00        NOP     
7177 00        NOP     
7178 00        NOP     
7179 00        NOP     
717a 00        NOP     
717b 00        NOP     
717c 00        NOP     
717d 00        NOP     
717e 00        NOP     
717f 00        NOP     
7180 00        NOP     
7181 00        NOP     
7182 00        NOP     
7183 00        NOP     
7184 00        NOP     
7185 00        NOP     
7186 00        NOP     
7187 00        NOP     
7188 00        NOP     
7189 00        NOP     
718a 00        NOP     
718b 00        NOP     
718c 00        NOP     
718d 00        NOP     
718e 00        NOP     
718f 00        NOP     
7190 00        NOP     
7191 00        NOP     
7192 00        NOP     
7193 00        NOP     
7194 00        NOP     
7195 00        NOP     
7196 00        NOP     
7197 00        NOP     
7198 00        NOP     
7199 00        NOP     
719a 00        NOP     
719b 00        NOP     
719c 00        NOP     
719d 00        NOP     
719e 00        NOP     
719f 00        NOP     
71a0 00        NOP     
71a1 00        NOP     
71a2 00        NOP     
71a3 00        NOP     
71a4 00        NOP     
71a5 00        NOP     
71a6 00        NOP     
71a7 00        NOP     
71a8 00        NOP     
71a9 00        NOP     
71aa 00        NOP     
71ab 00        NOP     
71ac 00        NOP     
71ad 00        NOP     
71ae 00        NOP     
71af 00        NOP     
71b0 00        NOP     
71b1 00        NOP     
71b2 00        NOP     
71b3 00        NOP     
71b4 00        NOP     
71b5 00        NOP     
71b6 00        NOP     
71b7 00        NOP     
71b8 00        NOP     
71b9 00        NOP     
71ba 00        NOP     
71bb 00        NOP     
71bc 00        NOP     
71bd 00        NOP     
71be 00        NOP     
71bf 00        NOP     
71c0 00        NOP     
71c1 00        NOP     
71c2 00        NOP     
71c3 00        NOP     
71c4 00        NOP     
71c5 00        NOP     
71c6 00        NOP     
71c7 00        NOP     
71c8 00        NOP     
71c9 00        NOP     
71ca 00        NOP     
71cb 00        NOP     
71cc 00        NOP     
71cd 00        NOP     
71ce 00        NOP     
71cf 00        NOP     
71d0 00        NOP     
71d1 00        NOP     
71d2 00        NOP     
71d3 00        NOP     
71d4 00        NOP     
71d5 00        NOP     
71d6 00        NOP     
71d7 00        NOP     
71d8 00        NOP     
71d9 00        NOP     
71da 00        NOP     
71db 00        NOP     
71dc 00        NOP     
71dd 00        NOP     
71de 00        NOP     
71df 00        NOP     
71e0 00        NOP     
71e1 00        NOP     
71e2 00        NOP     
71e3 00        NOP     
71e4 00        NOP     
71e5 00        NOP     
71e6 00        NOP     
71e7 00        NOP     
71e8 00        NOP     
71e9 00        NOP     
71ea 00        NOP     
71eb 00        NOP     
71ec 00        NOP     
71ed 00        NOP     
71ee 00        NOP     
71ef 00        NOP     
71f0 00        NOP     
71f1 00        NOP     
71f2 00        NOP     
71f3 00        NOP     
71f4 00        NOP     
71f5 00        NOP     
71f6 00        NOP     
71f7 00        NOP     
71f8 00        NOP     
71f9 00        NOP     
71fa 00        NOP     
71fb 00        NOP     
71fc 00        NOP     
71fd 00        NOP     
71fe 00        NOP     
71ff 00        NOP     
7200 00        NOP     
7201 00        NOP     
7202 00        NOP     
7203 00        NOP     
7204 00        NOP     
7205 00        NOP     
7206 00        NOP     
7207 00        NOP     
7208 00        NOP     
7209 00        NOP     
720a 00        NOP     
720b 00        NOP     
720c 00        NOP     
720d 00        NOP     
720e 00        NOP     
720f 00        NOP     
7210 00        NOP     
7211 00        NOP     
7212 00        NOP     
7213 00        NOP     
7214 00        NOP     
7215 00        NOP     
7216 00        NOP     
7217 00        NOP     
7218 00        NOP     
7219 00        NOP     
721a 00        NOP     
721b 00        NOP     
721c 00        NOP     
721d 00        NOP     
721e 00        NOP     
721f 00        NOP     
7220 00        NOP     
7221 00        NOP     
7222 00        NOP     
7223 00        NOP     
7224 00        NOP     
7225 00        NOP     
7226 00        NOP     
7227 00        NOP     
7228 00        NOP     
7229 00        NOP     
722a 00        NOP     
722b 00        NOP     
722c 00        NOP     
722d 00        NOP     
722e 00        NOP     
722f 00        NOP     
7230 00        NOP     
7231 00        NOP     
7232 00        NOP     
7233 00        NOP     
7234 00        NOP     
7235 00        NOP     
7236 00        NOP     
7237 00        NOP     
7238 00        NOP     
7239 00        NOP     
723a 00        NOP     
723b 00        NOP     
723c 00        NOP     
723d 00        NOP     
723e 00        NOP     
723f 00        NOP     
7240 00        NOP     
7241 00        NOP     
7242 00        NOP     
7243 00        NOP     
7244 00        NOP     
7245 00        NOP     
7246 00        NOP     
7247 00        NOP     
7248 00        NOP     
7249 00        NOP     
724a 00        NOP     
724b 00        NOP     
724c 00        NOP     
724d 00        NOP     
724e 00        NOP     
724f 00        NOP     
7250 00        NOP     
7251 00        NOP     
7252 00        NOP     
7253 00        NOP     
7254 00        NOP     
7255 00        NOP     
7256 00        NOP     
7257 00        NOP     
7258 00        NOP     
7259 00        NOP     
725a 00        NOP     
725b 00        NOP     
725c 00        NOP     
725d 00        NOP     
725e 00        NOP     
725f 00        NOP     
7260 00        NOP     
7261 00        NOP     
7262 00        NOP     
7263 00        NOP     
7264 00        NOP     
7265 00        NOP     
7266 00        NOP     
7267 00        NOP     
7268 00        NOP     
7269 00        NOP     
726a 00        NOP     
726b 00        NOP     
726c 00        NOP     
726d 00        NOP     
726e 00        NOP     
726f 00        NOP     
7270 00        NOP     
7271 00        NOP     
7272 00        NOP     
7273 00        NOP     
7274 00        NOP     
7275 00        NOP     
7276 00        NOP     
7277 00        NOP     
7278 00        NOP     
7279 00        NOP     
727a 00        NOP     
727b 00        NOP     
727c 00        NOP     
727d 00        NOP     
727e 00        NOP     
727f 00        NOP     
7280 00        NOP     
7281 00        NOP     
7282 00        NOP     
7283 00        NOP     
7284 00        NOP     
7285 00        NOP     
7286 00        NOP     
7287 00        NOP     
7288 00        NOP     
7289 00        NOP     
728a 00        NOP     
728b 00        NOP     
728c 00        NOP     
728d 00        NOP     
728e 00        NOP     
728f 00        NOP     
7290 00        NOP     
7291 00        NOP     
7292 00        NOP     
7293 00        NOP     
7294 00        NOP     
7295 00        NOP     
7296 00        NOP     
7297 00        NOP     
7298 00        NOP     
7299 00        NOP     
729a 00        NOP     
729b 00        NOP     
729c 00        NOP     
729d 00        NOP     
729e 00        NOP     
729f 00        NOP     
72a0 00        NOP     
72a1 00        NOP     
72a2 00        NOP     
72a3 00        NOP     
72a4 00        NOP     
72a5 00        NOP     
72a6 00        NOP     
72a7 00        NOP     
72a8 00        NOP     
72a9 00        NOP     
72aa 00        NOP     
72ab 00        NOP     
72ac 00        NOP     
72ad 00        NOP     
72ae 00        NOP     
72af 00        NOP     
72b0 00        NOP     
72b1 00        NOP     
72b2 00        NOP     
72b3 00        NOP     
72b4 00        NOP     
72b5 00        NOP     
72b6 00        NOP     
72b7 00        NOP     
72b8 00        NOP     
72b9 00        NOP     
72ba 00        NOP     
72bb 00        NOP     
72bc 00        NOP     
72bd 00        NOP     
72be 00        NOP     
72bf 00        NOP     
72c0 00        NOP     
72c1 00        NOP     
72c2 00        NOP     
72c3 00        NOP     
72c4 00        NOP     
72c5 00        NOP     
72c6 00        NOP     
72c7 00        NOP     
72c8 00        NOP     
72c9 00        NOP     
72ca 00        NOP     
72cb 00        NOP     
72cc 00        NOP     
72cd 00        NOP     
72ce 00        NOP     
72cf 00        NOP     
72d0 00        NOP     
72d1 00        NOP     
72d2 00        NOP     
72d3 00        NOP     
72d4 00        NOP     
72d5 00        NOP     
72d6 00        NOP     
72d7 00        NOP     
72d8 00        NOP     
72d9 00        NOP     
72da 00        NOP     
72db 00        NOP     
72dc 00        NOP     
72dd 00        NOP     
72de 00        NOP     
72df 00        NOP     
72e0 00        NOP     
72e1 00        NOP     
72e2 00        NOP     
72e3 00        NOP     
72e4 00        NOP     
72e5 00        NOP     
72e6 00        NOP     
72e7 00        NOP     
72e8 00        NOP     
72e9 00        NOP     
72ea 00        NOP     
72eb 00        NOP     
72ec 00        NOP     
72ed 00        NOP     
72ee 00        NOP     
72ef 00        NOP     
72f0 00        NOP     
72f1 00        NOP     
72f2 00        NOP     
72f3 00        NOP     
72f4 00        NOP     
72f5 00        NOP     
72f6 00        NOP     
72f7 00        NOP     
72f8 00        NOP     
72f9 00        NOP     
72fa 00        NOP     
72fb 00        NOP     
72fc 00        NOP     
72fd 00        NOP     
72fe 00        NOP     
72ff 00        NOP     
7300 00        NOP     
7301 00        NOP     
7302 00        NOP     
7303 00        NOP     
7304 00        NOP     
7305 00        NOP     
7306 00        NOP     
7307 00        NOP     
7308 00        NOP     
7309 00        NOP     
730a 00        NOP     
730b 00        NOP     
730c 00        NOP     
730d 00        NOP     
730e 00        NOP     
730f 00        NOP     
7310 00        NOP     
7311 00        NOP     
7312 00        NOP     
7313 00        NOP     
7314 00        NOP     
7315 00        NOP     
7316 00        NOP     
7317 00        NOP     
7318 00        NOP     
7319 00        NOP     
731a 00        NOP     
731b 00        NOP     
731c 00        NOP     
731d 00        NOP     
731e 00        NOP     
731f 00        NOP     
7320 00        NOP     
7321 00        NOP     
7322 00        NOP     
7323 00        NOP     
7324 00        NOP     
7325 00        NOP     
7326 00        NOP     
7327 00        NOP     
7328 00        NOP     
7329 00        NOP     
732a 00        NOP     
732b 00        NOP     
732c 00        NOP     
732d 00        NOP     
732e 00        NOP     
732f 00        NOP     
7330 00        NOP     
7331 00        NOP     
7332 00        NOP     
7333 00        NOP     
7334 00        NOP     
7335 00        NOP     
7336 00        NOP     
7337 00        NOP     
7338 00        NOP     
7339 00        NOP     
733a 00        NOP     
733b 00        NOP     
733c 00        NOP     
733d 00        NOP     
733e 00        NOP     
733f 00        NOP     
7340 00        NOP     
7341 00        NOP     
7342 00        NOP     
7343 00        NOP     
7344 00        NOP     
7345 00        NOP     
7346 00        NOP     
7347 00        NOP     
7348 00        NOP     
7349 00        NOP     
734a 00        NOP     
734b 00        NOP     
734c 00        NOP     
734d 00        NOP     
734e 00        NOP     
734f 00        NOP     
7350 00        NOP     
7351 00        NOP     
7352 00        NOP     
7353 00        NOP     
7354 00        NOP     
7355 00        NOP     
7356 00        NOP     
7357 00        NOP     
7358 00        NOP     
7359 00        NOP     
735a 00        NOP     
735b 00        NOP     
735c 00        NOP     
735d 00        NOP     
735e 00        NOP     
735f 00        NOP     
7360 00        NOP     
7361 00        NOP     
7362 00        NOP     
7363 00        NOP     
7364 00        NOP     
7365 00        NOP     
7366 00        NOP     
7367 00        NOP     
7368 00        NOP     
7369 00        NOP     
736a 00        NOP     
736b 00        NOP     
736c 00        NOP     
736d 00        NOP     
736e 00        NOP     
736f 00        NOP     
7370 00        NOP     
7371 00        NOP     
7372 00        NOP     
7373 00        NOP     
7374 00        NOP     
7375 00        NOP     
7376 00        NOP     
7377 00        NOP     
7378 00        NOP     
7379 00        NOP     
737a 00        NOP     
737b 00        NOP     
737c 00        NOP     
737d 00        NOP     
737e 00        NOP     
737f 00        NOP     
7380 00        NOP     
7381 00        NOP     
7382 00        NOP     
7383 00        NOP     
7384 00        NOP     
7385 00        NOP     
7386 00        NOP     
7387 00        NOP     
7388 00        NOP     
7389 00        NOP     
738a 00        NOP     
738b 00        NOP     
738c 00        NOP     
738d 00        NOP     
738e 00        NOP     
738f 00        NOP     
7390 00        NOP     
7391 00        NOP     
7392 00        NOP     
7393 00        NOP     
7394 00        NOP     
7395 00        NOP     
7396 00        NOP     
7397 00        NOP     
7398 00        NOP     
7399 00        NOP     
739a 00        NOP     
739b 00        NOP     
739c 00        NOP     
739d 00        NOP     
739e 00        NOP     
739f 00        NOP     
73a0 00        NOP     
73a1 00        NOP     
73a2 00        NOP     
73a3 00        NOP     
73a4 00        NOP     
73a5 00        NOP     
73a6 00        NOP     
73a7 00        NOP     
73a8 00        NOP     
73a9 00        NOP     
73aa 00        NOP     
73ab 00        NOP     
73ac 00        NOP     
73ad 00        NOP     
73ae 00        NOP     
73af 00        NOP     
73b0 00        NOP     
73b1 00        NOP     
73b2 00        NOP     
73b3 00        NOP     
73b4 00        NOP     
73b5 00        NOP     
73b6 00        NOP     
73b7 00        NOP     
73b8 00        NOP     
73b9 00        NOP     
73ba 00        NOP     
73bb 00        NOP     
73bc 00        NOP     
73bd 00        NOP     
73be 00        NOP     
73bf 00        NOP     
73c0 00        NOP     
73c1 00        NOP     
73c2 00        NOP     
73c3 00        NOP     
73c4 00        NOP     
73c5 00        NOP     
73c6 00        NOP     
73c7 00        NOP     
73c8 00        NOP     
73c9 00        NOP     
73ca 00        NOP     
73cb 00        NOP     
73cc 00        NOP     
73cd 00        NOP     
73ce 00        NOP     
73cf 00        NOP     
73d0 00        NOP     
73d1 00        NOP     
73d2 00        NOP     
73d3 00        NOP     
73d4 00        NOP     
73d5 00        NOP     
73d6 00        NOP     
73d7 00        NOP     
73d8 00        NOP     
73d9 00        NOP     
73da 00        NOP     
73db 00        NOP     
73dc 00        NOP     
73dd 00        NOP     
73de 00        NOP     
73df 00        NOP     
73e0 00        NOP     
73e1 00        NOP     
73e2 00        NOP     
73e3 00        NOP     
73e4 00        NOP     
73e5 00        NOP     
73e6 00        NOP     
73e7 00        NOP     
73e8 00        NOP     
73e9 00        NOP     
73ea 00        NOP     
73eb 00        NOP     
73ec 00        NOP     
73ed 00        NOP     
73ee 00        NOP     
73ef 00        NOP     
73f0 00        NOP     
73f1 00        NOP     
73f2 00        NOP     
73f3 00        NOP     
73f4 00        NOP     
73f5 00        NOP     
73f6 00        NOP     
73f7 00        NOP     
73f8 00        NOP     
73f9 00        NOP     
73fa 00        NOP     
73fb 00        NOP     
73fc 00        NOP     
73fd 00        NOP     
73fe 00        NOP     
73ff 00        NOP     
7400 00        NOP     
7401 00        NOP     
7402 00        NOP     
7403 00        NOP     
7404 00        NOP     
7405 00        NOP     
7406 00        NOP     
7407 00        NOP     
7408 00        NOP     
7409 00        NOP     
740a 00        NOP     
740b 00        NOP     
740c 00        NOP     
740d 00        NOP     
740e 00        NOP     
740f 00        NOP     
7410 00        NOP     
7411 00        NOP     
7412 00        NOP     
7413 00        NOP     
7414 00        NOP     
7415 00        NOP     
7416 00        NOP     
7417 00        NOP     
7418 00        NOP     
7419 00        NOP     
741a 00        NOP     
741b 00        NOP     
741c 00        NOP     
741d 00        NOP     
741e 00        NOP     
741f 00        NOP     
7420 00        NOP     
7421 00        NOP     
7422 00        NOP     
7423 00        NOP     
7424 00        NOP     
7425 00        NOP     
7426 00        NOP     
7427 00        NOP     
7428 00        NOP     
7429 00        NOP     
742a 00        NOP     
742b 00        NOP     
742c 00        NOP     
742d 00        NOP     
742e 00        NOP     
742f 00        NOP     
7430 00        NOP     
7431 00        NOP     
7432 00        NOP     
7433 00        NOP     
7434 00        NOP     
7435 00        NOP     
7436 00        NOP     
7437 00        NOP     
7438 00        NOP     
7439 00        NOP     
743a 00        NOP     
743b 00        NOP     
743c 00        NOP     
743d 00        NOP     
743e 00        NOP     
743f 00        NOP     
7440 00        NOP     
7441 00        NOP     
7442 00        NOP     
7443 00        NOP     
7444 00        NOP     
7445 00        NOP     
7446 00        NOP     
7447 00        NOP     
7448 00        NOP     
7449 00        NOP     
744a 00        NOP     
744b 00        NOP     
744c 00        NOP     
744d 00        NOP     
744e 00        NOP     
744f 00        NOP     
7450 00        NOP     
7451 00        NOP     
7452 00        NOP     
7453 00        NOP     
7454 00        NOP     
7455 00        NOP     
7456 00        NOP     
7457 00        NOP     
7458 00        NOP     
7459 00        NOP     
745a 00        NOP     
745b 00        NOP     
745c 00        NOP     
745d 00        NOP     
745e 00        NOP     
745f 00        NOP     
7460 00        NOP     
7461 00        NOP     
7462 00        NOP     
7463 00        NOP     
7464 00        NOP     
7465 00        NOP     
7466 00        NOP     
7467 00        NOP     
7468 00        NOP     
7469 00        NOP     
746a 00        NOP     
746b 00        NOP     
746c 00        NOP     
746d 00        NOP     
746e 00        NOP     
746f 00        NOP     
7470 00        NOP     
7471 00        NOP     
7472 00        NOP     
7473 00        NOP     
7474 00        NOP     
7475 00        NOP     
7476 00        NOP     
7477 00        NOP     
7478 00        NOP     
7479 00        NOP     
747a 00        NOP     
747b 00        NOP     
747c 00        NOP     
747d 00        NOP     
747e 00        NOP     
747f 00        NOP     
7480 00        NOP     
7481 00        NOP     
7482 00        NOP     
7483 00        NOP     
7484 00        NOP     
7485 00        NOP     
7486 00        NOP     
7487 00        NOP     
7488 00        NOP     
7489 00        NOP     
748a 00        NOP     
748b 00        NOP     
748c 00        NOP     
748d 00        NOP     
748e 00        NOP     
748f 00        NOP     
7490 00        NOP     
7491 00        NOP     
7492 00        NOP     
7493 00        NOP     
7494 00        NOP     
7495 00        NOP     
7496 00        NOP     
7497 00        NOP     
7498 00        NOP     
7499 00        NOP     
749a 00        NOP     
749b 00        NOP     
749c 00        NOP     
749d 00        NOP     
749e 00        NOP     
749f 00        NOP     
74a0 00        NOP     
74a1 00        NOP     
74a2 00        NOP     
74a3 00        NOP     
74a4 00        NOP     
74a5 00        NOP     
74a6 00        NOP     
74a7 00        NOP     
74a8 00        NOP     
74a9 00        NOP     
74aa 00        NOP     
74ab 00        NOP     
74ac 00        NOP     
74ad 00        NOP     
74ae 00        NOP     
74af 00        NOP     
74b0 00        NOP     
74b1 00        NOP     
74b2 00        NOP     
74b3 00        NOP     
74b4 00        NOP     
74b5 00        NOP     
74b6 00        NOP     
74b7 00        NOP     
74b8 00        NOP     
74b9 00        NOP     
74ba 00        NOP     
74bb 00        NOP     
74bc 00        NOP     
74bd 00        NOP     
74be 00        NOP     
74bf 00        NOP     
74c0 00        NOP     
74c1 00        NOP     
74c2 00        NOP     
74c3 00        NOP     
74c4 00        NOP     
74c5 00        NOP     
74c6 00        NOP     
74c7 00        NOP     
74c8 00        NOP     
74c9 00        NOP     
74ca 00        NOP     
74cb 00        NOP     
74cc 00        NOP     
74cd 00        NOP     
74ce 00        NOP     
74cf 00        NOP     
74d0 00        NOP     
74d1 00        NOP     
74d2 00        NOP     
74d3 00        NOP     
74d4 00        NOP     
74d5 00        NOP     
74d6 00        NOP     
74d7 00        NOP     
74d8 00        NOP     
74d9 00        NOP     
74da 00        NOP     
74db 00        NOP     
74dc 00        NOP     
74dd 00        NOP     
74de 00        NOP     
74df 00        NOP     
74e0 00        NOP     
74e1 00        NOP     
74e2 00        NOP     
74e3 00        NOP     
74e4 00        NOP     
74e5 00        NOP     
74e6 00        NOP     
74e7 00        NOP     
74e8 00        NOP     
74e9 00        NOP     
74ea 00        NOP     
74eb 00        NOP     
74ec 00        NOP     
74ed 00        NOP     
74ee 00        NOP     
74ef 00        NOP     
74f0 00        NOP     
74f1 00        NOP     
74f2 00        NOP     
74f3 00        NOP     
74f4 00        NOP     
74f5 00        NOP     
74f6 00        NOP     
74f7 00        NOP     
74f8 00        NOP     
74f9 00        NOP     
74fa 00        NOP     
74fb 00        NOP     
74fc 00        NOP     
74fd 00        NOP     
74fe 00        NOP     
74ff 00        NOP     
7500 00        NOP     
7501 00        NOP     
7502 00        NOP     
7503 00        NOP     
7504 00        NOP     
7505 00        NOP     
7506 00        NOP     
7507 00        NOP     
7508 00        NOP     
7509 00        NOP     
750a 00        NOP     
750b 00        NOP     
750c 00        NOP     
750d 00        NOP     
750e 00        NOP     
750f 00        NOP     
7510 00        NOP     
7511 00        NOP     
7512 00        NOP     
7513 00        NOP     
7514 00        NOP     
7515 00        NOP     
7516 00        NOP     
7517 00        NOP     
7518 00        NOP     
7519 00        NOP     
751a 00        NOP     
751b 00        NOP     
751c 00        NOP     
751d 00        NOP     
751e 00        NOP     
751f 00        NOP     
7520 00        NOP     
7521 00        NOP     
7522 00        NOP     
7523 00        NOP     
7524 00        NOP     
7525 00        NOP     
7526 00        NOP     
7527 00        NOP     
7528 00        NOP     
7529 00        NOP     
752a 00        NOP     
752b 00        NOP     
752c 00        NOP     
752d 00        NOP     
752e 00        NOP     
752f 00        NOP     
7530 00        NOP     
7531 00        NOP     
7532 00        NOP     
7533 00        NOP     
7534 00        NOP     
7535 00        NOP     
7536 00        NOP     
7537 00        NOP     
7538 00        NOP     
7539 00        NOP     
753a 00        NOP     
753b 00        NOP     
753c 00        NOP     
753d 00        NOP     
753e 00        NOP     
753f 00        NOP     
7540 00        NOP     
7541 00        NOP     
7542 00        NOP     
7543 00        NOP     
7544 00        NOP     
7545 00        NOP     
7546 00        NOP     
7547 00        NOP     
7548 00        NOP     
7549 00        NOP     
754a 00        NOP     
754b 00        NOP     
754c 00        NOP     
754d 00        NOP     
754e 00        NOP     
754f 00        NOP     
7550 00        NOP     
7551 00        NOP     
7552 00        NOP     
7553 00        NOP     
7554 00        NOP     
7555 00        NOP     
7556 00        NOP     
7557 00        NOP     
7558 00        NOP     
7559 00        NOP     
755a 00        NOP     
755b 00        NOP     
755c 00        NOP     
755d 00        NOP     
755e 00        NOP     
755f 00        NOP     
7560 00        NOP     
7561 00        NOP     
7562 00        NOP     
7563 00        NOP     
7564 00        NOP     
7565 00        NOP     
7566 00        NOP     
7567 00        NOP     
7568 00        NOP     
7569 00        NOP     
756a 00        NOP     
756b 00        NOP     
756c 00        NOP     
756d 00        NOP     
756e 00        NOP     
756f 00        NOP     
7570 00        NOP     
7571 00        NOP     
7572 00        NOP     
7573 00        NOP     
7574 00        NOP     
7575 00        NOP     
7576 00        NOP     
7577 00        NOP     
7578 00        NOP     
7579 00        NOP     
757a 00        NOP     
757b 00        NOP     
757c 00        NOP     
757d 00        NOP     
757e 00        NOP     
757f 00        NOP     
7580 00        NOP     
7581 00        NOP     
7582 00        NOP     
7583 00        NOP     
7584 00        NOP     
7585 00        NOP     
7586 00        NOP     
7587 00        NOP     
7588 00        NOP     
7589 00        NOP     
758a 00        NOP     
758b 00        NOP     
758c 00        NOP     
758d 00        NOP     
758e 00        NOP     
758f 00        NOP     
7590 00        NOP     
7591 00        NOP     
7592 00        NOP     
7593 00        NOP     
7594 00        NOP     
7595 00        NOP     
7596 00        NOP     
7597 00        NOP     
7598 00        NOP     
7599 00        NOP     
759a 00        NOP     
759b 00        NOP     
759c 00        NOP     
759d 00        NOP     
759e 00        NOP     
759f 00        NOP     
75a0 00        NOP     
75a1 00        NOP     
75a2 00        NOP     
75a3 00        NOP     
75a4 00        NOP     
75a5 00        NOP     
75a6 00        NOP     
75a7 00        NOP     
75a8 00        NOP     
75a9 00        NOP     
75aa 00        NOP     
75ab 00        NOP     
75ac 00        NOP     
75ad 00        NOP     
75ae 00        NOP     
75af 00        NOP     
75b0 00        NOP     
75b1 00        NOP     
75b2 00        NOP     
75b3 00        NOP     
75b4 00        NOP     
75b5 00        NOP     
75b6 00        NOP     
75b7 00        NOP     
75b8 00        NOP     
75b9 00        NOP     
75ba 00        NOP     
75bb 00        NOP     
75bc 00        NOP     
75bd 00        NOP     
75be 00        NOP     
75bf 00        NOP     
75c0 00        NOP     
75c1 00        NOP     
75c2 00        NOP     
75c3 00        NOP     
75c4 00        NOP     
75c5 00        NOP     
75c6 00        NOP     
75c7 00        NOP     
75c8 00        NOP     
75c9 00        NOP     
75ca 00        NOP     
75cb 00        NOP     
75cc 00        NOP     
75cd 00        NOP     
75ce 00        NOP     
75cf 00        NOP     
75d0 00        NOP     
75d1 00        NOP     
75d2 00        NOP     
75d3 00        NOP     
75d4 00        NOP     
75d5 00        NOP     
75d6 00        NOP     
75d7 00        NOP     
75d8 00        NOP     
75d9 00        NOP     
75da 00        NOP     
75db 00        NOP     
75dc 00        NOP     
75dd 00        NOP     
75de 00        NOP     
75df 00        NOP     
75e0 00        NOP     
75e1 00        NOP     
75e2 00        NOP     
75e3 00        NOP     
75e4 00        NOP     
75e5 00        NOP     
75e6 00        NOP     
75e7 00        NOP     
75e8 00        NOP     
75e9 00        NOP     
75ea 00        NOP     
75eb 00        NOP     
75ec 00        NOP     
75ed 00        NOP     
75ee 00        NOP     
75ef 00        NOP     
75f0 00        NOP     
75f1 00        NOP     
75f2 00        NOP     
75f3 00        NOP     
75f4 00        NOP     
75f5 00        NOP     
75f6 00        NOP     
75f7 00        NOP     
75f8 00        NOP     
75f9 00        NOP     
75fa 00        NOP     
75fb 00        NOP     
75fc 00        NOP     
75fd 00        NOP     
75fe 00        NOP     
75ff 00        NOP     
7600 00        NOP     
7601 00        NOP     
7602 00        NOP     
7603 00        NOP     
7604 00        NOP     
7605 00        NOP     
7606 00        NOP     
7607 00        NOP     
7608 00        NOP     
7609 00        NOP     
760a 00        NOP     
760b 00        NOP     
760c 00        NOP     
760d 00        NOP     
760e 00        NOP     
760f 00        NOP     
7610 00        NOP     
7611 00        NOP     
7612 00        NOP     
7613 00        NOP     
7614 00        NOP     
7615 00        NOP     
7616 00        NOP     
7617 00        NOP     
7618 00        NOP     
7619 00        NOP     
761a 00        NOP     
761b 00        NOP     
761c 00        NOP     
761d 00        NOP     
761e 00        NOP     
761f 00        NOP     
7620 00        NOP     
7621 00        NOP     
7622 00        NOP     
7623 00        NOP     
7624 00        NOP     
7625 00        NOP     
7626 00        NOP     
7627 00        NOP     
7628 00        NOP     
7629 00        NOP     
762a 00        NOP     
762b 00        NOP     
762c 00        NOP     
762d 00        NOP     
762e 00        NOP     
762f 00        NOP     
7630 00        NOP     
7631 00        NOP     
7632 00        NOP     
7633 00        NOP     
7634 00        NOP     
7635 00        NOP     
7636 00        NOP     
7637 00        NOP     
7638 00        NOP     
7639 00        NOP     
763a 00        NOP     
763b 00        NOP     
763c 00        NOP     
763d 00        NOP     
763e 00        NOP     
763f 00        NOP     
7640 00        NOP     
7641 00        NOP     
7642 00        NOP     
7643 00        NOP     
7644 00        NOP     
7645 00        NOP     
7646 00        NOP     
7647 00        NOP     
7648 00        NOP     
7649 00        NOP     
764a 00        NOP     
764b 00        NOP     
764c 00        NOP     
764d 00        NOP     
764e 00        NOP     
764f 00        NOP     
7650 00        NOP     
7651 00        NOP     
7652 00        NOP     
7653 00        NOP     
7654 00        NOP     
7655 00        NOP     
7656 00        NOP     
7657 00        NOP     
7658 00        NOP     
7659 00        NOP     
765a 00        NOP     
765b 00        NOP     
765c 00        NOP     
765d 00        NOP     
765e 00        NOP     
765f 00        NOP     
7660 00        NOP     
7661 00        NOP     
7662 00        NOP     
7663 00        NOP     
7664 00        NOP     
7665 00        NOP     
7666 00        NOP     
7667 00        NOP     
7668 00        NOP     
7669 00        NOP     
766a 00        NOP     
766b 00        NOP     
766c 00        NOP     
766d 00        NOP     
766e 00        NOP     
766f 00        NOP     
7670 00        NOP     
7671 00        NOP     
7672 00        NOP     
7673 00        NOP     
7674 00        NOP     
7675 00        NOP     
7676 00        NOP     
7677 00        NOP     
7678 00        NOP     
7679 00        NOP     
767a 00        NOP     
767b 00        NOP     
767c 00        NOP     
767d 00        NOP     
767e 00        NOP     
767f 00        NOP     
7680 00        NOP     
7681 00        NOP     
7682 00        NOP     
7683 00        NOP     
7684 00        NOP     
7685 00        NOP     
7686 00        NOP     
7687 00        NOP     
7688 00        NOP     
7689 00        NOP     
768a 00        NOP     
768b 00        NOP     
768c 00        NOP     
768d 00        NOP     
768e 00        NOP     
768f 00        NOP     
7690 00        NOP     
7691 00        NOP     
7692 00        NOP     
7693 00        NOP     
7694 00        NOP     
7695 00        NOP     
7696 00        NOP     
7697 00        NOP     
7698 00        NOP     
7699 00        NOP     
769a 00        NOP     
769b 00        NOP     
769c 00        NOP     
769d 00        NOP     
769e 00        NOP     
769f 00        NOP     
76a0 00        NOP     
76a1 00        NOP     
76a2 00        NOP     
76a3 00        NOP     
76a4 00        NOP     
76a5 00        NOP     
76a6 00        NOP     
76a7 00        NOP     
76a8 00        NOP     
76a9 00        NOP     
76aa 00        NOP     
76ab 00        NOP     
76ac 00        NOP     
76ad 00        NOP     
76ae 00        NOP     
76af 00        NOP     
76b0 00        NOP     
76b1 00        NOP     
76b2 00        NOP     
76b3 00        NOP     
76b4 00        NOP     
76b5 00        NOP     
76b6 00        NOP     
76b7 00        NOP     
76b8 00        NOP     
76b9 00        NOP     
76ba 00        NOP     
76bb 00        NOP     
76bc 00        NOP     
76bd 00        NOP     
76be 00        NOP     
76bf 00        NOP     
76c0 00        NOP     
76c1 00        NOP     
76c2 00        NOP     
76c3 00        NOP     
76c4 00        NOP     
76c5 00        NOP     
76c6 00        NOP     
76c7 00        NOP     
76c8 00        NOP     
76c9 00        NOP     
76ca 00        NOP     
76cb 00        NOP     
76cc 00        NOP     
76cd 00        NOP     
76ce 00        NOP     
76cf 00        NOP     
76d0 00        NOP     
76d1 00        NOP     
76d2 00        NOP     
76d3 00        NOP     
76d4 00        NOP     
76d5 00        NOP     
76d6 00        NOP     
76d7 00        NOP     
76d8 00        NOP     
76d9 00        NOP     
76da 00        NOP     
76db 00        NOP     
76dc 00        NOP     
76dd 00        NOP     
76de 00        NOP     
76df 00        NOP     
76e0 00        NOP     
76e1 00        NOP     
76e2 00        NOP     
76e3 00        NOP     
76e4 00        NOP     
76e5 00        NOP     
76e6 00        NOP     
76e7 00        NOP     
76e8 00        NOP     
76e9 00        NOP     
76ea 00        NOP     
76eb 00        NOP     
76ec 00        NOP     
76ed 00        NOP     
76ee 00        NOP     
76ef 00        NOP     
76f0 00        NOP     
76f1 00        NOP     
76f2 00        NOP     
76f3 00        NOP     
76f4 00        NOP     
76f5 00        NOP     
76f6 00        NOP     
76f7 00        NOP     
76f8 00        NOP     
76f9 00        NOP     
76fa 00        NOP     
76fb 00        NOP     
76fc 00        NOP     
76fd 00        NOP     
76fe 00        NOP     
76ff 00        NOP     
7700 00        NOP     
7701 00        NOP     
7702 00        NOP     
7703 00        NOP     
7704 00        NOP     
7705 00        NOP     
7706 00        NOP     
7707 00        NOP     
7708 00        NOP     
7709 00        NOP     
770a 00        NOP     
770b 00        NOP     
770c 00        NOP     
770d 00        NOP     
770e 00        NOP     
770f 00        NOP     
7710 00        NOP     
7711 00        NOP     
7712 00        NOP     
7713 00        NOP     
7714 00        NOP     
7715 00        NOP     
7716 00        NOP     
7717 00        NOP     
7718 00        NOP     
7719 00        NOP     
771a 00        NOP     
771b 00        NOP     
771c 00        NOP     
771d 00        NOP     
771e 00        NOP     
771f 00        NOP     
7720 00        NOP     
7721 00        NOP     
7722 00        NOP     
7723 00        NOP     
7724 00        NOP     
7725 00        NOP     
7726 00        NOP     
7727 00        NOP     
7728 00        NOP     
7729 00        NOP     
772a 00        NOP     
772b 00        NOP     
772c 00        NOP     
772d 00        NOP     
772e 00        NOP     
772f 00        NOP     
7730 00        NOP     
7731 00        NOP     
7732 00        NOP     
7733 00        NOP     
7734 00        NOP     
7735 00        NOP     
7736 00        NOP     
7737 00        NOP     
7738 00        NOP     
7739 00        NOP     
773a 00        NOP     
773b 00        NOP     
773c 00        NOP     
773d 00        NOP     
773e 00        NOP     
773f 00        NOP     
7740 00        NOP     
7741 00        NOP     
7742 00        NOP     
7743 00        NOP     
7744 00        NOP     
7745 00        NOP     
7746 00        NOP     
7747 00        NOP     
7748 00        NOP     
7749 00        NOP     
774a 00        NOP     
774b 00        NOP     
774c 00        NOP     
774d 00        NOP     
774e 00        NOP     
774f 00        NOP     
7750 00        NOP     
7751 00        NOP     
7752 00        NOP     
7753 00        NOP     
7754 00        NOP     
7755 00        NOP     
7756 00        NOP     
7757 00        NOP     
7758 00        NOP     
7759 00        NOP     
775a 00        NOP     
775b 00        NOP     
775c 00        NOP     
775d 00        NOP     
775e 00        NOP     
775f 00        NOP     
7760 00        NOP     
7761 00        NOP     
7762 00        NOP     
7763 00        NOP     
7764 00        NOP     
7765 00        NOP     
7766 00        NOP     
7767 00        NOP     
7768 00        NOP     
7769 00        NOP     
776a 00        NOP     
776b 00        NOP     
776c 00        NOP     
776d 00        NOP     
776e 00        NOP     
776f 00        NOP     
7770 00        NOP     
7771 00        NOP     
7772 00        NOP     
7773 00        NOP     
7774 00        NOP     
7775 00        NOP     
7776 00        NOP     
7777 00        NOP     
7778 00        NOP     
7779 00        NOP     
777a 00        NOP     
777b 00        NOP     
777c 00        NOP     
777d 00        NOP     
777e 00        NOP     
777f 00        NOP     
7780 00        NOP     
7781 00        NOP     
7782 00        NOP     
7783 00        NOP     
7784 00        NOP     
7785 00        NOP     
7786 00        NOP     
7787 00        NOP     
7788 00        NOP     
7789 00        NOP     
778a 00        NOP     
778b 00        NOP     
778c 00        NOP     
778d 00        NOP     
778e 00        NOP     
778f 00        NOP     
7790 00        NOP     
7791 00        NOP     
7792 00        NOP     
7793 00        NOP     
7794 00        NOP     
7795 00        NOP     
7796 00        NOP     
7797 00        NOP     
7798 00        NOP     
7799 00        NOP     
779a 00        NOP     
779b 00        NOP     
779c 00        NOP     
779d 00        NOP     
779e 00        NOP     
779f 00        NOP     
77a0 00        NOP     
77a1 00        NOP     
77a2 00        NOP     
77a3 00        NOP     
77a4 00        NOP     
77a5 00        NOP     
77a6 00        NOP     
77a7 00        NOP     
77a8 00        NOP     
77a9 00        NOP     
77aa 00        NOP     
77ab 00        NOP     
77ac 00        NOP     
77ad 00        NOP     
77ae 00        NOP     
77af 00        NOP     
77b0 00        NOP     
77b1 00        NOP     
77b2 00        NOP     
77b3 00        NOP     
77b4 00        NOP     
77b5 00        NOP     
77b6 00        NOP     
77b7 00        NOP     
77b8 00        NOP     
77b9 00        NOP     
77ba 00        NOP     
77bb 00        NOP     
77bc 00        NOP     
77bd 00        NOP     
77be 00        NOP     
77bf 00        NOP     
77c0 00        NOP     
77c1 00        NOP     
77c2 00        NOP     
77c3 00        NOP     
77c4 00        NOP     
77c5 00        NOP     
77c6 00        NOP     
77c7 00        NOP     
77c8 00        NOP     
77c9 00        NOP     
77ca 00        NOP     
77cb 00        NOP     
77cc 00        NOP     
77cd 00        NOP     
77ce 00        NOP     
77cf 00        NOP     
77d0 00        NOP     
77d1 00        NOP     
77d2 00        NOP     
77d3 00        NOP     
77d4 00        NOP     
77d5 00        NOP     
77d6 00        NOP     
77d7 00        NOP     
77d8 00        NOP     
77d9 00        NOP     
77da 00        NOP     
77db 00        NOP     
77dc 00        NOP     
77dd 00        NOP     
77de 00        NOP     
77df 00        NOP     
77e0 00        NOP     
77e1 00        NOP     
77e2 00        NOP     
77e3 00        NOP     
77e4 00        NOP     
77e5 00        NOP     
77e6 00        NOP     
77e7 00        NOP     
77e8 00        NOP     
77e9 00        NOP     
77ea 00        NOP     
77eb 00        NOP     
77ec 00        NOP     
77ed 00        NOP     
77ee 00        NOP     
77ef 00        NOP     
77f0 00        NOP     
77f1 00        NOP     
77f2 00        NOP     
77f3 00        NOP     
77f4 00        NOP     
77f5 00        NOP     
77f6 00        NOP     
77f7 00        NOP     
77f8 00        NOP     
77f9 00        NOP     
77fa 00        NOP     
77fb 00        NOP     
77fc 00        NOP     
77fd 00        NOP     
77fe 00        NOP     
77ff 00        NOP     
7800 00        NOP     
7801 00        NOP     
7802 00        NOP     
7803 00        NOP     
7804 00        NOP     
7805 00        NOP     
7806 00        NOP     
7807 00        NOP     
7808 00        NOP     
7809 00        NOP     
780a 00        NOP     
780b 00        NOP     
780c 00        NOP     
780d 00        NOP     
780e 00        NOP     
780f 00        NOP     
7810 00        NOP     
7811 00        NOP     
7812 00        NOP     
7813 00        NOP     
7814 00        NOP     
7815 00        NOP     
7816 00        NOP     
7817 00        NOP     
7818 00        NOP     
7819 00        NOP     
781a 00        NOP     
781b 00        NOP     
781c 00        NOP     
781d 00        NOP     
781e 00        NOP     
781f 00        NOP     
7820 00        NOP     
7821 00        NOP     
7822 00        NOP     
7823 00        NOP     
7824 00        NOP     
7825 00        NOP     
7826 00        NOP     
7827 00        NOP     
7828 00        NOP     
7829 00        NOP     
782a 00        NOP     
782b 00        NOP     
782c 00        NOP     
782d 00        NOP     
782e 00        NOP     
782f 00        NOP     
7830 00        NOP     
7831 00        NOP     
7832 00        NOP     
7833 00        NOP     
7834 00        NOP     
7835 00        NOP     
7836 00        NOP     
7837 00        NOP     
7838 00        NOP     
7839 00        NOP     
783a 00        NOP     
783b 00        NOP     
783c 00        NOP     
783d 00        NOP     
783e 00        NOP     
783f 00        NOP     
7840 00        NOP     
7841 00        NOP     
7842 00        NOP     
7843 00        NOP     
7844 00        NOP     
7845 00        NOP     
7846 00        NOP     
7847 00        NOP     
7848 00        NOP     
7849 00        NOP     
784a 00        NOP     
784b 00        NOP     
784c 00        NOP     
784d 00        NOP     
784e 00        NOP     
784f 00        NOP     
7850 00        NOP     
7851 00        NOP     
7852 00        NOP     
7853 00        NOP     
7854 00        NOP     
7855 00        NOP     
7856 00        NOP     
7857 00        NOP     
7858 00        NOP     
7859 00        NOP     
785a 00        NOP     
785b 00        NOP     
785c 00        NOP     
785d 00        NOP     
785e 00        NOP     
785f 00        NOP     
7860 00        NOP     
7861 00        NOP     
7862 00        NOP     
7863 00        NOP     
7864 00        NOP     
7865 00        NOP     
7866 00        NOP     
7867 00        NOP     
7868 00        NOP     
7869 00        NOP     
786a 00        NOP     
786b 00        NOP     
786c 00        NOP     
786d 00        NOP     
786e 00        NOP     
786f 00        NOP     
7870 00        NOP     
7871 00        NOP     
7872 00        NOP     
7873 00        NOP     
7874 00        NOP     
7875 00        NOP     
7876 00        NOP     
7877 00        NOP     
7878 00        NOP     
7879 00        NOP     
787a 00        NOP     
787b 00        NOP     
787c 00        NOP     
787d 00        NOP     
787e 00        NOP     
787f 00        NOP     
7880 00        NOP     
7881 00        NOP     
7882 00        NOP     
7883 00        NOP     
7884 00        NOP     
7885 00        NOP     
7886 00        NOP     
7887 00        NOP     
7888 00        NOP     
7889 00        NOP     
788a 00        NOP     
788b 00        NOP     
788c 00        NOP     
788d 00        NOP     
788e 00        NOP     
788f 00        NOP     
7890 00        NOP     
7891 00        NOP     
7892 00        NOP     
7893 00        NOP     
7894 00        NOP     
7895 00        NOP     
7896 00        NOP     
7897 00        NOP     
7898 00        NOP     
7899 00        NOP     
789a 00        NOP     
789b 00        NOP     
789c 00        NOP     
789d 00        NOP     
789e 00        NOP     
789f 00        NOP     
78a0 00        NOP     
78a1 00        NOP     
78a2 00        NOP     
78a3 00        NOP     
78a4 00        NOP     
78a5 00        NOP     
78a6 00        NOP     
78a7 00        NOP     
78a8 00        NOP     
78a9 00        NOP     
78aa 00        NOP     
78ab 00        NOP     
78ac 00        NOP     
78ad 00        NOP     
78ae 00        NOP     
78af 00        NOP     
78b0 00        NOP     
78b1 00        NOP     
78b2 00        NOP     
78b3 00        NOP     
78b4 00        NOP     
78b5 00        NOP     
78b6 00        NOP     
78b7 00        NOP     
78b8 00        NOP     
78b9 00        NOP     
78ba 00        NOP     
78bb 00        NOP     
78bc 00        NOP     
78bd 00        NOP     
78be 00        NOP     
78bf 00        NOP     
78c0 00        NOP     
78c1 00        NOP     
78c2 00        NOP     
78c3 00        NOP     
78c4 00        NOP     
78c5 00        NOP     
78c6 00        NOP     
78c7 00        NOP     
78c8 00        NOP     
78c9 00        NOP     
78ca 00        NOP     
78cb 00        NOP     
78cc 00        NOP     
78cd 00        NOP     
78ce 00        NOP     
78cf 00        NOP     
78d0 00        NOP     
78d1 00        NOP     
78d2 00        NOP     
78d3 00        NOP     
78d4 00        NOP     
78d5 00        NOP     
78d6 00        NOP     
78d7 00        NOP     
78d8 00        NOP     
78d9 00        NOP     
78da 00        NOP     
78db 00        NOP     
78dc 00        NOP     
78dd 00        NOP     
78de 00        NOP     
78df 00        NOP     
78e0 00        NOP     
78e1 00        NOP     
78e2 00        NOP     
78e3 00        NOP     
78e4 00        NOP     
78e5 00        NOP     
78e6 00        NOP     
78e7 00        NOP     
78e8 00        NOP     
78e9 00        NOP     
78ea 00        NOP     
78eb 00        NOP     
78ec 00        NOP     
78ed 00        NOP     
78ee 00        NOP     
78ef 00        NOP     
78f0 00        NOP     
78f1 00        NOP     
78f2 00        NOP     
78f3 00        NOP     
78f4 00        NOP     
78f5 00        NOP     
78f6 00        NOP     
78f7 00        NOP     
78f8 00        NOP     
78f9 00        NOP     
78fa 00        NOP     
78fb 00        NOP     
78fc 00        NOP     
78fd 00        NOP     
78fe 00        NOP     
78ff 00        NOP     
7900 00        NOP     
7901 00        NOP     
7902 00        NOP     
7903 00        NOP     
7904 00        NOP     
7905 00        NOP     
7906 00        NOP     
7907 00        NOP     
7908 00        NOP     
7909 00        NOP     
790a 00        NOP     
790b 00        NOP     
790c 00        NOP     
790d 00        NOP     
790e 00        NOP     
790f 00        NOP     
7910 00        NOP     
7911 00        NOP     
7912 00        NOP     
7913 00        NOP     
7914 00        NOP     
7915 00        NOP     
7916 00        NOP     
7917 00        NOP     
7918 00        NOP     
7919 00        NOP     
791a 00        NOP     
791b 00        NOP     
791c 00        NOP     
791d 00        NOP     
791e 00        NOP     
791f 00        NOP     
7920 00        NOP     
7921 00        NOP     
7922 00        NOP     
7923 00        NOP     
7924 00        NOP     
7925 00        NOP     
7926 00        NOP     
7927 00        NOP     
7928 00        NOP     
7929 00        NOP     
792a 00        NOP     
792b 00        NOP     
792c 00        NOP     
792d 00        NOP     
792e 00        NOP     
792f 00        NOP     
7930 00        NOP     
7931 00        NOP     
7932 00        NOP     
7933 00        NOP     
7934 00        NOP     
7935 00        NOP     
7936 00        NOP     
7937 00        NOP     
7938 00        NOP     
7939 00        NOP     
793a 00        NOP     
793b 00        NOP     
793c 00        NOP     
793d 00        NOP     
793e 00        NOP     
793f 00        NOP     
7940 00        NOP     
7941 00        NOP     
7942 00        NOP     
7943 00        NOP     
7944 00        NOP     
7945 00        NOP     
7946 00        NOP     
7947 00        NOP     
7948 00        NOP     
7949 00        NOP     
794a 00        NOP     
794b 00        NOP     
794c 00        NOP     
794d 00        NOP     
794e 00        NOP     
794f 00        NOP     
7950 00        NOP     
7951 00        NOP     
7952 00        NOP     
7953 00        NOP     
7954 00        NOP     
7955 00        NOP     
7956 00        NOP     
7957 00        NOP     
7958 00        NOP     
7959 00        NOP     
795a 00        NOP     
795b 00        NOP     
795c 00        NOP     
795d 00        NOP     
795e 00        NOP     
795f 00        NOP     
7960 00        NOP     
7961 00        NOP     
7962 00        NOP     
7963 00        NOP     
7964 00        NOP     
7965 00        NOP     
7966 00        NOP     
7967 00        NOP     
7968 00        NOP     
7969 00        NOP     
796a 00        NOP     
796b 00        NOP     
796c 00        NOP     
796d 00        NOP     
796e 00        NOP     
796f 00        NOP     
7970 00        NOP     
7971 00        NOP     
7972 00        NOP     
7973 00        NOP     
7974 00        NOP     
7975 00        NOP     
7976 00        NOP     
7977 00        NOP     
7978 00        NOP     
7979 00        NOP     
797a 00        NOP     
797b 00        NOP     
797c 00        NOP     
797d 00        NOP     
797e 00        NOP     
797f 00        NOP     
7980 00        NOP     
7981 00        NOP     
7982 00        NOP     
7983 00        NOP     
7984 00        NOP     
7985 00        NOP     
7986 00        NOP     
7987 00        NOP     
7988 00        NOP     
7989 00        NOP     
798a 00        NOP     
798b 00        NOP     
798c 00        NOP     
798d 00        NOP     
798e 00        NOP     
798f 00        NOP     
7990 00        NOP     
7991 00        NOP     
7992 00        NOP     
7993 00        NOP     
7994 00        NOP     
7995 00        NOP     
7996 00        NOP     
7997 00        NOP     
7998 00        NOP     
7999 00        NOP     
799a 00        NOP     
799b 00        NOP     
799c 00        NOP     
799d 00        NOP     
799e 00        NOP     
799f 00        NOP     
79a0 00        NOP     
79a1 00        NOP     
79a2 00        NOP     
79a3 00        NOP     
79a4 00        NOP     
79a5 00        NOP     
79a6 00        NOP     
79a7 00        NOP     
79a8 00        NOP     
79a9 00        NOP     
79aa 00        NOP     
79ab 00        NOP     
79ac 00        NOP     
79ad 00        NOP     
79ae 00        NOP     
79af 00        NOP     
79b0 00        NOP     
79b1 00        NOP     
79b2 00        NOP     
79b3 00        NOP     
79b4 00        NOP     
79b5 00        NOP     
79b6 00        NOP     
79b7 00        NOP     
79b8 00        NOP     
79b9 00        NOP     
79ba 00        NOP     
79bb 00        NOP     
79bc 00        NOP     
79bd 00        NOP     
79be 00        NOP     
79bf 00        NOP     
79c0 00        NOP     
79c1 00        NOP     
79c2 00        NOP     
79c3 00        NOP     
79c4 00        NOP     
79c5 00        NOP     
79c6 00        NOP     
79c7 00        NOP     
79c8 00        NOP     
79c9 00        NOP     
79ca 00        NOP     
79cb 00        NOP     
79cc 00        NOP     
79cd 00        NOP     
79ce 00        NOP     
79cf 00        NOP     
79d0 00        NOP     
79d1 00        NOP     
79d2 00        NOP     
79d3 00        NOP     
79d4 00        NOP     
79d5 00        NOP     
79d6 00        NOP     
79d7 00        NOP     
79d8 00        NOP     
79d9 00        NOP     
79da 00        NOP     
79db 00        NOP     
79dc 00        NOP     
79dd 00        NOP     
79de 00        NOP     
79df 00        NOP     
79e0 00        NOP     
79e1 00        NOP     
79e2 00        NOP     
79e3 00        NOP     
79e4 00        NOP     
79e5 00        NOP     
79e6 00        NOP     
79e7 00        NOP     
79e8 00        NOP     
79e9 00        NOP     
79ea 00        NOP     
79eb 00        NOP     
79ec 00        NOP     
79ed 00        NOP     
79ee 00        NOP     
79ef 00        NOP     
79f0 00        NOP     
79f1 00        NOP     
79f2 00        NOP     
79f3 00        NOP     
79f4 00        NOP     
79f5 00        NOP     
79f6 00        NOP     
79f7 00        NOP     
79f8 00        NOP     
79f9 00        NOP     
79fa 00        NOP     
79fb 00        NOP     
79fc 00        NOP     
79fd 00        NOP     
79fe 00        NOP     
79ff 00        NOP     
7a00 00        NOP     
7a01 00        NOP     
7a02 00        NOP     
7a03 00        NOP     
7a04 00        NOP     
7a05 00        NOP     
7a06 00        NOP     
7a07 00        NOP     
7a08 00        NOP     
7a09 00        NOP     
7a0a 00        NOP     
7a0b 00        NOP     
7a0c 00        NOP     
7a0d 00        NOP     
7a0e 00        NOP     
7a0f 00        NOP     
7a10 00        NOP     
7a11 00        NOP     
7a12 00        NOP     
7a13 00        NOP     
7a14 00        NOP     
7a15 00        NOP     
7a16 00        NOP     
7a17 00        NOP     
7a18 00        NOP     
7a19 00        NOP     
7a1a 00        NOP     
7a1b 00        NOP     
7a1c 00        NOP     
7a1d 00        NOP     
7a1e 00        NOP     
7a1f 00        NOP     
7a20 00        NOP     
7a21 00        NOP     
7a22 00        NOP     
7a23 00        NOP     
7a24 00        NOP     
7a25 00        NOP     
7a26 00        NOP     
7a27 00        NOP     
7a28 00        NOP     
7a29 00        NOP     
7a2a 00        NOP     
7a2b 00        NOP     
7a2c 00        NOP     
7a2d 00        NOP     
7a2e 00        NOP     
7a2f 00        NOP     
7a30 00        NOP     
7a31 00        NOP     
7a32 00        NOP     
7a33 00        NOP     
7a34 00        NOP     
7a35 00        NOP     
7a36 00        NOP     
7a37 00        NOP     
7a38 00        NOP     
7a39 00        NOP     
7a3a 00        NOP     
7a3b 00        NOP     
7a3c 00        NOP     
7a3d 00        NOP     
7a3e 00        NOP     
7a3f 00        NOP     
7a40 00        NOP     
7a41 00        NOP     
7a42 00        NOP     
7a43 00        NOP     
7a44 00        NOP     
7a45 00        NOP     
7a46 00        NOP     
7a47 00        NOP     
7a48 00        NOP     
7a49 00        NOP     
7a4a 00        NOP     
7a4b 00        NOP     
7a4c 00        NOP     
7a4d 00        NOP     
7a4e 00        NOP     
7a4f 00        NOP     
7a50 00        NOP     
7a51 00        NOP     
7a52 00        NOP     
7a53 00        NOP     
7a54 00        NOP     
7a55 00        NOP     
7a56 00        NOP     
7a57 00        NOP     
7a58 00        NOP     
7a59 00        NOP     
7a5a 00        NOP     
7a5b 00        NOP     
7a5c 00        NOP     
7a5d 00        NOP     
7a5e 00        NOP     
7a5f 00        NOP     
7a60 00        NOP     
7a61 00        NOP     
7a62 00        NOP     
7a63 00        NOP     
7a64 00        NOP     
7a65 00        NOP     
7a66 00        NOP     
7a67 00        NOP     
7a68 00        NOP     
7a69 00        NOP     
7a6a 00        NOP     
7a6b 00        NOP     
7a6c 00        NOP     
7a6d 00        NOP     
7a6e 00        NOP     
7a6f 00        NOP     
7a70 00        NOP     
7a71 00        NOP     
7a72 00        NOP     
7a73 00        NOP     
7a74 00        NOP     
7a75 00        NOP     
7a76 00        NOP     
7a77 00        NOP     
7a78 00        NOP     
7a79 00        NOP     
7a7a 00        NOP     
7a7b 00        NOP     
7a7c 00        NOP     
7a7d 00        NOP     
7a7e 00        NOP     
7a7f 00        NOP     
7a80 00        NOP     
7a81 00        NOP     
7a82 00        NOP     
7a83 00        NOP     
7a84 00        NOP     
7a85 00        NOP     
7a86 00        NOP     
7a87 00        NOP     
7a88 00        NOP     
7a89 00        NOP     
7a8a 00        NOP     
7a8b 00        NOP     
7a8c 00        NOP     
7a8d 00        NOP     
7a8e 00        NOP     
7a8f 00        NOP     
7a90 00        NOP     
7a91 00        NOP     
7a92 00        NOP     
7a93 00        NOP     
7a94 00        NOP     
7a95 00        NOP     
7a96 00        NOP     
7a97 00        NOP     
7a98 00        NOP     
7a99 00        NOP     
7a9a 00        NOP     
7a9b 00        NOP     
7a9c 00        NOP     
7a9d 00        NOP     
7a9e 00        NOP     
7a9f 00        NOP     
7aa0 00        NOP     
7aa1 00        NOP     
7aa2 00        NOP     
7aa3 00        NOP     
7aa4 00        NOP     
7aa5 00        NOP     
7aa6 00        NOP     
7aa7 00        NOP     
7aa8 00        NOP     
7aa9 00        NOP     
7aaa 00        NOP     
7aab 00        NOP     
7aac 00        NOP     
7aad 00        NOP     
7aae 00        NOP     
7aaf 00        NOP     
7ab0 00        NOP     
7ab1 00        NOP     
7ab2 00        NOP     
7ab3 00        NOP     
7ab4 00        NOP     
7ab5 00        NOP     
7ab6 00        NOP     
7ab7 00        NOP     
7ab8 00        NOP     
7ab9 00        NOP     
7aba 00        NOP     
7abb 00        NOP     
7abc 00        NOP     
7abd 00        NOP     
7abe 00        NOP     
7abf 00        NOP     
7ac0 00        NOP     
7ac1 00        NOP     
7ac2 00        NOP     
7ac3 00        NOP     
7ac4 00        NOP     
7ac5 00        NOP     
7ac6 00        NOP     
7ac7 00        NOP     
7ac8 00        NOP     
7ac9 00        NOP     
7aca 00        NOP     
7acb 00        NOP     
7acc 00        NOP     
7acd 00        NOP     
7ace 00        NOP     
7acf 00        NOP     
7ad0 00        NOP     
7ad1 00        NOP     
7ad2 00        NOP     
7ad3 00        NOP     
7ad4 00        NOP     
7ad5 00        NOP     
7ad6 00        NOP     
7ad7 00        NOP     
7ad8 00        NOP     
7ad9 00        NOP     
7ada 00        NOP     
7adb 00        NOP     
7adc 00        NOP     
7add 00        NOP     
7ade 00        NOP     
7adf 00        NOP     
7ae0 00        NOP     
7ae1 00        NOP     
7ae2 00        NOP     
7ae3 00        NOP     
7ae4 00        NOP     
7ae5 00        NOP     
7ae6 00        NOP     
7ae7 00        NOP     
7ae8 00        NOP     
7ae9 00        NOP     
7aea 00        NOP     
7aeb 00        NOP     
7aec 00        NOP     
7aed 00        NOP     
7aee 00        NOP     
7aef 00        NOP     
7af0 00        NOP     
7af1 00        NOP     
7af2 00        NOP     
7af3 00        NOP     
7af4 00        NOP     
7af5 00        NOP     
7af6 00        NOP     
7af7 00        NOP     
7af8 00        NOP     
7af9 00        NOP     
7afa 00        NOP     
7afb 00        NOP     
7afc 00        NOP     
7afd 00        NOP     
7afe 00        NOP     
7aff 00        NOP     
7b00 00        NOP     
7b01 00        NOP     
7b02 00        NOP     
7b03 00        NOP     
7b04 00        NOP     
7b05 00        NOP     
7b06 00        NOP     
7b07 00        NOP     
7b08 00        NOP     
7b09 00        NOP     
7b0a 00        NOP     
7b0b 00        NOP     
7b0c 00        NOP     
7b0d 00        NOP     
7b0e 00        NOP     
7b0f 00        NOP     
7b10 00        NOP     
7b11 00        NOP     
7b12 00        NOP     
7b13 00        NOP     
7b14 00        NOP     
7b15 00        NOP     
7b16 00        NOP     
7b17 00        NOP     
7b18 00        NOP     
7b19 00        NOP     
7b1a 00        NOP     
7b1b 00        NOP     
7b1c 00        NOP     
7b1d 00        NOP     
7b1e 00        NOP     
7b1f 00        NOP     
7b20 00        NOP     
7b21 00        NOP     
7b22 00        NOP     
7b23 00        NOP     
7b24 00        NOP     
7b25 00        NOP     
7b26 00        NOP     
7b27 00        NOP     
7b28 00        NOP     
7b29 00        NOP     
7b2a 00        NOP     
7b2b 00        NOP     
7b2c 00        NOP     
7b2d 00        NOP     
7b2e 00        NOP     
7b2f 00        NOP     
7b30 00        NOP     
7b31 00        NOP     
7b32 00        NOP     
7b33 00        NOP     
7b34 00        NOP     
7b35 00        NOP     
7b36 00        NOP     
7b37 00        NOP     
7b38 00        NOP     
7b39 00        NOP     
7b3a 00        NOP     
7b3b 00        NOP     
7b3c 00        NOP     
7b3d 00        NOP     
7b3e 00        NOP     
7b3f 00        NOP     
7b40 00        NOP     
7b41 00        NOP     
7b42 00        NOP     
7b43 00        NOP     
7b44 00        NOP     
7b45 00        NOP     
7b46 00        NOP     
7b47 00        NOP     
7b48 00        NOP     
7b49 00        NOP     
7b4a 00        NOP     
7b4b 00        NOP     
7b4c 00        NOP     
7b4d 00        NOP     
7b4e 00        NOP     
7b4f 00        NOP     
7b50 00        NOP     
7b51 00        NOP     
7b52 00        NOP     
7b53 00        NOP     
7b54 00        NOP     
7b55 00        NOP     
7b56 00        NOP     
7b57 00        NOP     
7b58 00        NOP     
7b59 00        NOP     
7b5a 00        NOP     
7b5b 00        NOP     
7b5c 00        NOP     
7b5d 00        NOP     
7b5e 00        NOP     
7b5f 00        NOP     
7b60 00        NOP     
7b61 00        NOP     
7b62 00        NOP     
7b63 00        NOP     
7b64 00        NOP     
7b65 00        NOP     
7b66 00        NOP     
7b67 00        NOP     
7b68 00        NOP     
7b69 00        NOP     
7b6a 00        NOP     
7b6b 00        NOP     
7b6c 00        NOP     
7b6d 00        NOP     
7b6e 00        NOP     
7b6f 00        NOP     
7b70 00        NOP     
7b71 00        NOP     
7b72 00        NOP     
7b73 00        NOP     
7b74 00        NOP     
7b75 00        NOP     
7b76 00        NOP     
7b77 00        NOP     
7b78 00        NOP     
7b79 00        NOP     
7b7a 00        NOP     
7b7b 00        NOP     
7b7c 00        NOP     
7b7d 00        NOP     
7b7e 00        NOP     
7b7f 00        NOP     
7b80 00        NOP     
7b81 00        NOP     
7b82 00        NOP     
7b83 00        NOP     
7b84 00        NOP     
7b85 00        NOP     
7b86 00        NOP     
7b87 00        NOP     
7b88 00        NOP     
7b89 00        NOP     
7b8a 00        NOP     
7b8b 00        NOP     
7b8c 00        NOP     
7b8d 00        NOP     
7b8e 00        NOP     
7b8f 00        NOP     
7b90 00        NOP     
7b91 00        NOP     
7b92 00        NOP     
7b93 00        NOP     
7b94 00        NOP     
7b95 00        NOP     
7b96 00        NOP     
7b97 00        NOP     
7b98 00        NOP     
7b99 00        NOP     
7b9a 00        NOP     
7b9b 00        NOP     
7b9c 00        NOP     
7b9d 00        NOP     
7b9e 00        NOP     
7b9f 00        NOP     
7ba0 00        NOP     
7ba1 00        NOP     
7ba2 00        NOP     
7ba3 00        NOP     
7ba4 00        NOP     
7ba5 00        NOP     
7ba6 00        NOP     
7ba7 00        NOP     
7ba8 00        NOP     
7ba9 00        NOP     
7baa 00        NOP     
7bab 00        NOP     
7bac 00        NOP     
7bad 00        NOP     
7bae 00        NOP     
7baf 00        NOP     
7bb0 00        NOP     
7bb1 00        NOP     
7bb2 00        NOP     
7bb3 00        NOP     
7bb4 00        NOP     
7bb5 00        NOP     
7bb6 00        NOP     
7bb7 00        NOP     
7bb8 00        NOP     
7bb9 00        NOP     
7bba 00        NOP     
7bbb 00        NOP     
7bbc 00        NOP     
7bbd 00        NOP     
7bbe 00        NOP     
7bbf 00        NOP     
7bc0 00        NOP     
7bc1 00        NOP     
7bc2 00        NOP     
7bc3 00        NOP     
7bc4 00        NOP     
7bc5 00        NOP     
7bc6 00        NOP     
7bc7 00        NOP     
7bc8 00        NOP     
7bc9 00        NOP     
7bca 00        NOP     
7bcb 00        NOP     
7bcc 00        NOP     
7bcd 00        NOP     
7bce 00        NOP     
7bcf 00        NOP     
7bd0 00        NOP     
7bd1 00        NOP     
7bd2 00        NOP     
7bd3 00        NOP     
7bd4 00        NOP     
7bd5 00        NOP     
7bd6 00        NOP     
7bd7 00        NOP     
7bd8 00        NOP     
7bd9 00        NOP     
7bda 00        NOP     
7bdb 00        NOP     
7bdc 00        NOP     
7bdd 00        NOP     
7bde 00        NOP     
7bdf 00        NOP     
7be0 00        NOP     
7be1 00        NOP     
7be2 00        NOP     
7be3 00        NOP     
7be4 00        NOP     
7be5 00        NOP     
7be6 00        NOP     
7be7 00        NOP     
7be8 00        NOP     
7be9 00        NOP     
7bea 00        NOP     
7beb 00        NOP     
7bec 00        NOP     
7bed 00        NOP     
7bee 00        NOP     
7bef 00        NOP     
7bf0 00        NOP     
7bf1 00        NOP     
7bf2 00        NOP     
7bf3 00        NOP     
7bf4 00        NOP     
7bf5 00        NOP     
7bf6 00        NOP     
7bf7 00        NOP     
7bf8 00        NOP     
7bf9 00        NOP     
7bfa 00        NOP     
7bfb 00        NOP     
7bfc 00        NOP     
7bfd 00        NOP     
7bfe 00        NOP     
7bff 00        NOP     
7c00 00        NOP     
7c01 00        NOP     
7c02 00        NOP     
7c03 00        NOP     
7c04 00        NOP     
7c05 00        NOP     
7c06 00        NOP     
7c07 00        NOP     
7c08 00        NOP     
7c09 00        NOP     
7c0a 00        NOP     
7c0b 00        NOP     
7c0c 00        NOP     
7c0d 00        NOP     
7c0e 00        NOP     
7c0f 00        NOP     
7c10 00        NOP     
7c11 00        NOP     
7c12 00        NOP     
7c13 00        NOP     
7c14 00        NOP     
7c15 00        NOP     
7c16 00        NOP     
7c17 00        NOP     
7c18 00        NOP     
7c19 00        NOP     
7c1a 00        NOP     
7c1b 00        NOP     
7c1c 00        NOP     
7c1d 00        NOP     
7c1e 00        NOP     
7c1f 00        NOP     
7c20 00        NOP     
7c21 00        NOP     
7c22 00        NOP     
7c23 00        NOP     
7c24 00        NOP     
7c25 00        NOP     
7c26 00        NOP     
7c27 00        NOP     
7c28 00        NOP     
7c29 00        NOP     
7c2a 00        NOP     
7c2b 00        NOP     
7c2c 00        NOP     
7c2d 00        NOP     
7c2e 00        NOP     
7c2f 00        NOP     
7c30 00        NOP     
7c31 00        NOP     
7c32 00        NOP     
7c33 00        NOP     
7c34 00        NOP     
7c35 00        NOP     
7c36 00        NOP     
7c37 00        NOP     
7c38 00        NOP     
7c39 00        NOP     
7c3a 00        NOP     
7c3b 00        NOP     
7c3c 00        NOP     
7c3d 00        NOP     
7c3e 00        NOP     
7c3f 00        NOP     
7c40 00        NOP     
7c41 00        NOP     
7c42 00        NOP     
7c43 00        NOP     
7c44 00        NOP     
7c45 00        NOP     
7c46 00        NOP     
7c47 00        NOP     
7c48 00        NOP     
7c49 00        NOP     
7c4a 00        NOP     
7c4b 00        NOP     
7c4c 00        NOP     
7c4d 00        NOP     
7c4e 00        NOP     
7c4f 00        NOP     
7c50 00        NOP     
7c51 00        NOP     
7c52 00        NOP     
7c53 00        NOP     
7c54 00        NOP     
7c55 00        NOP     
7c56 00        NOP     
7c57 00        NOP     
7c58 00        NOP     
7c59 00        NOP     
7c5a 00        NOP     
7c5b 00        NOP     
7c5c 00        NOP     
7c5d 00        NOP     
7c5e 00        NOP     
7c5f 00        NOP     
7c60 00        NOP     
7c61 00        NOP     
7c62 00        NOP     
7c63 00        NOP     
7c64 00        NOP     
7c65 00        NOP     
7c66 00        NOP     
7c67 00        NOP     
7c68 00        NOP     
7c69 00        NOP     
7c6a 00        NOP     
7c6b 00        NOP     
7c6c 00        NOP     
7c6d 00        NOP     
7c6e 00        NOP     
7c6f 00        NOP     
7c70 00        NOP     
7c71 00        NOP     
7c72 00        NOP     
7c73 00        NOP     
7c74 00        NOP     
7c75 00        NOP     
7c76 00        NOP     
7c77 00        NOP     
7c78 00        NOP     
7c79 00        NOP     
7c7a 00        NOP     
7c7b 00        NOP     
7c7c 00        NOP     
7c7d 00        NOP     
7c7e 00        NOP     
7c7f 00        NOP     
7c80 00        NOP     
7c81 00        NOP     
7c82 00        NOP     
7c83 00        NOP     
7c84 00        NOP     
7c85 00        NOP     
7c86 00        NOP     
7c87 00        NOP     
7c88 00        NOP     
7c89 00        NOP     
7c8a 00        NOP     
7c8b 00        NOP     
7c8c 00        NOP     
7c8d 00        NOP     
7c8e 00        NOP     
7c8f 00        NOP     
7c90 00        NOP     
7c91 00        NOP     
7c92 00        NOP     
7c93 00        NOP     
7c94 00        NOP     
7c95 00        NOP     
7c96 00        NOP     
7c97 00        NOP     
7c98 00        NOP     
7c99 00        NOP     
7c9a 00        NOP     
7c9b 00        NOP     
7c9c 00        NOP     
7c9d 00        NOP     
7c9e 00        NOP     
7c9f 00        NOP     
7ca0 00        NOP     
7ca1 00        NOP     
7ca2 00        NOP     
7ca3 00        NOP     
7ca4 00        NOP     
7ca5 00        NOP     
7ca6 00        NOP     
7ca7 00        NOP     
7ca8 00        NOP     
7ca9 00        NOP     
7caa 00        NOP     
7cab 00        NOP     
7cac 00        NOP     
7cad 00        NOP     
7cae 00        NOP     
7caf 00        NOP     
7cb0 00        NOP     
7cb1 00        NOP     
7cb2 00        NOP     
7cb3 00        NOP     
7cb4 00        NOP     
7cb5 00        NOP     
7cb6 00        NOP     
7cb7 00        NOP     
7cb8 00        NOP     
7cb9 00        NOP     
7cba 00        NOP     
7cbb 00        NOP     
7cbc 00        NOP     
7cbd 00        NOP     
7cbe 00        NOP     
7cbf 00        NOP     
7cc0 00        NOP     
7cc1 00        NOP     
7cc2 00        NOP     
7cc3 00        NOP     
7cc4 00        NOP     
7cc5 00        NOP     
7cc6 00        NOP     
7cc7 00        NOP     
7cc8 00        NOP     
7cc9 00        NOP     
7cca 00        NOP     
7ccb 00        NOP     
7ccc 00        NOP     
7ccd 00        NOP     
7cce 00        NOP     
7ccf 00        NOP     
7cd0 00        NOP     
7cd1 00        NOP     
7cd2 00        NOP     
7cd3 00        NOP     
7cd4 00        NOP     
7cd5 00        NOP     
7cd6 00        NOP     
7cd7 00        NOP     
7cd8 00        NOP     
7cd9 00        NOP     
7cda 00        NOP     
7cdb 00        NOP     
7cdc 00        NOP     
7cdd 00        NOP     
7cde 00        NOP     
7cdf 00        NOP     
7ce0 00        NOP     
7ce1 00        NOP     
7ce2 00        NOP     
7ce3 00        NOP     
7ce4 00        NOP     
7ce5 00        NOP     
7ce6 00        NOP     
7ce7 00        NOP     
7ce8 00        NOP     
7ce9 00        NOP     
7cea 00        NOP     
7ceb 00        NOP     
7cec 00        NOP     
7ced 00        NOP     
7cee 00        NOP     
7cef 00        NOP     
7cf0 00        NOP     
7cf1 00        NOP     
7cf2 00        NOP     
7cf3 00        NOP     
7cf4 00        NOP     
7cf5 00        NOP     
7cf6 00        NOP     
7cf7 00        NOP     
7cf8 00        NOP     
7cf9 00        NOP     
7cfa 00        NOP     
7cfb 00        NOP     
7cfc 00        NOP     
7cfd 00        NOP     
7cfe 00        NOP     
7cff 00        NOP     
7d00 00        NOP     
7d01 00        NOP     
7d02 00        NOP     
7d03 00        NOP     
7d04 00        NOP     
7d05 00        NOP     
7d06 00        NOP     
7d07 00        NOP     
7d08 00        NOP     
7d09 00        NOP     
7d0a 00        NOP     
7d0b 00        NOP     
7d0c 00        NOP     
7d0d 00        NOP     
7d0e 00        NOP     
7d0f 00        NOP     
7d10 00        NOP     
7d11 00        NOP     
7d12 00        NOP     
7d13 00        NOP     
7d14 00        NOP     
7d15 00        NOP     
7d16 00        NOP     
7d17 00        NOP     
7d18 00        NOP     
7d19 00        NOP     
7d1a 00        NOP     
7d1b 00        NOP     
7d1c 00        NOP     
7d1d 00        NOP     
7d1e 00        NOP     
7d1f 00        NOP     
7d20 00        NOP     
7d21 00        NOP     
7d22 00        NOP     
7d23 00        NOP     
7d24 00        NOP     
7d25 00        NOP     
7d26 00        NOP     
7d27 00        NOP     
7d28 00        NOP     
7d29 00        NOP     
7d2a 00        NOP     
7d2b 00        NOP     
7d2c 00        NOP     
7d2d 00        NOP     
7d2e 00        NOP     
7d2f 00        NOP     
7d30 00        NOP     
7d31 00        NOP     
7d32 00        NOP     
7d33 00        NOP     
7d34 00        NOP     
7d35 00        NOP     
7d36 00        NOP     
7d37 00        NOP     
7d38 00        NOP     
7d39 00        NOP     
7d3a 00        NOP     
7d3b 00        NOP     
7d3c 00        NOP     
7d3d 00        NOP     
7d3e 00        NOP     
7d3f 00        NOP     
7d40 00        NOP     
7d41 00        NOP     
7d42 00        NOP     
7d43 00        NOP     
7d44 00        NOP     
7d45 00        NOP     
7d46 00        NOP     
7d47 00        NOP     
7d48 00        NOP     
7d49 00        NOP     
7d4a 00        NOP     
7d4b 00        NOP     
7d4c 00        NOP     
7d4d 00        NOP     
7d4e 00        NOP     
7d4f 00        NOP     
7d50 00        NOP     
7d51 00        NOP     
7d52 00        NOP     
7d53 00        NOP     
7d54 00        NOP     
7d55 00        NOP     
7d56 00        NOP     
7d57 00        NOP     
7d58 00        NOP     
7d59 00        NOP     
7d5a 00        NOP     
7d5b 00        NOP     
7d5c 00        NOP     
7d5d 00        NOP     
7d5e 00        NOP     
7d5f 00        NOP     
7d60 00        NOP     
7d61 00        NOP     
7d62 00        NOP     
7d63 00        NOP     
7d64 00        NOP     
7d65 00        NOP     
7d66 00        NOP     
7d67 00        NOP     
7d68 00        NOP     
7d69 00        NOP     
7d6a 00        NOP     
7d6b 00        NOP     
7d6c 00        NOP     
7d6d 00        NOP     
7d6e 00        NOP     
7d6f 00        NOP     
7d70 00        NOP     
7d71 00        NOP     
7d72 00        NOP     
7d73 00        NOP     
7d74 00        NOP     
7d75 00        NOP     
7d76 00        NOP     
7d77 00        NOP     
7d78 00        NOP     
7d79 00        NOP     
7d7a 00        NOP     
7d7b 00        NOP     
7d7c 00        NOP     
7d7d 00        NOP     
7d7e 00        NOP     
7d7f 00        NOP     
7d80 00        NOP     
7d81 00        NOP     
7d82 00        NOP     
7d83 00        NOP     
7d84 00        NOP     
7d85 00        NOP     
7d86 00        NOP     
7d87 00        NOP     
7d88 00        NOP     
7d89 00        NOP     
7d8a 00        NOP     
7d8b 00        NOP     
7d8c 00        NOP     
7d8d 00        NOP     
7d8e 00        NOP     
7d8f 00        NOP     
7d90 00        NOP     
7d91 00        NOP     
7d92 00        NOP     
7d93 00        NOP     
7d94 00        NOP     
7d95 00        NOP     
7d96 00        NOP     
7d97 00        NOP     
7d98 00        NOP     
7d99 00        NOP     
7d9a 00        NOP     
7d9b 00        NOP     
7d9c 00        NOP     
7d9d 00        NOP     
7d9e 00        NOP     
7d9f 00        NOP     
7da0 00        NOP     
7da1 00        NOP     
7da2 00        NOP     
7da3 00        NOP     
7da4 00        NOP     
7da5 00        NOP     
7da6 00        NOP     
7da7 00        NOP     
7da8 00        NOP     
7da9 00        NOP     
7daa 00        NOP     
7dab 00        NOP     
7dac 00        NOP     
7dad 00        NOP     
7dae 00        NOP     
7daf 00        NOP     
7db0 00        NOP     
7db1 00        NOP     
7db2 00        NOP     
7db3 00        NOP     
7db4 00        NOP     
7db5 00        NOP     
7db6 00        NOP     
7db7 00        NOP     
7db8 00        NOP     
7db9 00        NOP     
7dba 00        NOP     
7dbb 00        NOP     
7dbc 00        NOP     
7dbd 00        NOP     
7dbe 00        NOP     
7dbf 00        NOP     
7dc0 00        NOP     
7dc1 00        NOP     
7dc2 00        NOP     
7dc3 00        NOP     
7dc4 00        NOP     
7dc5 00        NOP     
7dc6 00        NOP     
7dc7 00        NOP     
7dc8 00        NOP     
7dc9 00        NOP     
7dca 00        NOP     
7dcb 00        NOP     
7dcc 00        NOP     
7dcd 00        NOP     
7dce 00        NOP     
7dcf 00        NOP     
7dd0 00        NOP     
7dd1 00        NOP     
7dd2 00        NOP     
7dd3 00        NOP     
7dd4 00        NOP     
7dd5 00        NOP     
7dd6 00        NOP     
7dd7 00        NOP     
7dd8 00        NOP     
7dd9 00        NOP     
7dda 00        NOP     
7ddb 00        NOP     
7ddc 00        NOP     
7ddd 00        NOP     
7dde 00        NOP     
7ddf 00        NOP     
7de0 00        NOP     
7de1 00        NOP     
7de2 00        NOP     
7de3 00        NOP     
7de4 00        NOP     
7de5 00        NOP     
7de6 00        NOP     
7de7 00        NOP     
7de8 00        NOP     
7de9 00        NOP     
7dea 00        NOP     
7deb 00        NOP     
7dec 00        NOP     
7ded 00        NOP     
7dee 00        NOP     
7def 00        NOP     
7df0 00        NOP     
7df1 00        NOP     
7df2 00        NOP     
7df3 00        NOP     
7df4 00        NOP     
7df5 00        NOP     
7df6 00        NOP     
7df7 00        NOP     
7df8 00        NOP     
7df9 00        NOP     
7dfa 00        NOP     
7dfb 00        NOP     
7dfc 00        NOP     
7dfd 00        NOP     
7dfe 00        NOP     
7dff 00        NOP     
7e00 00        NOP     
7e01 00        NOP     
7e02 00        NOP     
7e03 00        NOP     
7e04 00        NOP     
7e05 00        NOP     
7e06 00        NOP     
7e07 00        NOP     
7e08 00        NOP     
7e09 00        NOP     
7e0a 00        NOP     
7e0b 00        NOP     
7e0c 00        NOP     
7e0d 00        NOP     
7e0e 00        NOP     
7e0f 00        NOP     
7e10 00        NOP     
7e11 00        NOP     
7e12 00        NOP     
7e13 00        NOP     
7e14 00        NOP     
7e15 00        NOP     
7e16 00        NOP     
7e17 00        NOP     
7e18 00        NOP     
7e19 00        NOP     
7e1a 00        NOP     
7e1b 00        NOP     
7e1c 00        NOP     
7e1d 00        NOP     
7e1e 00        NOP     
7e1f 00        NOP     
7e20 00        NOP     
7e21 00        NOP     
7e22 00        NOP     
7e23 00        NOP     
7e24 00        NOP     
7e25 00        NOP     
7e26 00        NOP     
7e27 00        NOP     
7e28 00        NOP     
7e29 00        NOP     
7e2a 00        NOP     
7e2b 00        NOP     
7e2c 00        NOP     
7e2d 00        NOP     
7e2e 00        NOP     
7e2f 00        NOP     
7e30 00        NOP     
7e31 00        NOP     
7e32 00        NOP     
7e33 00        NOP     
7e34 00        NOP     
7e35 00        NOP     
7e36 00        NOP     
7e37 00        NOP     
7e38 00        NOP     
7e39 00        NOP     
7e3a 00        NOP     
7e3b 00        NOP     
7e3c 00        NOP     
7e3d 00        NOP     
7e3e 00        NOP     
7e3f 00        NOP     
7e40 00        NOP     
7e41 00        NOP     
7e42 00        NOP     
7e43 00        NOP     
7e44 00        NOP     
7e45 00        NOP     
7e46 00        NOP     
7e47 00        NOP     
7e48 00        NOP     
7e49 00        NOP     
7e4a 00        NOP     
7e4b 00        NOP     
7e4c 00        NOP     
7e4d 00        NOP     
7e4e 00        NOP     
7e4f 00        NOP     
7e50 00        NOP     
7e51 00        NOP     
7e52 00        NOP     
7e53 00        NOP     
7e54 00        NOP     
7e55 00        NOP     
7e56 00        NOP     
7e57 00        NOP     
7e58 00        NOP     
7e59 00        NOP     
7e5a 00        NOP     
7e5b 00        NOP     
7e5c 00        NOP     
7e5d 00        NOP     
7e5e 00        NOP     
7e5f 00        NOP     
7e60 00        NOP     
7e61 00        NOP     
7e62 00        NOP     
7e63 00        NOP     
7e64 00        NOP     
7e65 00        NOP     
7e66 00        NOP     
7e67 00        NOP     
7e68 00        NOP     
7e69 00        NOP     
7e6a 00        NOP     
7e6b 00        NOP     
7e6c 00        NOP     
7e6d 00        NOP     
7e6e 00        NOP     
7e6f 00        NOP     
7e70 00        NOP     
7e71 00        NOP     
7e72 00        NOP     
7e73 00        NOP     
7e74 00        NOP     
7e75 00        NOP     
7e76 00        NOP     
7e77 00        NOP     
7e78 00        NOP     
7e79 00        NOP     
7e7a 00        NOP     
7e7b 00        NOP     
7e7c 00        NOP     
7e7d 00        NOP     
7e7e 00        NOP     
7e7f 00        NOP     
7e80 00        NOP     
7e81 00        NOP     
7e82 00        NOP     
7e83 00        NOP     
7e84 00        NOP     
7e85 00        NOP     
7e86 00        NOP     
7e87 00        NOP     
7e88 00        NOP     
7e89 00        NOP     
7e8a 00        NOP     
7e8b 00        NOP     
7e8c 00        NOP     
7e8d 00        NOP     
7e8e 00        NOP     
7e8f 00        NOP     
7e90 00        NOP     
7e91 00        NOP     
7e92 00        NOP     
7e93 00        NOP     
7e94 00        NOP     
7e95 00        NOP     
7e96 00        NOP     
7e97 00        NOP     
7e98 00        NOP     
7e99 00        NOP     
7e9a 00        NOP     
7e9b 00        NOP     
7e9c 00        NOP     
7e9d 00        NOP     
7e9e 00        NOP     
7e9f 00        NOP     
7ea0 00        NOP     
7ea1 00        NOP     
7ea2 00        NOP     
7ea3 00        NOP     
7ea4 00        NOP     
7ea5 00        NOP     
7ea6 00        NOP     
7ea7 00        NOP     
7ea8 00        NOP     
7ea9 00        NOP     
7eaa 00        NOP     
7eab 00        NOP     
7eac 00        NOP     
7ead 00        NOP     
7eae 00        NOP     
7eaf 00        NOP     
7eb0 00        NOP     
7eb1 00        NOP     
7eb2 00        NOP     
7eb3 00        NOP     
7eb4 00        NOP     
7eb5 00        NOP     
7eb6 00        NOP     
7eb7 00        NOP     
7eb8 00        NOP     
7eb9 00        NOP     
7eba 00        NOP     
7ebb 00        NOP     
7ebc 00        NOP     
7ebd 00        NOP     
7ebe 00        NOP     
7ebf 00        NOP     
7ec0 00        NOP     
7ec1 00        NOP     
7ec2 00        NOP     
7ec3 00        NOP     
7ec4 00        NOP     
7ec5 00        NOP     
7ec6 00        NOP     
7ec7 00        NOP     
7ec8 00        NOP     
7ec9 00        NOP     
7eca 00        NOP     
7ecb 00        NOP     
7ecc 00        NOP     
7ecd 00        NOP     
7ece 00        NOP     
7ecf 00        NOP     
7ed0 00        NOP     
7ed1 00        NOP     
7ed2 00        NOP     
7ed3 00        NOP     
7ed4 00        NOP     
7ed5 00        NOP     
7ed6 00        NOP     
7ed7 00        NOP     
7ed8 00        NOP     
7ed9 00        NOP     
7eda 00        NOP     
7edb 00        NOP     
7edc 00        NOP     
7edd 00        NOP     
7ede 00        NOP     
7edf 00        NOP     
7ee0 00        NOP     
7ee1 00        NOP     
7ee2 00        NOP     
7ee3 00        NOP     
7ee4 00        NOP     
7ee5 00        NOP     
7ee6 00        NOP     
7ee7 00        NOP     
7ee8 00        NOP     
7ee9 00        NOP     
7eea 00        NOP     
7eeb 00        NOP     
7eec 00        NOP     
7eed 00        NOP     
7eee 00        NOP     
7eef 00        NOP     
7ef0 00        NOP     
7ef1 00        NOP     
7ef2 00        NOP     
7ef3 00        NOP     
7ef4 00        NOP     
7ef5 00        NOP     
7ef6 00        NOP     
7ef7 00        NOP     
7ef8 00        NOP     
7ef9 00        NOP     
7efa 00        NOP     
7efb 00        NOP     
7efc 00        NOP     
7efd 00        NOP     
7efe 00        NOP     
7eff 00        NOP     
7f00 00        NOP     
7f01 00        NOP     
7f02 00        NOP     
7f03 00        NOP     
7f04 00        NOP     
7f05 00        NOP     
7f06 00        NOP     
7f07 00        NOP     
7f08 00        NOP     
7f09 00        NOP     
7f0a 00        NOP     
7f0b 00        NOP     
7f0c 00        NOP     
7f0d 00        NOP     
7f0e 00        NOP     
7f0f 00        NOP     
7f10 00        NOP     
7f11 00        NOP     
7f12 00        NOP     
7f13 00        NOP     
7f14 00        NOP     
7f15 00        NOP     
7f16 00        NOP     
7f17 00        NOP     
7f18 00        NOP     
7f19 00        NOP     
7f1a 00        NOP     
7f1b 00        NOP     
7f1c 00        NOP     
7f1d 00        NOP     
7f1e 00        NOP     
7f1f 00        NOP     
7f20 00        NOP     
7f21 00        NOP     
7f22 00        NOP     
7f23 00        NOP     
7f24 00        NOP     
7f25 00        NOP     
7f26 00        NOP     
7f27 00        NOP     
7f28 00        NOP     
7f29 00        NOP     
7f2a 00        NOP     
7f2b 00        NOP     
7f2c 00        NOP     
7f2d 00        NOP     
7f2e 00        NOP     
7f2f 00        NOP     
7f30 00        NOP     
7f31 00        NOP     
7f32 00        NOP     
7f33 00        NOP     
7f34 00        NOP     
7f35 00        NOP     
7f36 00        NOP     
7f37 00        NOP     
7f38 00        NOP     
7f39 00        NOP     
7f3a 00        NOP     
7f3b 00        NOP     
7f3c 00        NOP     
7f3d 00        NOP     
7f3e 00        NOP     
7f3f 00        NOP     
7f40 00        NOP     
7f41 00        NOP     
7f42 00        NOP     
7f43 00        NOP     
7f44 00        NOP     
7f45 00        NOP     
7f46 00        NOP     
7f47 00        NOP     
7f48 00        NOP     
7f49 00        NOP     
7f4a 00        NOP     
7f4b 00        NOP     
7f4c 00        NOP     
7f4d 00        NOP     
7f4e 00        NOP     
7f4f 00        NOP     
7f50 00        NOP     
7f51 00        NOP     
7f52 00        NOP     
7f53 00        NOP     
7f54 00        NOP     
7f55 00        NOP     
7f56 00        NOP     
7f57 00        NOP     
7f58 00        NOP     
7f59 00        NOP     
7f5a 00        NOP     
7f5b 00        NOP     
7f5c 00        NOP     
7f5d 00        NOP     
7f5e 00        NOP     
7f5f 00        NOP     
7f60 00        NOP     
7f61 00        NOP     
7f62 00        NOP     
7f63 00        NOP     
7f64 00        NOP     
7f65 00        NOP     
7f66 00        NOP     
7f67 00        NOP     
7f68 00        NOP     
7f69 00        NOP     
7f6a 00        NOP     
7f6b 00        NOP     
7f6c 00        NOP     
7f6d 00        NOP     
7f6e 00        NOP     
7f6f 00        NOP     
7f70 00        NOP     
7f71 00        NOP     
7f72 00        NOP     
7f73 00        NOP     
7f74 00        NOP     
7f75 00        NOP     
7f76 00        NOP     
7f77 00        NOP     
7f78 00        NOP     
7f79 00        NOP     
7f7a 00        NOP     
7f7b 00        NOP     
7f7c 00        NOP     
7f7d 00        NOP     
7f7e 00        NOP     
7f7f 00        NOP     
7f80 00        NOP     
7f81 00        NOP     
7f82 00        NOP     
7f83 00        NOP     
7f84 00        NOP     
7f85 00        NOP     
7f86 00        NOP     
7f87 00        NOP     
7f88 00        NOP     
7f89 00        NOP     
7f8a 00        NOP     
7f8b 00        NOP     
7f8c 00        NOP     
7f8d 00        NOP     
7f8e 00        NOP     
7f8f 00        NOP     
7f90 00        NOP     
7f91 00        NOP     
7f92 00        NOP     
7f93 00        NOP     
7f94 00        NOP     
7f95 00        NOP     
7f96 00        NOP     
7f97 00        NOP     
7f98 00        NOP     
7f99 00        NOP     
7f9a 00        NOP     
7f9b 00        NOP     
7f9c 00        NOP     
7f9d 00        NOP     
7f9e 00        NOP     
7f9f 00        NOP     
7fa0 00        NOP     
7fa1 00        NOP     
7fa2 00        NOP     
7fa3 00        NOP     
7fa4 00        NOP     
7fa5 00        NOP     
7fa6 00        NOP     
7fa7 00        NOP     
7fa8 00        NOP     
7fa9 00        NOP     
7faa 00        NOP     
7fab 00        NOP     
7fac 00        NOP     
7fad 00        NOP     
7fae 00        NOP     
7faf 00        NOP     
7fb0 00        NOP     
7fb1 00        NOP     
7fb2 00        NOP     
7fb3 00        NOP     
7fb4 00        NOP     
7fb5 00        NOP     
7fb6 00        NOP     
7fb7 00        NOP     
7fb8 00        NOP     
7fb9 00        NOP     
7fba 00        NOP     
7fbb 00        NOP     
7fbc 00        NOP     
7fbd 00        NOP     
7fbe 00        NOP     
7fbf 00        NOP     
7fc0 00        NOP     
7fc1 00        NOP     
7fc2 00        NOP     
7fc3 00        NOP     
7fc4 00        NOP     
7fc5 00        NOP     
7fc6 00        NOP     
7fc7 00        NOP     
7fc8 00        NOP     
7fc9 00        NOP     
7fca 00        NOP     
7fcb 00        NOP     
7fcc 00        NOP     
7fcd 00        NOP     
7fce 00        NOP     
7fcf 00        NOP     
7fd0 00        NOP     
7fd1 00        NOP     
7fd2 00        NOP     
7fd3 00        NOP     
7fd4 00        NOP     
7fd5 00        NOP     
7fd6 00        NOP     
7fd7 00        NOP     
7fd8 00        NOP     
7fd9 00        NOP     
7fda 00        NOP     
7fdb 00        NOP     
7fdc 00        NOP     
7fdd 00        NOP     
7fde 00        NOP     
7fdf 00        NOP     
7fe0 00        NOP     
7fe1 00        NOP     
7fe2 00        NOP     
7fe3 00        NOP     
7fe4 00        NOP     
7fe5 00        NOP     
7fe6 00        NOP     
7fe7 00        NOP     
7fe8 00        NOP     
7fe9 00        NOP     
7fea 00        NOP     
7feb 00        NOP     
7fec 00        NOP     
7fed 00        NOP     
7fee 00        NOP     
7fef 00        NOP     
7ff0 00        NOP     
7ff1 00        NOP     
7ff2 00        NOP     
7ff3 00        NOP     
7ff4 00        NOP     
7ff5 00        NOP     
7ff6 00        NOP     
7ff7 00        NOP     
7ff8 00        NOP     
7ff9 00        NOP     
7ffa 00        NOP     
7ffb 00        NOP     
7ffc 00        NOP     
7ffd 00        NOP     
7ffe 00        NOP     
7fff 00        NOP     
8000 00        NOP     
8001 00        NOP     
8002 00        NOP     
8003 00        NOP     
8004 00        NOP     
8005 00        NOP     
8006 00        NOP     
8007 00        NOP     
8008 00        NOP     
8009 00        NOP     
800a 00        NOP     
800b 00        NOP     
800c 00        NOP     
800d 00        NOP     
800e 00        NOP     
800f 00        NOP     
8010 00        NOP     
8011 00        NOP     
8012 00        NOP     
8013 00        NOP     
8014 00        NOP     
8015 00        NOP     
8016 00        NOP     
8017 00        NOP     
8018 00        NOP     
8019 00        NOP     
801a 00        NOP     
801b 00        NOP     
801c 00        NOP     
801d 00        NOP     
801e 00        NOP     
801f 00        NOP     
8020 00        NOP     
8021 00        NOP     
8022 00        NOP     
8023 00        NOP     
8024 00        NOP     
8025 00        NOP     
8026 00        NOP     
8027 00        NOP     
8028 00        NOP     
8029 00        NOP     
802a 00        NOP     
802b 00        NOP     
802c 00        NOP     
802d 00        NOP     
802e 00        NOP     
802f 00        NOP     
8030 00        NOP     
8031 00        NOP     
8032 00        NOP     
8033 00        NOP     
8034 00        NOP     
8035 00        NOP     
8036 00        NOP     
8037 00        NOP     
8038 00        NOP     
8039 00        NOP     
803a 00        NOP     
803b 00        NOP     
803c 00        NOP     
803d 00        NOP     
803e 00        NOP     
803f 00        NOP     
8040 00        NOP     
8041 00        NOP     
8042 00        NOP     
8043 00        NOP     
8044 00        NOP     
8045 00        NOP     
8046 00        NOP     
8047 00        NOP     
8048 00        NOP     
8049 00        NOP     
804a 00        NOP     
804b 00        NOP     
804c 00        NOP     
804d 00        NOP     
804e 00        NOP     
804f 00        NOP     
8050 00        NOP     
8051 00        NOP     
8052 00        NOP     
8053 00        NOP     
8054 00        NOP     
8055 00        NOP     
8056 00        NOP     
8057 00        NOP     
8058 00        NOP     
8059 00        NOP     
805a 00        NOP     
805b 00        NOP     
805c 00        NOP     
805d 00        NOP     
805e 00        NOP     
805f 00        NOP     
8060 00        NOP     
8061 00        NOP     
8062 00        NOP     
8063 00        NOP     
8064 00        NOP     
8065 00        NOP     
8066 00        NOP     
8067 00        NOP     
8068 00        NOP     
8069 00        NOP     
806a 00        NOP     
806b 00        NOP     
806c 00        NOP     
806d 00        NOP     
806e 00        NOP     
806f 00        NOP     
8070 00        NOP     
8071 00        NOP     
8072 00        NOP     
8073 00        NOP     
8074 00        NOP     
8075 00        NOP     
8076 00        NOP     
8077 00        NOP     
8078 00        NOP     
8079 00        NOP     
807a 00        NOP     
807b 00        NOP     
807c 00        NOP     
807d 00        NOP     
807e 00        NOP     
807f 00        NOP     
8080 00        NOP     
8081 00        NOP     
8082 00        NOP     
8083 00        NOP     
8084 00        NOP     
8085 00        NOP     
8086 00        NOP     
8087 00        NOP     
8088 00        NOP     
8089 00        NOP     
808a 00        NOP     
808b 00        NOP     
808c 00        NOP     
808d 00        NOP     
808e 00        NOP     
808f 00        NOP     
8090 00        NOP     
8091 00        NOP     
8092 00        NOP     
8093 00        NOP     
8094 00        NOP     
8095 00        NOP     
8096 00        NOP     
8097 00        NOP     
8098 00        NOP     
8099 00        NOP     
809a 00        NOP     
809b 00        NOP     
809c 00        NOP     
809d 00        NOP     
809e 00        NOP     
809f 00        NOP     
80a0 00        NOP     
80a1 00        NOP     
80a2 00        NOP     
80a3 00        NOP     
80a4 00        NOP     
80a5 00        NOP     
80a6 00        NOP     
80a7 00        NOP     
80a8 00        NOP     
80a9 00        NOP     
80aa 00        NOP     
80ab 00        NOP     
80ac 00        NOP     
80ad 00        NOP     
80ae 00        NOP     
80af 00        NOP     
80b0 00        NOP     
80b1 00        NOP     
80b2 00        NOP     
80b3 00        NOP     
80b4 00        NOP     
80b5 00        NOP     
80b6 00        NOP     
80b7 00        NOP     
80b8 00        NOP     
80b9 00        NOP     
80ba 00        NOP     
80bb 00        NOP     
80bc 00        NOP     
80bd 00        NOP     
80be 00        NOP     
80bf 00        NOP     
80c0 00        NOP     
80c1 00        NOP     
80c2 00        NOP     
80c3 00        NOP     
80c4 00        NOP     
80c5 00        NOP     
80c6 00        NOP     
80c7 00        NOP     
80c8 00        NOP     
80c9 00        NOP     
80ca 00        NOP     
80cb 00        NOP     
80cc 00        NOP     
80cd 00        NOP     
80ce 00        NOP     
80cf 00        NOP     
80d0 00        NOP     
80d1 00        NOP     
80d2 00        NOP     
80d3 00        NOP     
80d4 00        NOP     
80d5 00        NOP     
80d6 00        NOP     
80d7 00        NOP     
80d8 00        NOP     
80d9 00        NOP     
80da 00        NOP     
80db 00        NOP     
80dc 00        NOP     
80dd 00        NOP     
80de 00        NOP     
80df 00        NOP     
80e0 00        NOP     
80e1 00        NOP     
80e2 00        NOP     
80e3 00        NOP     
80e4 00        NOP     
80e5 00        NOP     
80e6 00        NOP     
80e7 00        NOP     
80e8 00        NOP     
80e9 00        NOP     
80ea 00        NOP     
80eb 00        NOP     
80ec 00        NOP     
80ed 00        NOP     
80ee 00        NOP     
80ef 00        NOP     
80f0 00        NOP     
80f1 00        NOP     
80f2 00        NOP     
80f3 00        NOP     
80f4 00        NOP     
80f5 00        NOP     
80f6 00        NOP     
80f7 00        NOP     
80f8 00        NOP     
80f9 00        NOP     
80fa 00        NOP     
80fb 00        NOP     
80fc 00        NOP     
80fd 00        NOP     
80fe 00        NOP     
80ff 00        NOP     
8100 00        NOP     
8101 00        NOP     
8102 00        NOP     
8103 00        NOP     
8104 00        NOP     
8105 00        NOP     
8106 00        NOP     
8107 00        NOP     
8108 00        NOP     
8109 00        NOP     
810a 00        NOP     
810b 00        NOP     
810c 00        NOP     
810d 00        NOP     
810e 00        NOP     
810f 00        NOP     
8110 00        NOP     
8111 00        NOP     
8112 00        NOP     
8113 00        NOP     
8114 00        NOP     
8115 00        NOP     
8116 00        NOP     
8117 00        NOP     
8118 00        NOP     
8119 00        NOP     
811a 00        NOP     
811b 00        NOP     
811c 00        NOP     
811d 00        NOP     
811e 00        NOP     
811f 00        NOP     
8120 00        NOP     
8121 00        NOP     
8122 00        NOP     
8123 00        NOP     
8124 00        NOP     
8125 00        NOP     
8126 00        NOP     
8127 00        NOP     
8128 00        NOP     
8129 00        NOP     
812a 00        NOP     
812b 00        NOP     
812c 00        NOP     
812d 00        NOP     
812e 00        NOP     
812f 00        NOP     
8130 00        NOP     
8131 00        NOP     
8132 00        NOP     
8133 00        NOP     
8134 00        NOP     
8135 00        NOP     
8136 00        NOP     
8137 00        NOP     
8138 00        NOP     
8139 00        NOP     
813a 00        NOP     
813b 00        NOP     
813c 00        NOP     
813d 00        NOP     
813e 00        NOP     
813f 00        NOP     
8140 00        NOP     
8141 00        NOP     
8142 00        NOP     
8143 00        NOP     
8144 00        NOP     
8145 00        NOP     
8146 00        NOP     
8147 00        NOP     
8148 00        NOP     
8149 00        NOP     
814a 00        NOP     
814b 00        NOP     
814c 00        NOP     
814d 00        NOP     
814e 00        NOP     
814f 00        NOP     
8150 00        NOP     
8151 00        NOP     
8152 00        NOP     
8153 00        NOP     
8154 00        NOP     
8155 00        NOP     
8156 00        NOP     
8157 00        NOP     
8158 00        NOP     
8159 00        NOP     
815a 00        NOP     
815b 00        NOP     
815c 00        NOP     
815d 00        NOP     
815e 00        NOP     
815f 00        NOP     
8160 00        NOP     
8161 00        NOP     
8162 00        NOP     
8163 00        NOP     
8164 00        NOP     
8165 00        NOP     
8166 00        NOP     
8167 00        NOP     
8168 00        NOP     
8169 00        NOP     
816a 00        NOP     
816b 00        NOP     
816c 00        NOP     
816d 00        NOP     
816e 00        NOP     
816f 00        NOP     
8170 00        NOP     
8171 00        NOP     
8172 00        NOP     
8173 00        NOP     
8174 00        NOP     
8175 00        NOP     
8176 00        NOP     
8177 00        NOP     
8178 00        NOP     
8179 00        NOP     
817a 00        NOP     
817b 00        NOP     
817c 00        NOP     
817d 00        NOP     
817e 00        NOP     
817f 00        NOP     
8180 00        NOP     
8181 00        NOP     
8182 00        NOP     
8183 00        NOP     
8184 00        NOP     
8185 00        NOP     
8186 00        NOP     
8187 00        NOP     
8188 00        NOP     
8189 00        NOP     
818a 00        NOP     
818b 00        NOP     
818c 00        NOP     
818d 00        NOP     
818e 00        NOP     
818f 00        NOP     
8190 00        NOP     
8191 00        NOP     
8192 00        NOP     
8193 00        NOP     
8194 00        NOP     
8195 00        NOP     
8196 00        NOP     
8197 00        NOP     
8198 00        NOP     
8199 00        NOP     
819a 00        NOP     
819b 00        NOP     
819c 00        NOP     
819d 00        NOP     
819e 00        NOP     
819f 00        NOP     
81a0 00        NOP     
81a1 00        NOP     
81a2 00        NOP     
81a3 00        NOP     
81a4 00        NOP     
81a5 00        NOP     
81a6 00        NOP     
81a7 00        NOP     
81a8 00        NOP     
81a9 00        NOP     
81aa 00        NOP     
81ab 00        NOP     
81ac 00        NOP     
81ad 00        NOP     
81ae 00        NOP     
81af 00        NOP     
81b0 00        NOP     
81b1 00        NOP     
81b2 00        NOP     
81b3 00        NOP     
81b4 00        NOP     
81b5 00        NOP     
81b6 00        NOP     
81b7 00        NOP     
81b8 00        NOP     
81b9 00        NOP     
81ba 00        NOP     
81bb 00        NOP     
81bc 00        NOP     
81bd 00        NOP     
81be 00        NOP     
81bf 00        NOP     
81c0 00        NOP     
81c1 00        NOP     
81c2 00        NOP     
81c3 00        NOP     
81c4 00        NOP     
81c5 00        NOP     
81c6 00        NOP     
81c7 00        NOP     
81c8 00        NOP     
81c9 00        NOP     
81ca 00        NOP     
81cb 00        NOP     
81cc 00        NOP     
81cd 00        NOP     
81ce 00        NOP     
81cf 00        NOP     
81d0 00        NOP     
81d1 00        NOP     
81d2 00        NOP     
81d3 00        NOP     
81d4 00        NOP     
81d5 00        NOP     
81d6 00        NOP     
81d7 00        NOP     
81d8 00        NOP     
81d9 00        NOP     
81da 00        NOP     
81db 00        NOP     
81dc 00        NOP     
81dd 00        NOP     
81de 00        NOP     
81df 00        NOP     
81e0 00        NOP     
81e1 00        NOP     
81e2 00        NOP     
81e3 00        NOP     
81e4 00        NOP     
81e5 00        NOP     
81e6 00        NOP     
81e7 00        NOP     
81e8 00        NOP     
81e9 00        NOP     
81ea 00        NOP     
81eb 00        NOP     
81ec 00        NOP     
81ed 00        NOP     
81ee 00        NOP     
81ef 00        NOP     
81f0 00        NOP     
81f1 00        NOP     
81f2 00        NOP     
81f3 00        NOP     
81f4 00        NOP     
81f5 00        NOP     
81f6 00        NOP     
81f7 00        NOP     
81f8 00        NOP     
81f9 00        NOP     
81fa 00        NOP     
81fb 00        NOP     
81fc 00        NOP     
81fd 00        NOP     
81fe 00        NOP     
81ff 00        NOP     
8200 00        NOP     
8201 00        NOP     
8202 00        NOP     
8203 00        NOP     
8204 00        NOP     
8205 00        NOP     
8206 00        NOP     
8207 00        NOP     
8208 00        NOP     
8209 00        NOP     
820a 00        NOP     
820b 00        NOP     
820c 00        NOP     
820d 00        NOP     
820e 00        NOP     
820f 00        NOP     
8210 00        NOP     
8211 00        NOP     
8212 00        NOP     
8213 00        NOP     
8214 00        NOP     
8215 00        NOP     
8216 00        NOP     
8217 00        NOP     
8218 00        NOP     
8219 00        NOP     
821a 00        NOP     
821b 00        NOP     
821c 00        NOP     
821d 00        NOP     
821e 00        NOP     
821f 00        NOP     
8220 00        NOP     
8221 00        NOP     
8222 00        NOP     
8223 00        NOP     
8224 00        NOP     
8225 00        NOP     
8226 00        NOP     
8227 00        NOP     
8228 00        NOP     
8229 00        NOP     
822a 00        NOP     
822b 00        NOP     
822c 00        NOP     
822d 00        NOP     
822e 00        NOP     
822f 00        NOP     
8230 00        NOP     
8231 00        NOP     
8232 00        NOP     
8233 00        NOP     
8234 00        NOP     
8235 00        NOP     
8236 00        NOP     
8237 00        NOP     
8238 00        NOP     
8239 00        NOP     
823a 00        NOP     
823b 00        NOP     
823c 00        NOP     
823d 00        NOP     
823e 00        NOP     
823f 00        NOP     
8240 00        NOP     
8241 00        NOP     
8242 00        NOP     
8243 00        NOP     
8244 00        NOP     
8245 00        NOP     
8246 00        NOP     
8247 00        NOP     
8248 00        NOP     
8249 00        NOP     
824a 00        NOP     
824b 00        NOP     
824c 00        NOP     
824d 00        NOP     
824e 00        NOP     
824f 00        NOP     
8250 00        NOP     
8251 00        NOP     
8252 00        NOP     
8253 00        NOP     
8254 00        NOP     
8255 00        NOP     
8256 00        NOP     
8257 00        NOP     
8258 00        NOP     
8259 00        NOP     
825a 00        NOP     
825b 00        NOP     
825c 00        NOP     
825d 00        NOP     
825e 00        NOP     
825f 00        NOP     
8260 00        NOP     
8261 00        NOP     
8262 00        NOP     
8263 00        NOP     
8264 00        NOP     
8265 00        NOP     
8266 00        NOP     
8267 00        NOP     
8268 00        NOP     
8269 00        NOP     
826a 00        NOP     
826b 00        NOP     
826c 00        NOP     
826d 00        NOP     
826e 00        NOP     
826f 00        NOP     
8270 00        NOP     
8271 00        NOP     
8272 00        NOP     
8273 00        NOP     
8274 00        NOP     
8275 00        NOP     
8276 00        NOP     
8277 00        NOP     
8278 00        NOP     
8279 00        NOP     
827a 00        NOP     
827b 00        NOP     
827c 00        NOP     
827d 00        NOP     
827e 00        NOP     
827f 00        NOP     
8280 00        NOP     
8281 00        NOP     
8282 00        NOP     
8283 00        NOP     
8284 00        NOP     
8285 00        NOP     
8286 00        NOP     
8287 00        NOP     
8288 00        NOP     
8289 00        NOP     
828a 00        NOP     
828b 00        NOP     
828c 00        NOP     
828d 00        NOP     
828e 00        NOP     
828f 00        NOP     
8290 00        NOP     
8291 00        NOP     
8292 00        NOP     
8293 00        NOP     
8294 00        NOP     
8295 00        NOP     
8296 00        NOP     
8297 00        NOP     
8298 00        NOP     
8299 00        NOP     
829a 00        NOP     
829b 00        NOP     
829c 00        NOP     
829d 00        NOP     
829e 00        NOP     
829f 00        NOP     
82a0 00        NOP     
82a1 00        NOP     
82a2 00        NOP     
82a3 00        NOP     
82a4 00        NOP     
82a5 00        NOP     
82a6 00        NOP     
82a7 00        NOP     
82a8 00        NOP     
82a9 00        NOP     
82aa 00        NOP     
82ab 00        NOP     
82ac 00        NOP     
82ad 00        NOP     
82ae 00        NOP     
82af 00        NOP     
82b0 00        NOP     
82b1 00        NOP     
82b2 00        NOP     
82b3 00        NOP     
82b4 00        NOP     
82b5 00        NOP     
82b6 00        NOP     
82b7 00        NOP     
82b8 00        NOP     
82b9 00        NOP     
82ba 00        NOP     
82bb 00        NOP     
82bc 00        NOP     
82bd 00        NOP     
82be 00        NOP     
82bf 00        NOP     
82c0 00        NOP     
82c1 00        NOP     
82c2 00        NOP     
82c3 00        NOP     
82c4 00        NOP     
82c5 00        NOP     
82c6 00        NOP     
82c7 00        NOP     
82c8 00        NOP     
82c9 00        NOP     
82ca 00        NOP     
82cb 00        NOP     
82cc 00        NOP     
82cd 00        NOP     
82ce 00        NOP     
82cf 00        NOP     
82d0 00        NOP     
82d1 00        NOP     
82d2 00        NOP     
82d3 00        NOP     
82d4 00        NOP     
82d5 00        NOP     
82d6 00        NOP     
82d7 00        NOP     
82d8 00        NOP     
82d9 00        NOP     
82da 00        NOP     
82db 00        NOP     
82dc 00        NOP     
82dd 00        NOP     
82de 00        NOP     
82df 00        NOP     
82e0 00        NOP     
82e1 00        NOP     
82e2 00        NOP     
82e3 00        NOP     
82e4 00        NOP     
82e5 00        NOP     
82e6 00        NOP     
82e7 00        NOP     
82e8 00        NOP     
82e9 00        NOP     
82ea 00        NOP     
82eb 00        NOP     
82ec 00        NOP     
82ed 00        NOP     
82ee 00        NOP     
82ef 00        NOP     
82f0 00        NOP     
82f1 00        NOP     
82f2 00        NOP     
82f3 00        NOP     
82f4 00        NOP     
82f5 00        NOP     
82f6 00        NOP     
82f7 00        NOP     
82f8 00        NOP     
82f9 00        NOP     
82fa 00        NOP     
82fb 00        NOP     
82fc 00        NOP     
82fd 00        NOP     
82fe 00        NOP     
82ff 00        NOP     
8300 00        NOP     
8301 00        NOP     
8302 00        NOP     
8303 00        NOP     
8304 00        NOP     
8305 00        NOP     
8306 00        NOP     
8307 00        NOP     
8308 00        NOP     
8309 00        NOP     
830a 00        NOP     
830b 00        NOP     
830c 00        NOP     
830d 00        NOP     
830e 00        NOP     
830f 00        NOP     
8310 00        NOP     
8311 00        NOP     
8312 00        NOP     
8313 00        NOP     
8314 00        NOP     
8315 00        NOP     
8316 00        NOP     
8317 00        NOP     
8318 00        NOP     
8319 00        NOP     
831a 00        NOP     
831b 00        NOP     
831c 00        NOP     
831d 00        NOP     
831e 00        NOP     
831f 00        NOP     
8320 00        NOP     
8321 00        NOP     
8322 00        NOP     
8323 00        NOP     
8324 00        NOP     
8325 00        NOP     
8326 00        NOP     
8327 00        NOP     
8328 00        NOP     
8329 00        NOP     
832a 00        NOP     
832b 00        NOP     
832c 00        NOP     
832d 00        NOP     
832e 00        NOP     
832f 00        NOP     
8330 00        NOP     
8331 00        NOP     
8332 00        NOP     
8333 00        NOP     
8334 00        NOP     
8335 00        NOP     
8336 00        NOP     
8337 00        NOP     
8338 00        NOP     
8339 00        NOP     
833a 00        NOP     
833b 00        NOP     
833c 00        NOP     
833d 00        NOP     
833e 00        NOP     
833f 00        NOP     
8340 00        NOP     
8341 00        NOP     
8342 00        NOP     
8343 00        NOP     
8344 00        NOP     
8345 00        NOP     
8346 00        NOP     
8347 00        NOP     
8348 00        NOP     
8349 00        NOP     
834a 00        NOP     
834b 00        NOP     
834c 00        NOP     
834d 00        NOP     
834e 00        NOP     
834f 00        NOP     
8350 00        NOP     
8351 00        NOP     
8352 00        NOP     
8353 00        NOP     
8354 00        NOP     
8355 00        NOP     
8356 00        NOP     
8357 00        NOP     
8358 00        NOP     
8359 00        NOP     
835a 00        NOP     
835b 00        NOP     
835c 00        NOP     
835d 00        NOP     
835e 00        NOP     
835f 00        NOP     
8360 00        NOP     
8361 00        NOP     
8362 00        NOP     
8363 00        NOP     
8364 00        NOP     
8365 00        NOP     
8366 00        NOP     
8367 00        NOP     
8368 00        NOP     
8369 00        NOP     
836a 00        NOP     
836b 00        NOP     
836c 00        NOP     
836d 00        NOP     
836e 00        NOP     
836f 00        NOP     
8370 00        NOP     
8371 00        NOP     
8372 00        NOP     
8373 00        NOP     
8374 00        NOP     
8375 00        NOP     
8376 00        NOP     
8377 00        NOP     
8378 00        NOP     
8379 00        NOP     
837a 00        NOP     
837b 00        NOP     
837c 00        NOP     
837d 00        NOP     
837e 00        NOP     
837f 00        NOP     
8380 00        NOP     
8381 00        NOP     
8382 00        NOP     
8383 00        NOP     
8384 00        NOP     
8385 00        NOP     
8386 00        NOP     
8387 00        NOP     
8388 00        NOP     
8389 00        NOP     
838a 00        NOP     
838b 00        NOP     
838c 00        NOP     
838d 00        NOP     
838e 00        NOP     
838f 00        NOP     
8390 00        NOP     
8391 00        NOP     
8392 00        NOP     
8393 00        NOP     
8394 00        NOP     
8395 00        NOP     
8396 00        NOP     
8397 00        NOP     
8398 00        NOP     
8399 00        NOP     
839a 00        NOP     
839b 00        NOP     
839c 00        NOP     
839d 00        NOP     
839e 00        NOP     
839f 00        NOP     
83a0 00        NOP     
83a1 00        NOP     
83a2 00        NOP     
83a3 00        NOP     
83a4 00        NOP     
83a5 00        NOP     
83a6 00        NOP     
83a7 00        NOP     
83a8 00        NOP     
83a9 00        NOP     
83aa 00        NOP     
83ab 00        NOP     
83ac 00        NOP     
83ad 00        NOP     
83ae 00        NOP     
83af 00        NOP     
83b0 00        NOP     
83b1 00        NOP     
83b2 00        NOP     
83b3 00        NOP     
83b4 00        NOP     
83b5 00        NOP     
83b6 00        NOP     
83b7 00        NOP     
83b8 00        NOP     
83b9 00        NOP     
83ba 00        NOP     
83bb 00        NOP     
83bc 00        NOP     
83bd 00        NOP     
83be 00        NOP     
83bf 00        NOP     
83c0 00        NOP     
83c1 00        NOP     
83c2 00        NOP     
83c3 00        NOP     
83c4 00        NOP     
83c5 00        NOP     
83c6 00        NOP     
83c7 00        NOP     
83c8 00        NOP     
83c9 00        NOP     
83ca 00        NOP     
83cb 00        NOP     
83cc 00        NOP     
83cd 00        NOP     
83ce 00        NOP     
83cf 00        NOP     
83d0 00        NOP     
83d1 00        NOP     
83d2 00        NOP     
83d3 00        NOP     
83d4 00        NOP     
83d5 00        NOP     
83d6 00        NOP     
83d7 00        NOP     
83d8 00        NOP     
83d9 00        NOP     
83da 00        NOP     
83db 00        NOP     
83dc 00        NOP     
83dd 00        NOP     
83de 00        NOP     
83df 00        NOP     
83e0 00        NOP     
83e1 00        NOP     
83e2 00        NOP     
83e3 00        NOP     
83e4 00        NOP     
83e5 00        NOP     
83e6 00        NOP     
83e7 00        NOP     
83e8 00        NOP     
83e9 00        NOP     
83ea 00        NOP     
83eb 00        NOP     
83ec 00        NOP     
83ed 00        NOP     
83ee 00        NOP     
83ef 00        NOP     
83f0 00        NOP     
83f1 00        NOP     
83f2 00        NOP     
83f3 00        NOP     
83f4 00        NOP     
83f5 00        NOP     
83f6 00        NOP     
83f7 00        NOP     
83f8 00        NOP     
83f9 00        NOP     
83fa 00        NOP     
83fb 00        NOP     
83fc 00        NOP     
83fd 00        NOP     
83fe 00        NOP     
83ff 00        NOP     
8400 00        NOP     
8401 00        NOP     
8402 00        NOP     
8403 00        NOP     
8404 00        NOP     
8405 00        NOP     
8406 00        NOP     
8407 00        NOP     
8408 00        NOP     
8409 00        NOP     
840a 00        NOP     
840b 00        NOP     
840c 00        NOP     
840d 00        NOP     
840e 00        NOP     
840f 00        NOP     
8410 00        NOP     
8411 00        NOP     
8412 00        NOP     
8413 00        NOP     
8414 00        NOP     
8415 00        NOP     
8416 00        NOP     
8417 00        NOP     
8418 00        NOP     
8419 00        NOP     
841a 00        NOP     
841b 00        NOP     
841c 00        NOP     
841d 00        NOP     
841e 00        NOP     
841f 00        NOP     
8420 00        NOP     
8421 00        NOP     
8422 00        NOP     
8423 00        NOP     
8424 00        NOP     
8425 00        NOP     
8426 00        NOP     
8427 00        NOP     
8428 00        NOP     
8429 00        NOP     
842a 00        NOP     
842b 00        NOP     
842c 00        NOP     
842d 00        NOP     
842e 00        NOP     
842f 00        NOP     
8430 00        NOP     
8431 00        NOP     
8432 00        NOP     
8433 00        NOP     
8434 00        NOP     
8435 00        NOP     
8436 00        NOP     
8437 00        NOP     
8438 00        NOP     
8439 00        NOP     
843a 00        NOP     
843b 00        NOP     
843c 00        NOP     
843d 00        NOP     
843e 00        NOP     
843f 00        NOP     
8440 00        NOP     
8441 00        NOP     
8442 00        NOP     
8443 00        NOP     
8444 00        NOP     
8445 00        NOP     
8446 00        NOP     
8447 00        NOP     
8448 00        NOP     
8449 00        NOP     
844a 00        NOP     
844b 00        NOP     
844c 00        NOP     
844d 00        NOP     
844e 00        NOP     
844f 00        NOP     
8450 00        NOP     
8451 00        NOP     
8452 00        NOP     
8453 00        NOP     
8454 00        NOP     
8455 00        NOP     
8456 00        NOP     
8457 00        NOP     
8458 00        NOP     
8459 00        NOP     
845a 00        NOP     
845b 00        NOP     
845c 00        NOP     
845d 00        NOP     
845e 00        NOP     
845f 00        NOP     
8460 00        NOP     
8461 00        NOP     
8462 00        NOP     
8463 00        NOP     
8464 00        NOP     
8465 00        NOP     
8466 00        NOP     
8467 00        NOP     
8468 00        NOP     
8469 00        NOP     
846a 00        NOP     
846b 00        NOP     
846c 00        NOP     
846d 00        NOP     
846e 00        NOP     
846f 00        NOP     
8470 00        NOP     
8471 00        NOP     
8472 00        NOP     
8473 00        NOP     
8474 00        NOP     
8475 00        NOP     
8476 00        NOP     
8477 00        NOP     
8478 00        NOP     
8479 00        NOP     
847a 00        NOP     
847b 00        NOP     
847c 00        NOP     
847d 00        NOP     
847e 00        NOP     
847f 00        NOP     
8480 00        NOP     
8481 00        NOP     
8482 00        NOP     
8483 00        NOP     
8484 00        NOP     
8485 00        NOP     
8486 00        NOP     
8487 00        NOP     
8488 00        NOP     
8489 00        NOP     
848a 00        NOP     
848b 00        NOP     
848c 00        NOP     
848d 00        NOP     
848e 00        NOP     
848f 00        NOP     
8490 00        NOP     
8491 00        NOP     
8492 00        NOP     
8493 00        NOP     
8494 00        NOP     
8495 00        NOP     
8496 00        NOP     
8497 00        NOP     
8498 00        NOP     
8499 00        NOP     
849a 00        NOP     
849b 00        NOP     
849c 00        NOP     
849d 00        NOP     
849e 00        NOP     
849f 00        NOP     
84a0 00        NOP     
84a1 00        NOP     
84a2 00        NOP     
84a3 00        NOP     
84a4 00        NOP     
84a5 00        NOP     
84a6 00        NOP     
84a7 00        NOP     
84a8 00        NOP     
84a9 00        NOP     
84aa 00        NOP     
84ab 00        NOP     
84ac 00        NOP     
84ad 00        NOP     
84ae 00        NOP     
84af 00        NOP     
84b0 00        NOP     
84b1 00        NOP     
84b2 00        NOP     
84b3 00        NOP     
84b4 00        NOP     
84b5 00        NOP     
84b6 00        NOP     
84b7 00        NOP     
84b8 00        NOP     
84b9 00        NOP     
84ba 00        NOP     
84bb 00        NOP     
84bc 00        NOP     
84bd 00        NOP     
84be 00        NOP     
84bf 00        NOP     
84c0 00        NOP     
84c1 00        NOP     
84c2 00        NOP     
84c3 00        NOP     
84c4 00        NOP     
84c5 00        NOP     
84c6 00        NOP     
84c7 00        NOP     
84c8 00        NOP     
84c9 00        NOP     
84ca 00        NOP     
84cb 00        NOP     
84cc 00        NOP     
84cd 00        NOP     
84ce 00        NOP     
84cf 00        NOP     
84d0 00        NOP     
84d1 00        NOP     
84d2 00        NOP     
84d3 00        NOP     
84d4 00        NOP     
84d5 00        NOP     
84d6 00        NOP     
84d7 00        NOP     
84d8 00        NOP     
84d9 00        NOP     
84da 00        NOP     
84db 00        NOP     
84dc 00        NOP     
84dd 00        NOP     
84de 00        NOP     
84df 00        NOP     
84e0 00        NOP     
84e1 00        NOP     
84e2 00        NOP     
84e3 00        NOP     
84e4 00        NOP     
84e5 00        NOP     
84e6 00        NOP     
84e7 00        NOP     
84e8 00        NOP     
84e9 00        NOP     
84ea 00        NOP     
84eb 00        NOP     
84ec 00        NOP     
84ed 00        NOP     
84ee 00        NOP     
84ef 00        NOP     
84f0 00        NOP     
84f1 00        NOP     
84f2 00        NOP     
84f3 00        NOP     
84f4 00        NOP     
84f5 00        NOP     
84f6 00        NOP     
84f7 00        NOP     
84f8 00        NOP     
84f9 00        NOP     
84fa 00        NOP     
84fb 00        NOP     
84fc 00        NOP     
84fd 00        NOP     
84fe 00        NOP     
84ff 00        NOP     
8500 00        NOP     
8501 00        NOP     
8502 00        NOP     
8503 00        NOP     
8504 00        NOP     
8505 00        NOP     
8506 00        NOP     
8507 00        NOP     
8508 00        NOP     
8509 00        NOP     
850a 00        NOP     
850b 00        NOP     
850c 00        NOP     
850d 00        NOP     
850e 00        NOP     
850f 00        NOP     
8510 00        NOP     
8511 00        NOP     
8512 00        NOP     
8513 00        NOP     
8514 00        NOP     
8515 00        NOP     
8516 00        NOP     
8517 00        NOP     
8518 00        NOP     
8519 00        NOP     
851a 00        NOP     
851b 00        NOP     
851c 00        NOP     
851d 00        NOP     
851e 00        NOP     
851f 00        NOP     
8520 00        NOP     
8521 00        NOP     
8522 00        NOP     
8523 00        NOP     
8524 00        NOP     
8525 00        NOP     
8526 00        NOP     
8527 00        NOP     
8528 00        NOP     
8529 00        NOP     
852a 00        NOP     
852b 00        NOP     
852c 00        NOP     
852d 00        NOP     
852e 00        NOP     
852f 00        NOP     
8530 00        NOP     
8531 00        NOP     
8532 00        NOP     
8533 00        NOP     
8534 00        NOP     
8535 00        NOP     
8536 00        NOP     
8537 00        NOP     
8538 00        NOP     
8539 00        NOP     
853a 00        NOP     
853b 00        NOP     
853c 00        NOP     
853d 00        NOP     
853e 00        NOP     
853f 00        NOP     
8540 00        NOP     
8541 00        NOP     
8542 00        NOP     
8543 00        NOP     
8544 00        NOP     
8545 00        NOP     
8546 00        NOP     
8547 00        NOP     
8548 00        NOP     
8549 00        NOP     
854a 00        NOP     
854b 00        NOP     
854c 00        NOP     
854d 00        NOP     
854e 00        NOP     
854f 00        NOP     
8550 00        NOP     
8551 00        NOP     
8552 00        NOP     
8553 00        NOP     
8554 00        NOP     
8555 00        NOP     
8556 00        NOP     
8557 00        NOP     
8558 00        NOP     
8559 00        NOP     
855a 00        NOP     
855b 00        NOP     
855c 00        NOP     
855d 00        NOP     
855e 00        NOP     
855f 00        NOP     
8560 00        NOP     
8561 00        NOP     
8562 00        NOP     
8563 00        NOP     
8564 00        NOP     
8565 00        NOP     
8566 00        NOP     
8567 00        NOP     
8568 00        NOP     
8569 00        NOP     
856a 00        NOP     
856b 00        NOP     
856c 00        NOP     
856d 00        NOP     
856e 00        NOP     
856f 00        NOP     
8570 00        NOP     
8571 00        NOP     
8572 00        NOP     
8573 00        NOP     
8574 00        NOP     
8575 00        NOP     
8576 00        NOP     
8577 00        NOP     
8578 00        NOP     
8579 00        NOP     
857a 00        NOP     
857b 00        NOP     
857c 00        NOP     
857d 00        NOP     
857e 00        NOP     
857f 00        NOP     
8580 00        NOP     
8581 00        NOP     
8582 00        NOP     
8583 00        NOP     
8584 00        NOP     
8585 00        NOP     
8586 00        NOP     
8587 00        NOP     
8588 00        NOP     
8589 00        NOP     
858a 00        NOP     
858b 00        NOP     
858c 00        NOP     
858d 00        NOP     
858e 00        NOP     
858f 00        NOP     
8590 00        NOP     
8591 00        NOP     
8592 00        NOP     
8593 00        NOP     
8594 00        NOP     
8595 00        NOP     
8596 00        NOP     
8597 00        NOP     
8598 00        NOP     
8599 00        NOP     
859a 00        NOP     
859b 00        NOP     
859c 00        NOP     
859d 00        NOP     
859e 00        NOP     
859f 00        NOP     
85a0 00        NOP     
85a1 00        NOP     
85a2 00        NOP     
85a3 00        NOP     
85a4 00        NOP     
85a5 00        NOP     
85a6 00        NOP     
85a7 00        NOP     
85a8 00        NOP     
85a9 00        NOP     
85aa 00        NOP     
85ab 00        NOP     
85ac 00        NOP     
85ad 00        NOP     
85ae 00        NOP     
85af 00        NOP     
85b0 00        NOP     
85b1 00        NOP     
85b2 00        NOP     
85b3 00        NOP     
85b4 00        NOP     
85b5 00        NOP     
85b6 00        NOP     
85b7 00        NOP     
85b8 00        NOP     
85b9 00        NOP     
85ba 00        NOP     
85bb 00        NOP     
85bc 00        NOP     
85bd 00        NOP     
85be 00        NOP     
85bf 00        NOP     
85c0 00        NOP     
85c1 00        NOP     
85c2 00        NOP     
85c3 00        NOP     
85c4 00        NOP     
85c5 00        NOP     
85c6 00        NOP     
85c7 00        NOP     
85c8 00        NOP     
85c9 00        NOP     
85ca 00        NOP     
85cb 00        NOP     
85cc 00        NOP     
85cd 00        NOP     
85ce 00        NOP     
85cf 00        NOP     
85d0 00        NOP     
85d1 00        NOP     
85d2 00        NOP     
85d3 00        NOP     
85d4 00        NOP     
85d5 00        NOP     
85d6 00        NOP     
85d7 00        NOP     
85d8 00        NOP     
85d9 00        NOP     
85da 00        NOP     
85db 00        NOP     
85dc 00        NOP     
85dd 00        NOP     
85de 00        NOP     
85df 00        NOP     
85e0 00        NOP     
85e1 00        NOP     
85e2 00        NOP     
85e3 00        NOP     
85e4 00        NOP     
85e5 00        NOP     
85e6 00        NOP     
85e7 00        NOP     
85e8 00        NOP     
85e9 00        NOP     
85ea 00        NOP     
85eb 00        NOP     
85ec 00        NOP     
85ed 00        NOP     
85ee 00        NOP     
85ef 00        NOP     
85f0 00        NOP     
85f1 00        NOP     
85f2 00        NOP     
85f3 00        NOP     
85f4 00        NOP     
85f5 00        NOP     
85f6 00        NOP     
85f7 00        NOP     
85f8 00        NOP     
85f9 00        NOP     
85fa 00        NOP     
85fb 00        NOP     
85fc 00        NOP     
85fd 00        NOP     
85fe 00        NOP     
85ff 00        NOP     
8600 00        NOP     
8601 00        NOP     
8602 00        NOP     
8603 00        NOP     
8604 00        NOP     
8605 00        NOP     
8606 00        NOP     
8607 00        NOP     
8608 00        NOP     
8609 00        NOP     
860a 00        NOP     
860b 00        NOP     
860c 00        NOP     
860d 00        NOP     
860e 00        NOP     
860f 00        NOP     
8610 00        NOP     
8611 00        NOP     
8612 00        NOP     
8613 00        NOP     
8614 00        NOP     
8615 00        NOP     
8616 00        NOP     
8617 00        NOP     
8618 00        NOP     
8619 00        NOP     
861a 00        NOP     
861b 00        NOP     
861c 00        NOP     
861d 00        NOP     
861e 00        NOP     
861f 00        NOP     
8620 00        NOP     
8621 00        NOP     
8622 00        NOP     
8623 00        NOP     
8624 00        NOP     
8625 00        NOP     
8626 00        NOP     
8627 00        NOP     
8628 00        NOP     
8629 00        NOP     
862a 00        NOP     
862b 00        NOP     
862c 00        NOP     
862d 00        NOP     
862e 00        NOP     
862f 00        NOP     
8630 00        NOP     
8631 00        NOP     
8632 00        NOP     
8633 00        NOP     
8634 00        NOP     
8635 00        NOP     
8636 00        NOP     
8637 00        NOP     
8638 00        NOP     
8639 00        NOP     
863a 00        NOP     
863b 00        NOP     
863c 00        NOP     
863d 00        NOP     
863e 00        NOP     
863f 00        NOP     
8640 00        NOP     
8641 00        NOP     
8642 00        NOP     
8643 00        NOP     
8644 00        NOP     
8645 00        NOP     
8646 00        NOP     
8647 00        NOP     
8648 00        NOP     
8649 00        NOP     
864a 00        NOP     
864b 00        NOP     
864c 00        NOP     
864d 00        NOP     
864e 00        NOP     
864f 00        NOP     
8650 00        NOP     
8651 00        NOP     
8652 00        NOP     
8653 00        NOP     
8654 00        NOP     
8655 00        NOP     
8656 00        NOP     
8657 00        NOP     
8658 00        NOP     
8659 00        NOP     
865a 00        NOP     
865b 00        NOP     
865c 00        NOP     
865d 00        NOP     
865e 00        NOP     
865f 00        NOP     
8660 00        NOP     
8661 00        NOP     
8662 00        NOP     
8663 00        NOP     
8664 00        NOP     
8665 00        NOP     
8666 00        NOP     
8667 00        NOP     
8668 00        NOP     
8669 00        NOP     
866a 00        NOP     
866b 00        NOP     
866c 00        NOP     
866d 00        NOP     
866e 00        NOP     
866f 00        NOP     
8670 00        NOP     
8671 00        NOP     
8672 00        NOP     
8673 00        NOP     
8674 00        NOP     
8675 00        NOP     
8676 00        NOP     
8677 00        NOP     
8678 00        NOP     
8679 00        NOP     
867a 00        NOP     
867b 00        NOP     
867c 00        NOP     
867d 00        NOP     
867e 00        NOP     
867f 00        NOP     
8680 00        NOP     
8681 00        NOP     
8682 00        NOP     
8683 00        NOP     
8684 00        NOP     
8685 00        NOP     
8686 00        NOP     
8687 00        NOP     
8688 00        NOP     
8689 00        NOP     
868a 00        NOP     
868b 00        NOP     
868c 00        NOP     
868d 00        NOP     
868e 00        NOP     
868f 00        NOP     
8690 00        NOP     
8691 00        NOP     
8692 00        NOP     
8693 00        NOP     
8694 00        NOP     
8695 00        NOP     
8696 00        NOP     
8697 00        NOP     
8698 00        NOP     
8699 00        NOP     
869a 00        NOP     
869b 00        NOP     
869c 00        NOP     
869d 00        NOP     
869e 00        NOP     
869f 00        NOP     
