

                ;Quality Computer Systems C Compiler
 0100           	ORG	100H
 0100 2A0600    	LHLD	6H
 0103 F9        	SPHL
 0104 CD5601    	CALL	ccshell
 0107 211001    main:	LXI	H,cc1+0
 010A E5        	PUSH	H
 010B CD9205    	CALL	puts
 010E C1        	POP	B
 010F C9        	RET
 0110 48656C6C6Fcc1:	DB	72,101,108,108,111,44,32,119,111,114,108,100
 011C 0A00      	DB	10,0
                ;Quality Computer Systems C Compiler
 011E           cc9002:	DS	2
 0120           cc9003:	DS	40
 0148           cc9004:	DS	2
 014A           cc9005:	DS	2
 014C           cc9006:	DS	2
 014E           cc9007:	DS	2
 0150           cc9008:	DS	2
 0152           cc9009:	DS	2
 0154           cc9010:	DS	2
 0156 2162FF    ccshell:	LXI	H,-158
 0159 39        	DAD	SP
 015A F9        	SPHL
 015B 218000    	LXI	H,128
 015E 225001    	SHLD	cc9008
 0161 2A5001    	LHLD	cc9008
 0164 23        	INX	H
 0165 225001    	SHLD	cc9008
 0168 2B        	DCX	H
 0169 CD321B    	CALL	ccgc
 016C 224A01    	SHLD	cc9005
 016F 211E00    	LXI	H,30
 0172 39        	DAD	SP
 0173 225201    	SHLD	cc9009
 0176 2A5201    	LHLD	cc9009
 0179 E5        	PUSH	H
 017A 211100    	LXI	H,17
 017D 39        	DAD	SP
 017E E5        	PUSH	H
 017F 210400    	LXI	H,4
 0182 39        	DAD	SP
 0183 E5        	PUSH	H
 0184 210000    	LXI	H,0
 0187 224801    	SHLD	cc9004
 018A D1        	POP	D
 018B 7D        	MOV	A,L
 018C 12        	STAX	D
 018D D1        	POP	D
 018E 7D        	MOV	A,L
 018F 12        	STAX	D
 0190 D1        	POP	D
 0191 7D        	MOV	A,L
 0192 12        	STAX	D
 0193 221E01    	SHLD	cc9002
 0196 212001    	LXI	H,cc9003
 0199 E5        	PUSH	H
 019A 2A1E01    	LHLD	cc9002
 019D 23        	INX	H
 019E 221E01    	SHLD	cc9002
 01A1 2B        	DCX	H
 01A2 29        	DAD	H
 01A3 D1        	POP	D
 01A4 19        	DAD	D
 01A5 E5        	PUSH	H
 01A6 2A5201    	LHLD	cc9009
 01A9 CD3D1B    	CALL	ccp
 01AC 210200    	LXI	H,2
 01AF 22141D    	SHLD	stderr
 01B2 210500    	LXI	H,5
 01B5 22161D    	SHLD	stdlst
 01B8 2A4A01    cc9011:	LHLD	cc9005
 01BB 2B        	DCX	H
 01BC 224A01    	SHLD	cc9005
 01BF 23        	INX	H
 01C0 7C        	MOV	A,H
 01C1 B5        	ORA	L
 01C2 CAE902    	JZ	cc9012
 01C5 2A5001    	LHLD	cc9008
 01C8 23        	INX	H
 01C9 225001    	SHLD	cc9008
 01CC 2B        	DCX	H
 01CD CD321B    	CALL	ccgc
 01D0 224E01    	SHLD	cc9007
 01D3 2A4801    	LHLD	cc9004
 01D6 C3C102    	JMP	cc9013
 01D9 2A4E01    cc9015:	LHLD	cc9007
 01DC E5        	PUSH	H
 01DD CDB01A    	CALL	isspace
 01E0 C1        	POP	B
 01E1 7C        	MOV	A,H
 01E2 B5        	ORA	L
 01E3 CAE901    	JZ	cc9016
 01E6 C3B801    	JMP	cc9011
 01E9 2A1E01    cc9016:	LHLD	cc9002
 01EC 111400    	LXI	D,20
 01EF CD671B    	CALL	cce
 01F2 CA0A02    	JZ	cc9017
 01F5 21CF1C    	LXI	H,cc9001+0
 01F8 E5        	PUSH	H
 01F9 2A141D    	LHLD	stderr
 01FC E5        	PUSH	H
 01FD CDFE09    	CALL	fputs
 0200 C1        	POP	B
 0201 C1        	POP	B
 0202 210100    	LXI	H,1
 0205 E5        	PUSH	H
 0206 CD3F04    	CALL	exit
 0209 C1        	POP	B
 020A 2A4E01    cc9017:	LHLD	cc9007
 020D 224801    	SHLD	cc9004
 0210 2A4E01    	LHLD	cc9007
 0213 113C00    	LXI	D,60
 0216 CD671B    	CALL	cce
 0219 CA2602    	JZ	cc9018
 021C 210F00    	LXI	H,15
 021F 39        	DAD	SP
 0220 225401    	SHLD	cc9010
 0223 C36202    	JMP	cc9019
 0226 2A4E01    cc9018:	LHLD	cc9007
 0229 113E00    	LXI	D,62
 022C CD671B    	CALL	cce
 022F CA3C02    	JZ	cc9020
 0232 210000    	LXI	H,0
 0235 39        	DAD	SP
 0236 225401    	SHLD	cc9010
 0239 C36202    	JMP	cc9021
 023C 212001    cc9020:	LXI	H,cc9003
 023F E5        	PUSH	H
 0240 2A1E01    	LHLD	cc9002
 0243 23        	INX	H
 0244 221E01    	SHLD	cc9002
 0247 2B        	DCX	H
 0248 29        	DAD	H
 0249 D1        	POP	D
 024A 19        	DAD	D
 024B E5        	PUSH	H
 024C 2A5201    	LHLD	cc9009
 024F 23        	INX	H
 0250 CD3D1B    	CALL	ccp
 0253 2A4E01    	LHLD	cc9007
 0256 112200    	LXI	D,34
 0259 CD721B    	CALL	ccne
 025C CA6202    	JZ	cc9022
 025F C3D802    	JMP	cc9014
                cc9022:
                cc9021:
 0262 C3B801    cc9019:	JMP	cc9011
                cc9023:
 0265 2A4E01    cc9024:	LHLD	cc9007
 0268 E5        	PUSH	H
 0269 CDB01A    	CALL	isspace
 026C C1        	POP	B
 026D 7C        	MOV	A,H
 026E B5        	ORA	L
 026F CA7B02    	JZ	cc9025
 0272 210000    	LXI	H,0
 0275 224801    	SHLD	cc9004
 0278 224E01    	SHLD	cc9007
 027B 2A5401    cc9025:	LHLD	cc9010
 027E 23        	INX	H
 027F 225401    	SHLD	cc9010
 0282 2B        	DCX	H
 0283 E5        	PUSH	H
 0284 2A4E01    	LHLD	cc9007
 0287 D1        	POP	D
 0288 7D        	MOV	A,L
 0289 12        	STAX	D
 028A C3B801    	JMP	cc9011
 028D 2A4E01    cc9026:	LHLD	cc9007
 0290 112200    	LXI	D,34
 0293 CD671B    	CALL	cce
 0296 CAA202    	JZ	cc9027
 0299 210000    	LXI	H,0
 029C 224801    	SHLD	cc9004
 029F 224E01    	SHLD	cc9007
 02A2 C3D802    cc9027:	JMP	cc9014
 02A5 2A4E01    cc9028:	LHLD	cc9007
 02A8 E5        	PUSH	H
 02A9 CDB01A    	CALL	isspace
 02AC C1        	POP	B
 02AD 7C        	MOV	A,H
 02AE B5        	ORA	L
 02AF CABB02    	JZ	cc9029
 02B2 210000    	LXI	H,0
 02B5 224801    	SHLD	cc9004
 02B8 224E01    	SHLD	cc9007
 02BB C3D802    cc9029:	JMP	cc9014
 02BE C3D802    	JMP	cc9014
 02C1 CD9D1C    cc9013:	CALL	ccsw
 02C4 0400      	DW	4
 02C6 22008D02  	DW	34,cc9026
 02CA 3E006502  	DW	62,cc9024
 02CE 3C006502  	DW	60,cc9023
 02D2 0000D901  	DW	0,cc9015
 02D6 A502      	DW	cc9028
 02D8 2A5201    cc9014:	LHLD	cc9009
 02DB 23        	INX	H
 02DC 225201    	SHLD	cc9009
 02DF E5        	PUSH	H
 02E0 2A4E01    	LHLD	cc9007
 02E3 D1        	POP	D
 02E4 7D        	MOV	A,L
 02E5 12        	STAX	D
 02E6 C3B801    	JMP	cc9011
 02E9 2A4801    cc9012:	LHLD	cc9004
 02EC 113C00    	LXI	D,60
 02EF CD671B    	CALL	cce
 02F2 C20103    	JNZ	cc9030
 02F5 2A4801    	LHLD	cc9004
 02F8 113E00    	LXI	D,62
 02FB CD671B    	CALL	cce
 02FE CA0403    	JZ	cc9031
 0301 210100    cc9030:	LXI	H,1
 0304 CA1403    cc9031:	JZ	cc9032
 0307 2A5401    	LHLD	cc9010
 030A E5        	PUSH	H
 030B 210000    	LXI	H,0
 030E D1        	POP	D
 030F 7D        	MOV	A,L
 0310 12        	STAX	D
 0311 C32203    	JMP	cc9033
 0314 2A5201    cc9032:	LHLD	cc9009
 0317 23        	INX	H
 0318 225201    	SHLD	cc9009
 031B E5        	PUSH	H
 031C 210000    	LXI	H,0
 031F D1        	POP	D
 0320 7D        	MOV	A,L
 0321 12        	STAX	D
 0322 210000    cc9033:	LXI	H,0
 0325 224C01    	SHLD	cc9006
 0328 2A4C01    cc9035:	LHLD	cc9006
 032B EB        	XCHG
 032C 210500    	LXI	H,5
 032F CD821B    	CALL	cclt
 0332 CA7403    	JZ	cc9034
 0335 C34203    	JMP	cc9036
 0338 2A4C01    cc9037:	LHLD	cc9006
 033B 23        	INX	H
 033C 224C01    	SHLD	cc9006
 033F C32803    	JMP	cc9035
 0342 21181D    cc9036:	LXI	H,cciob
 0345 E5        	PUSH	H
 0346 2A4C01    	LHLD	cc9006
 0349 110600    	LXI	D,6
 034C CD141C    	CALL	ccmult
 034F 23        	INX	H
 0350 29        	DAD	H
 0351 D1        	POP	D
 0352 19        	DAD	D
 0353 E5        	PUSH	H
 0354 21541D    	LXI	H,ccfcb
 0357 E5        	PUSH	H
 0358 2A4C01    	LHLD	cc9006
 035B 112500    	LXI	D,37
 035E CD141C    	CALL	ccmult
 0361 112400    	LXI	D,36
 0364 19        	DAD	D
 0365 D1        	POP	D
 0366 19        	DAD	D
 0367 E5        	PUSH	H
 0368 210000    	LXI	H,0
 036B D1        	POP	D
 036C 7D        	MOV	A,L
 036D 12        	STAX	D
 036E CD3D1B    	CALL	ccp
 0371 C33803    	JMP	cc9037
 0374 210F00    cc9034:	LXI	H,15
 0377 39        	DAD	SP
 0378 CD321B    	CALL	ccgc
 037B CD061C    	CALL	ccn
 037E CA8A03    	JZ	cc9038
 0381 210100    	LXI	H,1
 0384 22101D    	SHLD	stdin
 0387 C3AA03    	JMP	cc9039
 038A 210F00    cc9038:	LXI	H,15
 038D 39        	DAD	SP
 038E E5        	PUSH	H
 038F 21EB1C    	LXI	H,cc9001+28
 0392 E5        	PUSH	H
 0393 CDBA05    	CALL	fopen
 0396 C1        	POP	B
 0397 C1        	POP	B
 0398 22101D    	SHLD	stdin
 039B CD061C    	CALL	ccn
 039E CAAA03    	JZ	cc9040
 03A1 210F00    	LXI	H,15
 03A4 39        	DAD	SP
 03A5 E5        	PUSH	H
 03A6 CD1804    	CALL	cantopen
 03A9 C1        	POP	B
                cc9040:
 03AA 210000    cc9039:	LXI	H,0
 03AD 39        	DAD	SP
 03AE CD321B    	CALL	ccgc
 03B1 CD061C    	CALL	ccn
 03B4 CAC003    	JZ	cc9041
 03B7 210200    	LXI	H,2
 03BA 22121D    	SHLD	stdout
 03BD C3FD03    	JMP	cc9042
 03C0 210000    cc9041:	LXI	H,0
 03C3 39        	DAD	SP
 03C4 E5        	PUSH	H
 03C5 21ED1C    	LXI	H,cc9001+30
 03C8 E5        	PUSH	H
 03C9 CD1719    	CALL	strcmp
 03CC C1        	POP	B
 03CD C1        	POP	B
 03CE CD061C    	CALL	ccn
 03D1 CADD03    	JZ	cc9043
 03D4 210500    	LXI	H,5
 03D7 22121D    	SHLD	stdout
 03DA C3FD03    	JMP	cc9044
 03DD 210000    cc9043:	LXI	H,0
 03E0 39        	DAD	SP
 03E1 E5        	PUSH	H
 03E2 21F21C    	LXI	H,cc9001+35
 03E5 E5        	PUSH	H
 03E6 CDBA05    	CALL	fopen
 03E9 C1        	POP	B
 03EA C1        	POP	B
 03EB 22121D    	SHLD	stdout
 03EE CD061C    	CALL	ccn
 03F1 CAFD03    	JZ	cc9045
 03F4 210000    	LXI	H,0
 03F7 39        	DAD	SP
 03F8 E5        	PUSH	H
 03F9 CD1804    	CALL	cantopen
 03FC C1        	POP	B
                cc9045:
                cc9044:
 03FD 2A1E01    cc9042:	LHLD	cc9002
 0400 E5        	PUSH	H
 0401 212001    	LXI	H,cc9003
 0404 E5        	PUSH	H
 0405 CD0701    	CALL	main
 0408 C1        	POP	B
 0409 C1        	POP	B
 040A 210000    	LXI	H,0
 040D E5        	PUSH	H
 040E CD3F04    	CALL	exit
 0411 C1        	POP	B
 0412 219E00    	LXI	H,158
 0415 39        	DAD	SP
 0416 F9        	SPHL
 0417 C9        	RET
 0418 21F41C    cantopen:	LXI	H,cc9001+37
 041B E5        	PUSH	H
 041C 2A141D    	LHLD	stderr
 041F E5        	PUSH	H
 0420 CDFE09    	CALL	fputs
 0423 C1        	POP	B
 0424 C1        	POP	B
 0425 210200    	LXI	H,2
 0428 39        	DAD	SP
 0429 CD381B    	CALL	ccg
 042C E5        	PUSH	H
 042D 2A141D    	LHLD	stderr
 0430 E5        	PUSH	H
 0431 CDFE09    	CALL	fputs
 0434 C1        	POP	B
 0435 C1        	POP	B
 0436 210100    	LXI	H,1
 0439 E5        	PUSH	H
 043A CD3F04    	CALL	exit
 043D C1        	POP	B
 043E C9        	RET
 043F 2AC51C    exit:	LHLD	ccr1
 0442 E5        	PUSH	H
 0443 2AC71C    	LHLD	ccr2
 0446 E5        	PUSH	H
 0447 21181D    	LXI	H,cciob
 044A 22C51C    	SHLD	ccr1
 044D 210000    	LXI	H,0
 0450 22C71C    	SHLD	ccr2
 0453 2AC71C    cc9047:	LHLD	ccr2
 0456 EB        	XCHG
 0457 210500    	LXI	H,5
 045A CD821B    	CALL	cclt
 045D CA8204    	JZ	cc9046
 0460 C37704    	JMP	cc9048
 0463 2AC51C    cc9049:	LHLD	ccr1
 0466 110C00    	LXI	D,12
 0469 19        	DAD	D
 046A 22C51C    	SHLD	ccr1
 046D 2AC71C    	LHLD	ccr2
 0470 23        	INX	H
 0471 22C71C    	SHLD	ccr2
 0474 C35304    	JMP	cc9047
 0477 2AC51C    cc9048:	LHLD	ccr1
 047A E5        	PUSH	H
 047B CDF50A    	CALL	fclose
 047E C1        	POP	B
 047F C36304    	JMP	cc9049
 0482 210600    cc9046:	LXI	H,6
 0485 39        	DAD	SP
 0486 CD381B    	CALL	ccg
 0489 7C        	MOV	A,H
 048A B5        	ORA	L
 048B CA9604    	JZ	cc9050
 048E 21011D    	LXI	H,cc9001+50
 0491 E5        	PUSH	H
 0492 CD4D0B    	CALL	unlink
 0495 C1        	POP	B
 0496 210000    cc9050:	LXI	H,0
 0499 E5        	PUSH	H
 049A 219F04    	LXI	H,$+5
 049D E3        	XTHL
 049E E9        	PCHL
 049F E1        	POP	H
 04A0 22C71C    	SHLD	ccr2
 04A3 E1        	POP	H
 04A4 22C51C    	SHLD	ccr1
 04A7 C9        	RET
 04A8 2A101D    getchar:	LHLD	stdin
 04AB E5        	PUSH	H
 04AC CD5407    	CALL	getc
 04AF C1        	POP	B
 04B0 C9        	RET
 04B1 210200    putchar:	LXI	H,2
 04B4 39        	DAD	SP
 04B5 CD321B    	CALL	ccgc
 04B8 E5        	PUSH	H
 04B9 2A121D    	LHLD	stdout
 04BC E5        	PUSH	H
 04BD CD6C08    	CALL	putc
 04C0 C1        	POP	B
 04C1 C1        	POP	B
 04C2 C9        	RET
 04C3 2AC51C    gets:	LHLD	ccr1
 04C6 E5        	PUSH	H
 04C7 2AC71C    	LHLD	ccr2
 04CA E5        	PUSH	H
 04CB 2AC91C    	LHLD	ccr3
 04CE E5        	PUSH	H
 04CF 210800    	LXI	H,8
 04D2 39        	DAD	SP
 04D3 CD381B    	CALL	ccg
 04D6 E5        	PUSH	H
 04D7 214E00    	LXI	H,78
 04DA D1        	POP	D
 04DB 7D        	MOV	A,L
 04DC 12        	STAX	D
 04DD 210A00    	LXI	H,10
 04E0 E5        	PUSH	H
 04E1 210A00    	LXI	H,10
 04E4 39        	DAD	SP
 04E5 CD381B    	CALL	ccg
 04E8 E5        	PUSH	H
 04E9 CDBC1C    	CALL	bdos
 04EC C1        	POP	B
 04ED C1        	POP	B
 04EE 210800    	LXI	H,8
 04F1 39        	DAD	SP
 04F2 CD381B    	CALL	ccg
 04F5 23        	INX	H
 04F6 CD321B    	CALL	ccgc
 04F9 22C91C    	SHLD	ccr3
 04FC 210000    	LXI	H,0
 04FF 22C51C    	SHLD	ccr1
 0502 210200    	LXI	H,2
 0505 22C71C    	SHLD	ccr2
 0508 2AC51C    cc9051:	LHLD	ccr1
 050B EB        	XCHG
 050C 2AC91C    	LHLD	ccr3
 050F CD821B    	CALL	cclt
 0512 CA4305    	JZ	cc9052
 0515 210800    	LXI	H,8
 0518 39        	DAD	SP
 0519 CD381B    	CALL	ccg
 051C E5        	PUSH	H
 051D 2AC51C    	LHLD	ccr1
 0520 23        	INX	H
 0521 22C51C    	SHLD	ccr1
 0524 2B        	DCX	H
 0525 D1        	POP	D
 0526 19        	DAD	D
 0527 E5        	PUSH	H
 0528 210A00    	LXI	H,10
 052B 39        	DAD	SP
 052C CD381B    	CALL	ccg
 052F E5        	PUSH	H
 0530 2AC71C    	LHLD	ccr2
 0533 23        	INX	H
 0534 22C71C    	SHLD	ccr2
 0537 2B        	DCX	H
 0538 D1        	POP	D
 0539 19        	DAD	D
 053A CD321B    	CALL	ccgc
 053D D1        	POP	D
 053E 7D        	MOV	A,L
 053F 12        	STAX	D
 0540 C30805    	JMP	cc9051
 0543 210800    cc9052:	LXI	H,8
 0546 39        	DAD	SP
 0547 CD381B    	CALL	ccg
 054A EB        	XCHG
 054B 2AC51C    	LHLD	ccr1
 054E 19        	DAD	D
 054F E5        	PUSH	H
 0550 210000    	LXI	H,0
 0553 D1        	POP	D
 0554 7D        	MOV	A,L
 0555 12        	STAX	D
 0556 210200    	LXI	H,2
 0559 E5        	PUSH	H
 055A 210A00    	LXI	H,10
 055D E5        	PUSH	H
 055E CDBC1C    	CALL	bdos
 0561 C1        	POP	B
 0562 C1        	POP	B
 0563 210800    	LXI	H,8
 0566 39        	DAD	SP
 0567 CD381B    	CALL	ccg
 056A CD321B    	CALL	ccgc
 056D 111A00    	LXI	D,26
 0570 CD671B    	CALL	cce
 0573 CA7C05    	JZ	cc9053
 0576 210000    	LXI	H,0
 0579 C38305    	JMP	cc9054
 057C 210800    cc9053:	LXI	H,8
 057F 39        	DAD	SP
 0580 CD381B    	CALL	ccg
 0583 EB        cc9054:	XCHG
 0584 E1        	POP	H
 0585 22C91C    	SHLD	ccr3
 0588 E1        	POP	H
 0589 22C71C    	SHLD	ccr2
 058C E1        	POP	H
 058D 22C51C    	SHLD	ccr1
 0590 EB        	XCHG
 0591 C9        	RET
                puts:
 0592 210200    cc9055:	LXI	H,2
 0595 39        	DAD	SP
 0596 CD381B    	CALL	ccg
 0599 CD321B    	CALL	ccgc
 059C 7C        	MOV	A,H
 059D B5        	ORA	L
 059E CAB905    	JZ	cc9056
 05A1 210200    	LXI	H,2
 05A4 39        	DAD	SP
 05A5 E5        	PUSH	H
 05A6 CD381B    	CALL	ccg
 05A9 23        	INX	H
 05AA CD3D1B    	CALL	ccp
 05AD 2B        	DCX	H
 05AE CD321B    	CALL	ccgc
 05B1 E5        	PUSH	H
 05B2 CDB104    	CALL	putchar
 05B5 C1        	POP	B
 05B6 C39205    	JMP	cc9055
 05B9 C9        cc9056:	RET
 05BA 2AC51C    fopen:	LHLD	ccr1
 05BD E5        	PUSH	H
 05BE 2AC71C    	LHLD	ccr2
 05C1 E5        	PUSH	H
 05C2 2AC91C    	LHLD	ccr3
 05C5 E5        	PUSH	H
 05C6 21181D    	LXI	H,cciob
 05C9 22C51C    	SHLD	ccr1
 05CC 210000    	LXI	H,0
 05CF 22C71C    	SHLD	ccr2
 05D2 2AC71C    cc9058:	LHLD	ccr2
 05D5 EB        	XCHG
 05D6 210500    	LXI	H,5
 05D9 CD821B    	CALL	cclt
 05DC CA1706    	JZ	cc9057
 05DF C3F605    	JMP	cc9059
 05E2 2AC51C    cc9060:	LHLD	ccr1
 05E5 110C00    	LXI	D,12
 05E8 19        	DAD	D
 05E9 22C51C    	SHLD	ccr1
 05EC 2AC71C    	LHLD	ccr2
 05EF 23        	INX	H
 05F0 22C71C    	SHLD	ccr2
 05F3 C3D205    	JMP	cc9058
 05F6 2AC51C    cc9059:	LHLD	ccr1
 05F9 23        	INX	H
 05FA 23        	INX	H
 05FB CD381B    	CALL	ccg
 05FE E5        	PUSH	H
 05FF 210100    	LXI	H,1
 0602 110200    	LXI	D,2
 0605 CD491B    	CALL	cco
 0608 CD5A1B    	CALL	ccpa
 060B CD061C    	CALL	ccn
 060E CA1406    	JZ	cc9061
 0611 C31706    	JMP	cc9057
 0614 C3E205    cc9061:	JMP	cc9060
 0617 2AC71C    cc9057:	LHLD	ccr2
 061A EB        	XCHG
 061B 210500    	LXI	H,5
 061E CD941B    	CALL	ccge
 0621 CA2A06    	JZ	cc9062
 0624 210000    	LXI	H,0
 0627 C34507    	JMP	cc9063
 062A 210800    cc9062:	LXI	H,8
 062D 39        	DAD	SP
 062E CD381B    	CALL	ccg
 0631 CD321B    	CALL	ccgc
 0634 117200    	LXI	D,114
 0637 CD671B    	CALL	cce
 063A CA5406    	JZ	cc9064
 063D 210A00    	LXI	H,10
 0640 39        	DAD	SP
 0641 CD381B    	CALL	ccg
 0644 E5        	PUSH	H
 0645 210000    	LXI	H,0
 0648 E5        	PUSH	H
 0649 CDA50C    	CALL	open
 064C C1        	POP	B
 064D C1        	POP	B
 064E 22C91C    	SHLD	ccr3
 0651 C37F06    	JMP	cc9065
 0654 210800    cc9064:	LXI	H,8
 0657 39        	DAD	SP
 0658 CD381B    	CALL	ccg
 065B CD321B    	CALL	ccgc
 065E 117700    	LXI	D,119
 0661 CD671B    	CALL	cce
 0664 CA7906    	JZ	cc9066
 0667 210A00    	LXI	H,10
 066A 39        	DAD	SP
 066B CD381B    	CALL	ccg
 066E E5        	PUSH	H
 066F CD580D    	CALL	creat
 0672 C1        	POP	B
 0673 22C91C    	SHLD	ccr3
 0676 C37F06    	JMP	cc9067
 0679 210000    cc9066:	LXI	H,0
 067C C34507    	JMP	cc9063
                cc9067:
 067F 2AC91C    cc9065:	LHLD	ccr3
 0682 23        	INX	H
 0683 CD061C    	CALL	ccn
 0686 CA8F06    	JZ	cc9068
 0689 210000    	LXI	H,0
 068C C34507    	JMP	cc9063
 068F 2AC51C    cc9068:	LHLD	ccr1
 0692 23        	INX	H
 0693 23        	INX	H
 0694 CD381B    	CALL	ccg
 0697 110400    	LXI	D,4
 069A CD5D1B    	CALL	cca
 069D CD061C    	CALL	ccn
 06A0 CADB06    	JZ	cc9069
 06A3 2AC51C    	LHLD	ccr1
 06A6 110600    	LXI	D,6
 06A9 19        	DAD	D
 06AA E5        	PUSH	H
 06AB 210400    	LXI	H,4
 06AE 118000    	LXI	D,128
 06B1 CD141C    	CALL	ccmult
 06B4 E5        	PUSH	H
 06B5 CDB713    	CALL	alloc
 06B8 C1        	POP	B
 06B9 CD3D1B    	CALL	ccp
 06BC 23        	INX	H
 06BD CD061C    	CALL	ccn
 06C0 CAC906    	JZ	cc9070
 06C3 210000    	LXI	H,0
 06C6 C34507    	JMP	cc9063
 06C9 2AC51C    cc9070:	LHLD	ccr1
 06CC 23        	INX	H
 06CD 23        	INX	H
 06CE E5        	PUSH	H
 06CF CD381B    	CALL	ccg
 06D2 110400    	LXI	D,4
 06D5 CD491B    	CALL	cco
 06D8 CD3D1B    	CALL	ccp
 06DB 2AC51C    cc9069:	LHLD	ccr1
 06DE E5        	PUSH	H
 06DF 2AC51C    	LHLD	ccr1
 06E2 110600    	LXI	D,6
 06E5 19        	DAD	D
 06E6 CD381B    	CALL	ccg
 06E9 CD3D1B    	CALL	ccp
 06EC 2AC51C    	LHLD	ccr1
 06EF 23        	INX	H
 06F0 23        	INX	H
 06F1 E5        	PUSH	H
 06F2 CD381B    	CALL	ccg
 06F5 E5        	PUSH	H
 06F6 210C00    	LXI	H,12
 06F9 39        	DAD	SP
 06FA CD381B    	CALL	ccg
 06FD CD321B    	CALL	ccgc
 0700 117200    	LXI	D,114
 0703 CD671B    	CALL	cce
 0706 CA0F07    	JZ	cc9071
 0709 210100    	LXI	H,1
 070C C31207    	JMP	cc9072
 070F 210200    cc9071:	LXI	H,2
 0712 CD461B    cc9072:	CALL	ccpo
 0715 CD3D1B    	CALL	ccp
 0718 2AC51C    	LHLD	ccr1
 071B 110400    	LXI	D,4
 071E 19        	DAD	D
 071F E5        	PUSH	H
 0720 210000    	LXI	H,0
 0723 CD3D1B    	CALL	ccp
 0726 2AC51C    	LHLD	ccr1
 0729 110800    	LXI	D,8
 072C 19        	DAD	D
 072D E5        	PUSH	H
 072E 21FFFF    	LXI	H,-1
 0731 CD3D1B    	CALL	ccp
 0734 2AC51C    	LHLD	ccr1
 0737 110A00    	LXI	D,10
 073A 19        	DAD	D
 073B E5        	PUSH	H
 073C 2AC91C    	LHLD	ccr3
 073F CD3D1B    	CALL	ccp
 0742 2AC51C    	LHLD	ccr1
 0745 EB        cc9063:	XCHG
 0746 E1        	POP	H
 0747 22C91C    	SHLD	ccr3
 074A E1        	POP	H
 074B 22C71C    	SHLD	ccr2
 074E E1        	POP	H
 074F 22C51C    	SHLD	ccr1
 0752 EB        	XCHG
 0753 C9        	RET
 0754 C5        getc:	PUSH	B
 0755 2AC51C    	LHLD	ccr1
 0758 E5        	PUSH	H
 0759 2AC71C    	LHLD	ccr2
 075C E5        	PUSH	H
 075D 210800    	LXI	H,8
 0760 39        	DAD	SP
 0761 CD381B    	CALL	ccg
 0764 22C71C    	SHLD	ccr2
 0767 2B        	DCX	H
 0768 CD061C    	CALL	ccn
 076B CA9A07    	JZ	cc9073
 076E 210100    	LXI	H,1
 0771 E5        	PUSH	H
 0772 210000    	LXI	H,0
 0775 E5        	PUSH	H
 0776 CDBC1C    	CALL	bdos
 0779 C1        	POP	B
 077A C1        	POP	B
 077B 22C51C    	SHLD	ccr1
 077E 110D00    	LXI	D,13
 0781 CD671B    	CALL	cce
 0784 CA9707    	JZ	cc9074
 0787 210200    	LXI	H,2
 078A E5        	PUSH	H
 078B 210A00    	LXI	H,10
 078E 22C51C    	SHLD	ccr1
 0791 E5        	PUSH	H
 0792 CDBC1C    	CALL	bdos
 0795 C1        	POP	B
 0796 C1        	POP	B
 0797 C32908    cc9074:	JMP	cc9075
 079A 2AC71C    cc9073:	LHLD	ccr2
 079D 23        	INX	H
 079E 23        	INX	H
 079F CD381B    	CALL	ccg
 07A2 110100    	LXI	D,1
 07A5 CD5D1B    	CALL	cca
 07A8 CD061C    	CALL	ccn
 07AB C2C107    	JNZ	cc9076
 07AE 2AC71C    	LHLD	ccr2
 07B1 23        	INX	H
 07B2 23        	INX	H
 07B3 CD381B    	CALL	ccg
 07B6 110800    	LXI	D,8
 07B9 CD5D1B    	CALL	cca
 07BC 7C        	MOV	A,H
 07BD B5        	ORA	L
 07BE CAC407    	JZ	cc9077
 07C1 210100    cc9076:	LXI	H,1
 07C4 CACD07    cc9077:	JZ	cc9078
 07C7 21FFFF    	LXI	H,-1
 07CA C36008    	JMP	cc9079
 07CD 210400    cc9078:	LXI	H,4
 07D0 39        	DAD	SP
 07D1 E5        	PUSH	H
 07D2 2AC71C    	LHLD	ccr2
 07D5 E5        	PUSH	H
 07D6 CD381B    	CALL	ccg
 07D9 23        	INX	H
 07DA CD3D1B    	CALL	ccp
 07DD 2B        	DCX	H
 07DE CD3D1B    	CALL	ccp
 07E1 2AC71C    	LHLD	ccr2
 07E4 110400    	LXI	D,4
 07E7 19        	DAD	D
 07E8 E5        	PUSH	H
 07E9 CD381B    	CALL	ccg
 07EC 2B        	DCX	H
 07ED CD3D1B    	CALL	ccp
 07F0 EB        	XCHG
 07F1 210000    	LXI	H,0
 07F4 CD941B    	CALL	ccge
 07F7 CA0708    	JZ	cc9080
 07FA 210400    	LXI	H,4
 07FD 39        	DAD	SP
 07FE CD381B    	CALL	ccg
 0801 CD321B    	CALL	ccgc
 0804 C30F08    	JMP	cc9081
 0807 2AC71C    cc9080:	LHLD	ccr2
 080A E5        	PUSH	H
 080B CD9B0B    	CALL	ccfill
 080E C1        	POP	B
 080F 22C51C    cc9081:	SHLD	ccr1
 0812 2AC51C    	LHLD	ccr1
 0815 110D00    	LXI	D,13
 0818 CD671B    	CALL	cce
 081B CA2908    	JZ	cc9082
 081E 2AC71C    	LHLD	ccr2
 0821 E5        	PUSH	H
 0822 CD5407    	CALL	getc
 0825 C1        	POP	B
 0826 22C51C    	SHLD	ccr1
                cc9082:
 0829 2AC51C    cc9075:	LHLD	ccr1
 082C 111A00    	LXI	D,26
 082F CD671B    	CALL	cce
 0832 C23F08    	JNZ	cc9083
 0835 2AC51C    	LHLD	ccr1
 0838 23        	INX	H
 0839 CD061C    	CALL	ccn
 083C CA4208    	JZ	cc9084
 083F 210100    cc9083:	LXI	H,1
 0842 CA5D08    cc9084:	JZ	cc9085
 0845 2AC71C    	LHLD	ccr2
 0848 23        	INX	H
 0849 23        	INX	H
 084A E5        	PUSH	H
 084B CD381B    	CALL	ccg
 084E 110800    	LXI	D,8
 0851 CD491B    	CALL	cco
 0854 CD3D1B    	CALL	ccp
 0857 21FFFF    	LXI	H,-1
 085A C36008    	JMP	cc9079
 085D 2AC51C    cc9085:	LHLD	ccr1
 0860 EB        cc9079:	XCHG
 0861 E1        	POP	H
 0862 22C71C    	SHLD	ccr2
 0865 E1        	POP	H
 0866 22C51C    	SHLD	ccr1
 0869 C1        	POP	B
 086A EB        	XCHG
 086B C9        	RET
 086C C5        putc:	PUSH	B
 086D 2AC51C    	LHLD	ccr1
 0870 E5        	PUSH	H
 0871 210600    	LXI	H,6
 0874 39        	DAD	SP
 0875 CD381B    	CALL	ccg
 0878 22C51C    	SHLD	ccr1
 087B 210800    	LXI	H,8
 087E 39        	DAD	SP
 087F CD321B    	CALL	ccgc
 0882 110A00    	LXI	D,10
 0885 CD671B    	CALL	cce
 0888 CA9808    	JZ	cc9086
 088B 210D00    	LXI	H,13
 088E E5        	PUSH	H
 088F 2AC51C    	LHLD	ccr1
 0892 E5        	PUSH	H
 0893 CD6C08    	CALL	putc
 0896 C1        	POP	B
 0897 C1        	POP	B
 0898 2AC51C    cc9086:	LHLD	ccr1
 089B 110200    	LXI	D,2
 089E CD671B    	CALL	cce
 08A1 C2B008    	JNZ	cc9087
 08A4 2AC51C    	LHLD	ccr1
 08A7 110500    	LXI	D,5
 08AA CD671B    	CALL	cce
 08AD CAB308    	JZ	cc9088
 08B0 210100    cc9087:	LXI	H,1
 08B3 CAD108    cc9088:	JZ	cc9089
 08B6 2AC51C    	LHLD	ccr1
 08B9 E5        	PUSH	H
 08BA 210A00    	LXI	H,10
 08BD 39        	DAD	SP
 08BE CD321B    	CALL	ccgc
 08C1 E5        	PUSH	H
 08C2 CDBC1C    	CALL	bdos
 08C5 C1        	POP	B
 08C6 C1        	POP	B
 08C7 210800    	LXI	H,8
 08CA 39        	DAD	SP
 08CB CD321B    	CALL	ccgc
 08CE C34F09    	JMP	cc9090
 08D1 2AC51C    cc9089:	LHLD	ccr1
 08D4 23        	INX	H
 08D5 23        	INX	H
 08D6 CD381B    	CALL	ccg
 08D9 110200    	LXI	D,2
 08DC CD5D1B    	CALL	cca
 08DF CD061C    	CALL	ccn
 08E2 CAEB08    	JZ	cc9091
 08E5 21FFFF    	LXI	H,-1
 08E8 C34F09    	JMP	cc9090
 08EB 2AC51C    cc9091:	LHLD	ccr1
 08EE 110400    	LXI	D,4
 08F1 19        	DAD	D
 08F2 CD381B    	CALL	ccg
 08F5 E5        	PUSH	H
 08F6 210400    	LXI	H,4
 08F9 118000    	LXI	D,128
 08FC CD141C    	CALL	ccmult
 08FF CD911B    	CALL	ccpge
 0902 CA1A09    	JZ	cc9092
 0905 2AC51C    	LHLD	ccr1
 0908 E5        	PUSH	H
 0909 CD330A    	CALL	fflush
 090C C1        	POP	B
 090D 23        	INX	H
 090E CD061C    	CALL	ccn
 0911 CA1A09    	JZ	cc9093
 0914 21FFFF    	LXI	H,-1
 0917 C34F09    	JMP	cc9090
                cc9093:
 091A 2AC51C    cc9092:	LHLD	ccr1
 091D 110400    	LXI	D,4
 0920 19        	DAD	D
 0921 E5        	PUSH	H
 0922 CD381B    	CALL	ccg
 0925 23        	INX	H
 0926 CD3D1B    	CALL	ccp
 0929 210200    	LXI	H,2
 092C 39        	DAD	SP
 092D E5        	PUSH	H
 092E 2AC51C    	LHLD	ccr1
 0931 E5        	PUSH	H
 0932 CD381B    	CALL	ccg
 0935 23        	INX	H
 0936 CD3D1B    	CALL	ccp
 0939 2B        	DCX	H
 093A CD3D1B    	CALL	ccp
 093D 210200    	LXI	H,2
 0940 39        	DAD	SP
 0941 CD381B    	CALL	ccg
 0944 E5        	PUSH	H
 0945 210A00    	LXI	H,10
 0948 39        	DAD	SP
 0949 CD321B    	CALL	ccgc
 094C D1        	POP	D
 094D 7D        	MOV	A,L
 094E 12        	STAX	D
 094F EB        cc9090:	XCHG
 0950 E1        	POP	H
 0951 22C51C    	SHLD	ccr1
 0954 C1        	POP	B
 0955 EB        	XCHG
 0956 C9        	RET
 0957 2AC51C    fgets:	LHLD	ccr1
 095A E5        	PUSH	H
 095B 2AC71C    	LHLD	ccr2
 095E E5        	PUSH	H
 095F 210A00    	LXI	H,10
 0962 39        	DAD	SP
 0963 CD381B    	CALL	ccg
 0966 22C71C    	SHLD	ccr2
 0969 210800    cc9094:	LXI	H,8
 096C 39        	DAD	SP
 096D E5        	PUSH	H
 096E CD381B    	CALL	ccg
 0971 2B        	DCX	H
 0972 CD3D1B    	CALL	ccp
 0975 EB        	XCHG
 0976 210000    	LXI	H,0
 0979 CD7B1B    	CALL	ccgt
 097C CA9A09    	JZ	cc9096
 097F 210600    	LXI	H,6
 0982 39        	DAD	SP
 0983 CD381B    	CALL	ccg
 0986 E5        	PUSH	H
 0987 CD5407    	CALL	getc
 098A C1        	POP	B
 098B 22C51C    	SHLD	ccr1
 098E 11FFFF    	LXI	D,-1
 0991 CD721B    	CALL	ccne
 0994 CA9A09    	JZ	cc9096
 0997 210100    	LXI	H,1
 099A CABB09    cc9096:	JZ	cc9095
 099D 2AC71C    	LHLD	ccr2
 09A0 23        	INX	H
 09A1 22C71C    	SHLD	ccr2
 09A4 2B        	DCX	H
 09A5 E5        	PUSH	H
 09A6 2AC51C    	LHLD	ccr1
 09A9 D1        	POP	D
 09AA 7D        	MOV	A,L
 09AB 12        	STAX	D
 09AC 110A00    	LXI	D,10
 09AF CD671B    	CALL	cce
 09B2 CAB809    	JZ	cc9097
 09B5 C3BB09    	JMP	cc9095
 09B8 C36909    cc9097:	JMP	cc9094
 09BB 2AC71C    cc9095:	LHLD	ccr2
 09BE E5        	PUSH	H
 09BF 210000    	LXI	H,0
 09C2 D1        	POP	D
 09C3 7D        	MOV	A,L
 09C4 12        	STAX	D
 09C5 2AC51C    	LHLD	ccr1
 09C8 23        	INX	H
 09C9 CD061C    	CALL	ccn
 09CC CAE309    	JZ	cc9098
 09CF 2AC71C    	LHLD	ccr2
 09D2 EB        	XCHG
 09D3 210A00    	LXI	H,10
 09D6 39        	DAD	SP
 09D7 CD381B    	CALL	ccg
 09DA CD671B    	CALL	cce
 09DD CAE309    	JZ	cc9098
 09E0 210100    	LXI	H,1
 09E3 CAEC09    cc9098:	JZ	cc9099
 09E6 210000    	LXI	H,0
 09E9 C3F309    	JMP	cc9100
 09EC 210A00    cc9099:	LXI	H,10
 09EF 39        	DAD	SP
 09F0 CD381B    	CALL	ccg
 09F3 EB        cc9100:	XCHG
 09F4 E1        	POP	H
 09F5 22C71C    	SHLD	ccr2
 09F8 E1        	POP	H
 09F9 22C51C    	SHLD	ccr1
 09FC EB        	XCHG
 09FD C9        	RET
 09FE 2AC51C    fputs:	LHLD	ccr1
 0A01 E5        	PUSH	H
 0A02 210600    cc9101:	LXI	H,6
 0A05 39        	DAD	SP
 0A06 E5        	PUSH	H
 0A07 CD381B    	CALL	ccg
 0A0A 23        	INX	H
 0A0B CD3D1B    	CALL	ccp
 0A0E 2B        	DCX	H
 0A0F CD321B    	CALL	ccgc
 0A12 22C51C    	SHLD	ccr1
 0A15 7C        	MOV	A,H
 0A16 B5        	ORA	L
 0A17 CA2E0A    	JZ	cc9102
 0A1A 2AC51C    	LHLD	ccr1
 0A1D E5        	PUSH	H
 0A1E 210600    	LXI	H,6
 0A21 39        	DAD	SP
 0A22 CD381B    	CALL	ccg
 0A25 E5        	PUSH	H
 0A26 CD6C08    	CALL	putc
 0A29 C1        	POP	B
 0A2A C1        	POP	B
 0A2B C3020A    	JMP	cc9101
 0A2E E1        cc9102:	POP	H
 0A2F 22C51C    	SHLD	ccr1
 0A32 C9        	RET
 0A33 2AC51C    fflush:	LHLD	ccr1
 0A36 E5        	PUSH	H
 0A37 2AC71C    	LHLD	ccr2
 0A3A E5        	PUSH	H
 0A3B 210600    	LXI	H,6
 0A3E 39        	DAD	SP
 0A3F CD381B    	CALL	ccg
 0A42 22C51C    	SHLD	ccr1
 0A45 2AC51C    	LHLD	ccr1
 0A48 23        	INX	H
 0A49 23        	INX	H
 0A4A CD381B    	CALL	ccg
 0A4D 110200    	LXI	D,2
 0A50 CD5D1B    	CALL	cca
 0A53 CD061C    	CALL	ccn
 0A56 C26C0A    	JNZ	cc9103
 0A59 2AC51C    	LHLD	ccr1
 0A5C 23        	INX	H
 0A5D 23        	INX	H
 0A5E CD381B    	CALL	ccg
 0A61 111000    	LXI	D,16
 0A64 CD5D1B    	CALL	cca
 0A67 7C        	MOV	A,H
 0A68 B5        	ORA	L
 0A69 CA6F0A    	JZ	cc9104
 0A6C 210100    cc9103:	LXI	H,1
 0A6F CA780A    cc9104:	JZ	cc9105
 0A72 21FFFF    	LXI	H,-1
 0A75 C3EA0A    	JMP	cc9106
 0A78 2AC51C    cc9105:	LHLD	ccr1
 0A7B 110400    	LXI	D,4
 0A7E 19        	DAD	D
 0A7F CD381B    	CALL	ccg
 0A82 117F00    	LXI	D,127
 0A85 19        	DAD	D
 0A86 EB        	XCHG
 0A87 218000    	LXI	H,128
 0A8A CD371C    	CALL	ccdiv
 0A8D 22C71C    	SHLD	ccr2
 0A90 2AC51C    	LHLD	ccr1
 0A93 110400    	LXI	D,4
 0A96 19        	DAD	D
 0A97 E5        	PUSH	H
 0A98 210000    	LXI	H,0
 0A9B CD3D1B    	CALL	ccp
 0A9E 2AC51C    	LHLD	ccr1
 0AA1 110A00    	LXI	D,10
 0AA4 19        	DAD	D
 0AA5 CD381B    	CALL	ccg
 0AA8 E5        	PUSH	H
 0AA9 2AC51C    	LHLD	ccr1
 0AAC E5        	PUSH	H
 0AAD 2AC51C    	LHLD	ccr1
 0AB0 110600    	LXI	D,6
 0AB3 19        	DAD	D
 0AB4 CD381B    	CALL	ccg
 0AB7 CD3D1B    	CALL	ccp
 0ABA E5        	PUSH	H
 0ABB 2AC71C    	LHLD	ccr2
 0ABE E5        	PUSH	H
 0ABF CDCA0E    	CALL	write
 0AC2 C1        	POP	B
 0AC3 C1        	POP	B
 0AC4 C1        	POP	B
 0AC5 EB        	XCHG
 0AC6 2AC71C    	LHLD	ccr2
 0AC9 CD821B    	CALL	cclt
 0ACC CAE70A    	JZ	cc9107
 0ACF 2AC51C    	LHLD	ccr1
 0AD2 23        	INX	H
 0AD3 23        	INX	H
 0AD4 E5        	PUSH	H
 0AD5 CD381B    	CALL	ccg
 0AD8 111000    	LXI	D,16
 0ADB CD491B    	CALL	cco
 0ADE CD3D1B    	CALL	ccp
 0AE1 21FFFF    	LXI	H,-1
 0AE4 C3EA0A    	JMP	cc9106
 0AE7 210000    cc9107:	LXI	H,0
 0AEA EB        cc9106:	XCHG
 0AEB E1        	POP	H
 0AEC 22C71C    	SHLD	ccr2
 0AEF E1        	POP	H
 0AF0 22C51C    	SHLD	ccr1
 0AF3 EB        	XCHG
 0AF4 C9        	RET
 0AF5 210200    fclose:	LXI	H,2
 0AF8 39        	DAD	SP
 0AF9 CD381B    	CALL	ccg
 0AFC 23        	INX	H
 0AFD 23        	INX	H
 0AFE CD381B    	CALL	ccg
 0B01 110200    	LXI	D,2
 0B04 CD5D1B    	CALL	cca
 0B07 7C        	MOV	A,H
 0B08 B5        	ORA	L
 0B09 CA290B    	JZ	cc9108
 0B0C 211A00    	LXI	H,26
 0B0F E5        	PUSH	H
 0B10 210400    	LXI	H,4
 0B13 39        	DAD	SP
 0B14 CD381B    	CALL	ccg
 0B17 E5        	PUSH	H
 0B18 CD6C08    	CALL	putc
 0B1B C1        	POP	B
 0B1C C1        	POP	B
 0B1D 210200    	LXI	H,2
 0B20 39        	DAD	SP
 0B21 CD381B    	CALL	ccg
 0B24 E5        	PUSH	H
 0B25 CD330A    	CALL	fflush
 0B28 C1        	POP	B
 0B29 210200    cc9108:	LXI	H,2
 0B2C 39        	DAD	SP
 0B2D CD381B    	CALL	ccg
 0B30 23        	INX	H
 0B31 23        	INX	H
 0B32 E5        	PUSH	H
 0B33 210400    	LXI	H,4
 0B36 CD3D1B    	CALL	ccp
 0B39 210200    	LXI	H,2
 0B3C 39        	DAD	SP
 0B3D CD381B    	CALL	ccg
 0B40 110A00    	LXI	D,10
 0B43 19        	DAD	D
 0B44 CD381B    	CALL	ccg
 0B47 E5        	PUSH	H
 0B48 CDB30F    	CALL	close
 0B4B C1        	POP	B
 0B4C C9        	RET
 0B4D 21DCFF    unlink:	LXI	H,-36
 0B50 39        	DAD	SP
 0B51 F9        	SPHL
 0B52 212600    	LXI	H,38
 0B55 39        	DAD	SP
 0B56 CD381B    	CALL	ccg
 0B59 E5        	PUSH	H
 0B5A 210200    	LXI	H,2
 0B5D 39        	DAD	SP
 0B5E E5        	PUSH	H
 0B5F CD4510    	CALL	makfcb
 0B62 C1        	POP	B
 0B63 C1        	POP	B
 0B64 11FFFF    	LXI	D,-1
 0B67 CD721B    	CALL	ccne
 0B6A CA900B    	JZ	cc9109
 0B6D 211300    	LXI	H,19
 0B70 E5        	PUSH	H
 0B71 210200    	LXI	H,2
 0B74 39        	DAD	SP
 0B75 E5        	PUSH	H
 0B76 CDBC1C    	CALL	bdos
 0B79 C1        	POP	B
 0B7A C1        	POP	B
 0B7B 11FF00    	LXI	D,255
 0B7E CD671B    	CALL	cce
 0B81 CA8A0B    	JZ	cc9110
 0B84 21FFFF    	LXI	H,-1
 0B87 C38D0B    	JMP	cc9111
 0B8A 210100    cc9110:	LXI	H,1
 0B8D C3930B    cc9111:	JMP	cc9112
 0B90 21FFFF    cc9109:	LXI	H,-1
 0B93 EB        cc9112:	XCHG
 0B94 212400    	LXI	H,36
 0B97 39        	DAD	SP
 0B98 F9        	SPHL
 0B99 EB        	XCHG
 0B9A C9        	RET
 0B9B 2AC51C    ccfill:	LHLD	ccr1
 0B9E E5        	PUSH	H
 0B9F 2AC71C    	LHLD	ccr2
 0BA2 E5        	PUSH	H
 0BA3 2AC91C    	LHLD	ccr3
 0BA6 E5        	PUSH	H
 0BA7 210800    	LXI	H,8
 0BAA 39        	DAD	SP
 0BAB CD381B    	CALL	ccg
 0BAE 23        	INX	H
 0BAF 23        	INX	H
 0BB0 22C71C    	SHLD	ccr2
 0BB3 2AC71C    	LHLD	ccr2
 0BB6 CD381B    	CALL	ccg
 0BB9 110100    	LXI	D,1
 0BBC CD5D1B    	CALL	cca
 0BBF CD061C    	CALL	ccn
 0BC2 C2DD0B    	JNZ	cc9113
 0BC5 2AC71C    	LHLD	ccr2
 0BC8 CD381B    	CALL	ccg
 0BCB E5        	PUSH	H
 0BCC 210800    	LXI	H,8
 0BCF 111000    	LXI	D,16
 0BD2 CD491B    	CALL	cco
 0BD5 CD5A1B    	CALL	ccpa
 0BD8 7C        	MOV	A,H
 0BD9 B5        	ORA	L
 0BDA CAE00B    	JZ	cc9114
 0BDD 210100    cc9113:	LXI	H,1
 0BE0 CAE90B    cc9114:	JZ	cc9115
 0BE3 21FFFF    	LXI	H,-1
 0BE6 C3960C    	JMP	cc9116
 0BE9 210800    cc9115:	LXI	H,8
 0BEC 39        	DAD	SP
 0BED CD381B    	CALL	ccg
 0BF0 110A00    	LXI	D,10
 0BF3 19        	DAD	D
 0BF4 CD381B    	CALL	ccg
 0BF7 E5        	PUSH	H
 0BF8 210A00    	LXI	H,10
 0BFB 39        	DAD	SP
 0BFC CD381B    	CALL	ccg
 0BFF 110600    	LXI	D,6
 0C02 19        	DAD	D
 0C03 CD381B    	CALL	ccg
 0C06 22C51C    	SHLD	ccr1
 0C09 E5        	PUSH	H
 0C0A 210400    	LXI	H,4
 0C0D E5        	PUSH	H
 0C0E CDE10D    	CALL	read
 0C11 C1        	POP	B
 0C12 C1        	POP	B
 0C13 C1        	POP	B
 0C14 22C91C    	SHLD	ccr3
 0C17 2AC91C    	LHLD	ccr3
 0C1A EB        	XCHG
 0C1B 210000    	LXI	H,0
 0C1E CD8D1B    	CALL	ccle
 0C21 CA680C    	JZ	cc9117
 0C24 2AC91C    	LHLD	ccr3
 0C27 CD061C    	CALL	ccn
 0C2A CA400C    	JZ	cc9118
 0C2D 2AC71C    	LHLD	ccr2
 0C30 E5        	PUSH	H
 0C31 CD381B    	CALL	ccg
 0C34 110800    	LXI	D,8
 0C37 CD491B    	CALL	cco
 0C3A CD3D1B    	CALL	ccp
 0C3D C3500C    	JMP	cc9119
 0C40 2AC71C    cc9118:	LHLD	ccr2
 0C43 E5        	PUSH	H
 0C44 CD381B    	CALL	ccg
 0C47 111000    	LXI	D,16
 0C4A CD491B    	CALL	cco
 0C4D CD3D1B    	CALL	ccp
 0C50 210800    cc9119:	LXI	H,8
 0C53 39        	DAD	SP
 0C54 CD381B    	CALL	ccg
 0C57 110400    	LXI	D,4
 0C5A 19        	DAD	D
 0C5B E5        	PUSH	H
 0C5C 210000    	LXI	H,0
 0C5F CD3D1B    	CALL	ccp
 0C62 21FFFF    	LXI	H,-1
 0C65 C3960C    	JMP	cc9116
 0C68 210800    cc9117:	LXI	H,8
 0C6B 39        	DAD	SP
 0C6C CD381B    	CALL	ccg
 0C6F 110400    	LXI	D,4
 0C72 19        	DAD	D
 0C73 E5        	PUSH	H
 0C74 2AC91C    	LHLD	ccr3
 0C77 118000    	LXI	D,128
 0C7A CD141C    	CALL	ccmult
 0C7D 2B        	DCX	H
 0C7E CD3D1B    	CALL	ccp
 0C81 210800    	LXI	H,8
 0C84 39        	DAD	SP
 0C85 CD381B    	CALL	ccg
 0C88 E5        	PUSH	H
 0C89 2AC51C    	LHLD	ccr1
 0C8C 23        	INX	H
 0C8D CD3D1B    	CALL	ccp
 0C90 2AC51C    	LHLD	ccr1
 0C93 CD321B    	CALL	ccgc
 0C96 EB        cc9116:	XCHG
 0C97 E1        	POP	H
 0C98 22C91C    	SHLD	ccr3
 0C9B E1        	POP	H
 0C9C 22C71C    	SHLD	ccr2
 0C9F E1        	POP	H
 0CA0 22C51C    	SHLD	ccr1
 0CA3 EB        	XCHG
 0CA4 C9        	RET
 0CA5 2AC51C    open:	LHLD	ccr1
 0CA8 E5        	PUSH	H
 0CA9 2AC71C    	LHLD	ccr2
 0CAC E5        	PUSH	H
 0CAD CD6413    	CALL	ccgfd
 0CB0 22C71C    	SHLD	ccr2
 0CB3 23        	INX	H
 0CB4 CD061C    	CALL	ccn
 0CB7 CAC00C    	JZ	cc9120
 0CBA 21FFFF    	LXI	H,-1
 0CBD C34D0D    	JMP	cc9121
 0CC0 2AC71C    cc9120:	LHLD	ccr2
 0CC3 E5        	PUSH	H
 0CC4 CD2213    	CALL	ccgfcb
 0CC7 C1        	POP	B
 0CC8 22C51C    	SHLD	ccr1
 0CCB 210800    	LXI	H,8
 0CCE 39        	DAD	SP
 0CCF CD381B    	CALL	ccg
 0CD2 E5        	PUSH	H
 0CD3 2AC51C    	LHLD	ccr1
 0CD6 E5        	PUSH	H
 0CD7 CD4510    	CALL	makfcb
 0CDA C1        	POP	B
 0CDB C1        	POP	B
 0CDC 23        	INX	H
 0CDD CD061C    	CALL	ccn
 0CE0 CAE90C    	JZ	cc9122
 0CE3 21FFFF    	LXI	H,-1
 0CE6 C34D0D    	JMP	cc9121
 0CE9 210F00    cc9122:	LXI	H,15
 0CEC E5        	PUSH	H
 0CED 2AC51C    	LHLD	ccr1
 0CF0 E5        	PUSH	H
 0CF1 CDBC1C    	CALL	bdos
 0CF4 C1        	POP	B
 0CF5 C1        	POP	B
 0CF6 11FF00    	LXI	D,255
 0CF9 CD671B    	CALL	cce
 0CFC CA050D    	JZ	cc9123
 0CFF 21FFFF    	LXI	H,-1
 0D02 C34D0D    	JMP	cc9121
 0D05 210600    cc9123:	LXI	H,6
 0D08 39        	DAD	SP
 0D09 CD381B    	CALL	ccg
 0D0C EB        	XCHG
 0D0D 210000    	LXI	H,0
 0D10 CD821B    	CALL	cclt
 0D13 C2270D    	JNZ	cc9124
 0D16 210600    	LXI	H,6
 0D19 39        	DAD	SP
 0D1A CD381B    	CALL	ccg
 0D1D EB        	XCHG
 0D1E 210200    	LXI	H,2
 0D21 CD7B1B    	CALL	ccgt
 0D24 CA2A0D    	JZ	cc9125
 0D27 210100    cc9124:	LXI	H,1
 0D2A CA330D    cc9125:	JZ	cc9126
 0D2D 21FFFF    	LXI	H,-1
 0D30 C34D0D    	JMP	cc9121
 0D33 2AC51C    cc9126:	LHLD	ccr1
 0D36 112400    	LXI	D,36
 0D39 19        	DAD	D
 0D3A E5        	PUSH	H
 0D3B 210800    	LXI	H,8
 0D3E 39        	DAD	SP
 0D3F E5        	PUSH	H
 0D40 CD381B    	CALL	ccg
 0D43 23        	INX	H
 0D44 CD3D1B    	CALL	ccp
 0D47 D1        	POP	D
 0D48 7D        	MOV	A,L
 0D49 12        	STAX	D
 0D4A 2AC71C    	LHLD	ccr2
 0D4D EB        cc9121:	XCHG
 0D4E E1        	POP	H
 0D4F 22C71C    	SHLD	ccr2
 0D52 E1        	POP	H
 0D53 22C51C    	SHLD	ccr1
 0D56 EB        	XCHG
 0D57 C9        	RET
 0D58 2AC51C    creat:	LHLD	ccr1
 0D5B E5        	PUSH	H
 0D5C 2AC71C    	LHLD	ccr2
 0D5F E5        	PUSH	H
 0D60 CD6413    	CALL	ccgfd
 0D63 22C71C    	SHLD	ccr2
 0D66 23        	INX	H
 0D67 CD061C    	CALL	ccn
 0D6A CA730D    	JZ	cc9127
 0D6D 21FFFF    	LXI	H,-1
 0D70 C3D60D    	JMP	cc9128
 0D73 2AC71C    cc9127:	LHLD	ccr2
 0D76 E5        	PUSH	H
 0D77 CD2213    	CALL	ccgfcb
 0D7A C1        	POP	B
 0D7B 22C51C    	SHLD	ccr1
 0D7E 210600    	LXI	H,6
 0D81 39        	DAD	SP
 0D82 CD381B    	CALL	ccg
 0D85 E5        	PUSH	H
 0D86 2AC51C    	LHLD	ccr1
 0D89 E5        	PUSH	H
 0D8A CD4510    	CALL	makfcb
 0D8D C1        	POP	B
 0D8E C1        	POP	B
 0D8F 23        	INX	H
 0D90 CD061C    	CALL	ccn
 0D93 CA9C0D    	JZ	cc9129
 0D96 21FFFF    	LXI	H,-1
 0D99 C3D60D    	JMP	cc9128
 0D9C 211300    cc9129:	LXI	H,19
 0D9F E5        	PUSH	H
 0DA0 2AC51C    	LHLD	ccr1
 0DA3 E5        	PUSH	H
 0DA4 CDBC1C    	CALL	bdos
 0DA7 C1        	POP	B
 0DA8 C1        	POP	B
 0DA9 211600    	LXI	H,22
 0DAC E5        	PUSH	H
 0DAD 2AC51C    	LHLD	ccr1
 0DB0 E5        	PUSH	H
 0DB1 CDBC1C    	CALL	bdos
 0DB4 C1        	POP	B
 0DB5 C1        	POP	B
 0DB6 11FF00    	LXI	D,255
 0DB9 CD671B    	CALL	cce
 0DBC CAC50D    	JZ	cc9130
 0DBF 21FFFF    	LXI	H,-1
 0DC2 C3D60D    	JMP	cc9128
 0DC5 2AC51C    cc9130:	LHLD	ccr1
 0DC8 112400    	LXI	D,36
 0DCB 19        	DAD	D
 0DCC E5        	PUSH	H
 0DCD 210200    	LXI	H,2
 0DD0 D1        	POP	D
 0DD1 7D        	MOV	A,L
 0DD2 12        	STAX	D
 0DD3 2AC71C    	LHLD	ccr2
 0DD6 EB        cc9128:	XCHG
 0DD7 E1        	POP	H
 0DD8 22C71C    	SHLD	ccr2
 0DDB E1        	POP	H
 0DDC 22C51C    	SHLD	ccr1
 0DDF EB        	XCHG
 0DE0 C9        	RET
 0DE1 2AC51C    read:	LHLD	ccr1
 0DE4 E5        	PUSH	H
 0DE5 2AC71C    	LHLD	ccr2
 0DE8 E5        	PUSH	H
 0DE9 CD0F14    	CALL	ctlc
 0DEC 210A00    	LXI	H,10
 0DEF 39        	DAD	SP
 0DF0 CD381B    	CALL	ccg
 0DF3 E5        	PUSH	H
 0DF4 CD2213    	CALL	ccgfcb
 0DF7 C1        	POP	B
 0DF8 22C71C    	SHLD	ccr2
 0DFB 23        	INX	H
 0DFC CD061C    	CALL	ccn
 0DFF CA080E    	JZ	cc9131
 0E02 21FFFF    	LXI	H,-1
 0E05 C3BF0E    	JMP	cc9132
 0E08 2AC71C    cc9131:	LHLD	ccr2
 0E0B 112400    	LXI	D,36
 0E0E 19        	DAD	D
 0E0F CD321B    	CALL	ccgc
 0E12 110100    	LXI	D,1
 0E15 CD5D1B    	CALL	cca
 0E18 CD061C    	CALL	ccn
 0E1B CA240E    	JZ	cc9133
 0E1E 21FFFF    	LXI	H,-1
 0E21 C3BF0E    	JMP	cc9132
 0E24 2AC71C    cc9133:	LHLD	ccr2
 0E27 112400    	LXI	D,36
 0E2A 19        	DAD	D
 0E2B CD321B    	CALL	ccgc
 0E2E 110800    	LXI	D,8
 0E31 CD5D1B    	CALL	cca
 0E34 7C        	MOV	A,H
 0E35 B5        	ORA	L
 0E36 CA3F0E    	JZ	cc9134
 0E39 210000    	LXI	H,0
 0E3C C3BF0E    	JMP	cc9132
 0E3F 210000    cc9134:	LXI	H,0
 0E42 22C51C    	SHLD	ccr1
 0E45 2AC51C    cc9136:	LHLD	ccr1
 0E48 EB        	XCHG
 0E49 210600    	LXI	H,6
 0E4C 39        	DAD	SP
 0E4D CD381B    	CALL	ccg
 0E50 CD821B    	CALL	cclt
 0E53 CAAF0E    	JZ	cc9135
 0E56 C3630E    	JMP	cc9137
 0E59 2AC51C    cc9138:	LHLD	ccr1
 0E5C 23        	INX	H
 0E5D 22C51C    	SHLD	ccr1
 0E60 C3450E    	JMP	cc9136
 0E63 211A00    cc9137:	LXI	H,26
 0E66 E5        	PUSH	H
 0E67 210A00    	LXI	H,10
 0E6A 39        	DAD	SP
 0E6B CD381B    	CALL	ccg
 0E6E E5        	PUSH	H
 0E6F CDBC1C    	CALL	bdos
 0E72 C1        	POP	B
 0E73 C1        	POP	B
 0E74 211400    	LXI	H,20
 0E77 E5        	PUSH	H
 0E78 2AC71C    	LHLD	ccr2
 0E7B E5        	PUSH	H
 0E7C CDBC1C    	CALL	bdos
 0E7F C1        	POP	B
 0E80 C1        	POP	B
 0E81 7C        	MOV	A,H
 0E82 B5        	ORA	L
 0E83 CA9D0E    	JZ	cc9139
 0E86 2AC71C    	LHLD	ccr2
 0E89 112400    	LXI	D,36
 0E8C 19        	DAD	D
 0E8D E5        	PUSH	H
 0E8E CD321B    	CALL	ccgc
 0E91 110800    	LXI	D,8
 0E94 CD491B    	CALL	cco
 0E97 D1        	POP	D
 0E98 7D        	MOV	A,L
 0E99 12        	STAX	D
 0E9A C3AF0E    	JMP	cc9135
 0E9D 210800    cc9139:	LXI	H,8
 0EA0 39        	DAD	SP
 0EA1 E5        	PUSH	H
 0EA2 CD381B    	CALL	ccg
 0EA5 118000    	LXI	D,128
 0EA8 19        	DAD	D
 0EA9 CD3D1B    	CALL	ccp
 0EAC C3590E    	JMP	cc9138
 0EAF 211A00    cc9135:	LXI	H,26
 0EB2 E5        	PUSH	H
 0EB3 218000    	LXI	H,128
 0EB6 E5        	PUSH	H
 0EB7 CDBC1C    	CALL	bdos
 0EBA C1        	POP	B
 0EBB C1        	POP	B
 0EBC 2AC51C    	LHLD	ccr1
 0EBF EB        cc9132:	XCHG
 0EC0 E1        	POP	H
 0EC1 22C71C    	SHLD	ccr2
 0EC4 E1        	POP	H
 0EC5 22C51C    	SHLD	ccr1
 0EC8 EB        	XCHG
 0EC9 C9        	RET
 0ECA 2AC51C    write:	LHLD	ccr1
 0ECD E5        	PUSH	H
 0ECE 2AC71C    	LHLD	ccr2
 0ED1 E5        	PUSH	H
 0ED2 CD0F14    	CALL	ctlc
 0ED5 210A00    	LXI	H,10
 0ED8 39        	DAD	SP
 0ED9 CD381B    	CALL	ccg
 0EDC E5        	PUSH	H
 0EDD CD2213    	CALL	ccgfcb
 0EE0 C1        	POP	B
 0EE1 22C71C    	SHLD	ccr2
 0EE4 23        	INX	H
 0EE5 CD061C    	CALL	ccn
 0EE8 CAF10E    	JZ	cc9140
 0EEB 21FFFF    	LXI	H,-1
 0EEE C3A80F    	JMP	cc9141
 0EF1 2AC71C    cc9140:	LHLD	ccr2
 0EF4 112400    	LXI	D,36
 0EF7 19        	DAD	D
 0EF8 CD321B    	CALL	ccgc
 0EFB 110200    	LXI	D,2
 0EFE CD5D1B    	CALL	cca
 0F01 CD061C    	CALL	ccn
 0F04 C21C0F    	JNZ	cc9142
 0F07 2AC71C    	LHLD	ccr2
 0F0A 112400    	LXI	D,36
 0F0D 19        	DAD	D
 0F0E CD321B    	CALL	ccgc
 0F11 111000    	LXI	D,16
 0F14 CD5D1B    	CALL	cca
 0F17 7C        	MOV	A,H
 0F18 B5        	ORA	L
 0F19 CA1F0F    	JZ	cc9143
 0F1C 210100    cc9142:	LXI	H,1
 0F1F CA280F    cc9143:	JZ	cc9144
 0F22 21FFFF    	LXI	H,-1
 0F25 C3A80F    	JMP	cc9141
 0F28 210000    cc9144:	LXI	H,0
 0F2B 22C51C    	SHLD	ccr1
 0F2E 2AC51C    cc9146:	LHLD	ccr1
 0F31 EB        	XCHG
 0F32 210600    	LXI	H,6
 0F35 39        	DAD	SP
 0F36 CD381B    	CALL	ccg
 0F39 CD821B    	CALL	cclt
 0F3C CA980F    	JZ	cc9145
 0F3F C34C0F    	JMP	cc9147
 0F42 2AC51C    cc9148:	LHLD	ccr1
 0F45 23        	INX	H
 0F46 22C51C    	SHLD	ccr1
 0F49 C32E0F    	JMP	cc9146
 0F4C 211A00    cc9147:	LXI	H,26
 0F4F E5        	PUSH	H
 0F50 210A00    	LXI	H,10
 0F53 39        	DAD	SP
 0F54 CD381B    	CALL	ccg
 0F57 E5        	PUSH	H
 0F58 CDBC1C    	CALL	bdos
 0F5B C1        	POP	B
 0F5C C1        	POP	B
 0F5D 211500    	LXI	H,21
 0F60 E5        	PUSH	H
 0F61 2AC71C    	LHLD	ccr2
 0F64 E5        	PUSH	H
 0F65 CDBC1C    	CALL	bdos
 0F68 C1        	POP	B
 0F69 C1        	POP	B
 0F6A 7C        	MOV	A,H
 0F6B B5        	ORA	L
 0F6C CA860F    	JZ	cc9149
 0F6F 2AC71C    	LHLD	ccr2
 0F72 112400    	LXI	D,36
 0F75 19        	DAD	D
 0F76 E5        	PUSH	H
 0F77 CD321B    	CALL	ccgc
 0F7A 111000    	LXI	D,16
 0F7D CD491B    	CALL	cco
 0F80 D1        	POP	D
 0F81 7D        	MOV	A,L
 0F82 12        	STAX	D
 0F83 C3980F    	JMP	cc9145
 0F86 210800    cc9149:	LXI	H,8
 0F89 39        	DAD	SP
 0F8A E5        	PUSH	H
 0F8B CD381B    	CALL	ccg
 0F8E 118000    	LXI	D,128
 0F91 19        	DAD	D
 0F92 CD3D1B    	CALL	ccp
 0F95 C3420F    	JMP	cc9148
 0F98 211A00    cc9145:	LXI	H,26
 0F9B E5        	PUSH	H
 0F9C 218000    	LXI	H,128
 0F9F E5        	PUSH	H
 0FA0 CDBC1C    	CALL	bdos
 0FA3 C1        	POP	B
 0FA4 C1        	POP	B
 0FA5 2AC51C    	LHLD	ccr1
 0FA8 EB        cc9141:	XCHG
 0FA9 E1        	POP	H
 0FAA 22C71C    	SHLD	ccr2
 0FAD E1        	POP	H
 0FAE 22C51C    	SHLD	ccr1
 0FB1 EB        	XCHG
 0FB2 C9        	RET
 0FB3 3B        close:	DCX	SP
 0FB4 2AC51C    	LHLD	ccr1
 0FB7 E5        	PUSH	H
 0FB8 210500    	LXI	H,5
 0FBB 39        	DAD	SP
 0FBC CD381B    	CALL	ccg
 0FBF E5        	PUSH	H
 0FC0 CD2213    	CALL	ccgfcb
 0FC3 C1        	POP	B
 0FC4 22C51C    	SHLD	ccr1
 0FC7 23        	INX	H
 0FC8 CD061C    	CALL	ccn
 0FCB CAD40F    	JZ	cc9150
 0FCE 21FFFF    	LXI	H,-1
 0FD1 C33D10    	JMP	cc9151
 0FD4 210200    cc9150:	LXI	H,2
 0FD7 39        	DAD	SP
 0FD8 E5        	PUSH	H
 0FD9 2AC51C    	LHLD	ccr1
 0FDC 112400    	LXI	D,36
 0FDF 19        	DAD	D
 0FE0 CD321B    	CALL	ccgc
 0FE3 D1        	POP	D
 0FE4 7D        	MOV	A,L
 0FE5 12        	STAX	D
 0FE6 2AC51C    	LHLD	ccr1
 0FE9 112400    	LXI	D,36
 0FEC 19        	DAD	D
 0FED E5        	PUSH	H
 0FEE 210000    	LXI	H,0
 0FF1 D1        	POP	D
 0FF2 7D        	MOV	A,L
 0FF3 12        	STAX	D
 0FF4 210200    	LXI	H,2
 0FF7 39        	DAD	SP
 0FF8 CD321B    	CALL	ccgc
 0FFB 111000    	LXI	D,16
 0FFE CD5D1B    	CALL	cca
 1001 7C        	MOV	A,H
 1002 B5        	ORA	L
 1003 CA0C10    	JZ	cc9152
 1006 21FFFF    	LXI	H,-1
 1009 C33D10    	JMP	cc9151
 100C 210200    cc9152:	LXI	H,2
 100F 39        	DAD	SP
 1010 CD321B    	CALL	ccgc
 1013 110200    	LXI	D,2
 1016 CD5D1B    	CALL	cca
 1019 7C        	MOV	A,H
 101A B5        	ORA	L
 101B CA3A10    	JZ	cc9153
 101E 211000    	LXI	H,16
 1021 E5        	PUSH	H
 1022 2AC51C    	LHLD	ccr1
 1025 E5        	PUSH	H
 1026 CDBC1C    	CALL	bdos
 1029 C1        	POP	B
 102A C1        	POP	B
 102B 11FF00    	LXI	D,255
 102E CD671B    	CALL	cce
 1031 CA3A10    	JZ	cc9154
 1034 21FFFF    	LXI	H,-1
 1037 C33D10    	JMP	cc9151
                cc9154:
 103A 210000    cc9153:	LXI	H,0
 103D EB        cc9151:	XCHG
 103E E1        	POP	H
 103F 22C51C    	SHLD	ccr1
 1042 33        	INX	SP
 1043 EB        	XCHG
 1044 C9        	RET
 1045 2AC51C    makfcb:	LHLD	ccr1
 1048 E5        	PUSH	H
 1049 2AC71C    	LHLD	ccr2
 104C E5        	PUSH	H
 104D 2AC91C    	LHLD	ccr3
 1050 E5        	PUSH	H
 1051 2ACB1C    	LHLD	ccr4
 1054 E5        	PUSH	H
 1055 2ACD1C    	LHLD	ccr5
 1058 E5        	PUSH	H
 1059 210E00    	LXI	H,14
 105C 39        	DAD	SP
 105D CD381B    	CALL	ccg
 1060 22CB1C    	SHLD	ccr4
 1063 210C00    	LXI	H,12
 1066 39        	DAD	SP
 1067 CD381B    	CALL	ccg
 106A 22CD1C    	SHLD	ccr5
 106D 2ACB1C    	LHLD	ccr4
 1070 23        	INX	H
 1071 CD321B    	CALL	ccgc
 1074 113A00    	LXI	D,58
 1077 CD721B    	CALL	ccne
 107A CA8F10    	JZ	cc9155
 107D 2ACD1C    	LHLD	ccr5
 1080 23        	INX	H
 1081 22CD1C    	SHLD	ccr5
 1084 2B        	DCX	H
 1085 E5        	PUSH	H
 1086 210000    	LXI	H,0
 1089 D1        	POP	D
 108A 7D        	MOV	A,L
 108B 12        	STAX	D
 108C C3CA10    	JMP	cc9156
 108F 2ACB1C    cc9155:	LHLD	ccr4
 1092 CD321B    	CALL	ccgc
 1095 E5        	PUSH	H
 1096 CD641A    	CALL	isalpha
 1099 C1        	POP	B
 109A CD061C    	CALL	ccn
 109D CAA610    	JZ	cc9157
 10A0 21FFFF    	LXI	H,-1
 10A3 C30B13    	JMP	cc9158
 10A6 2ACD1C    cc9157:	LHLD	ccr5
 10A9 23        	INX	H
 10AA 22CD1C    	SHLD	ccr5
 10AD 2B        	DCX	H
 10AE E5        	PUSH	H
 10AF 2ACB1C    	LHLD	ccr4
 10B2 CD321B    	CALL	ccgc
 10B5 E5        	PUSH	H
 10B6 CDEE19    	CALL	chupper
 10B9 C1        	POP	B
 10BA 11BFFF    	LXI	D,-65
 10BD 19        	DAD	D
 10BE 23        	INX	H
 10BF D1        	POP	D
 10C0 7D        	MOV	A,L
 10C1 12        	STAX	D
 10C2 2ACB1C    	LHLD	ccr4
 10C5 23        	INX	H
 10C6 23        	INX	H
 10C7 22CB1C    	SHLD	ccr4
 10CA 212000    cc9156:	LXI	H,32
 10CD 22C91C    	SHLD	ccr3
 10D0 210100    	LXI	H,1
 10D3 22C51C    	SHLD	ccr1
 10D6 2AC51C    cc9160:	LHLD	ccr1
 10D9 EB        	XCHG
 10DA 210800    	LXI	H,8
 10DD CD8D1B    	CALL	ccle
 10E0 CA5811    	JZ	cc9159
 10E3 C3F010    	JMP	cc9161
 10E6 2AC51C    cc9162:	LHLD	ccr1
 10E9 23        	INX	H
 10EA 22C51C    	SHLD	ccr1
 10ED C3D610    	JMP	cc9160
 10F0 2ACB1C    cc9161:	LHLD	ccr4
 10F3 23        	INX	H
 10F4 22CB1C    	SHLD	ccr4
 10F7 2B        	DCX	H
 10F8 CD321B    	CALL	ccgc
 10FB E5        	PUSH	H
 10FC CDEE19    	CALL	chupper
 10FF C1        	POP	B
 1100 22C71C    	SHLD	ccr2
 1103 CD061C    	CALL	ccn
 1106 C21511    	JNZ	cc9163
 1109 2AC71C    	LHLD	ccr2
 110C 112E00    	LXI	D,46
 110F CD671B    	CALL	cce
 1112 CA1811    	JZ	cc9164
 1115 210100    cc9163:	LXI	H,1
 1118 CA1E11    cc9164:	JZ	cc9165
 111B C35811    	JMP	cc9159
 111E 2AC71C    cc9165:	LHLD	ccr2
 1121 EB        	XCHG
 1122 212000    	LXI	H,32
 1125 CD821B    	CALL	cclt
 1128 CA3111    	JZ	cc9166
 112B 21FFFF    	LXI	H,-1
 112E C30B13    	JMP	cc9158
 1131 2AC71C    cc9166:	LHLD	ccr2
 1134 112A00    	LXI	D,42
 1137 CD671B    	CALL	cce
 113A CA4611    	JZ	cc9167
 113D 213F00    	LXI	H,63
 1140 22C91C    	SHLD	ccr3
 1143 C35811    	JMP	cc9159
 1146 2ACD1C    cc9167:	LHLD	ccr5
 1149 23        	INX	H
 114A 22CD1C    	SHLD	ccr5
 114D 2B        	DCX	H
 114E E5        	PUSH	H
 114F 2AC71C    	LHLD	ccr2
 1152 D1        	POP	D
 1153 7D        	MOV	A,L
 1154 12        	STAX	D
 1155 C3E610    	JMP	cc9162
                cc9159:
 1158 2AC51C    cc9169:	LHLD	ccr1
 115B EB        	XCHG
 115C 210800    	LXI	H,8
 115F CD8D1B    	CALL	ccle
 1162 CA8411    	JZ	cc9168
 1165 C37211    	JMP	cc9170
 1168 2AC51C    cc9171:	LHLD	ccr1
 116B 23        	INX	H
 116C 22C51C    	SHLD	ccr1
 116F C35811    	JMP	cc9169
 1172 2ACD1C    cc9170:	LHLD	ccr5
 1175 23        	INX	H
 1176 22CD1C    	SHLD	ccr5
 1179 2B        	DCX	H
 117A E5        	PUSH	H
 117B 2AC91C    	LHLD	ccr3
 117E D1        	POP	D
 117F 7D        	MOV	A,L
 1180 12        	STAX	D
 1181 C36811    	JMP	cc9171
 1184 2AC71C    cc9168:	LHLD	ccr2
 1187 110000    	LXI	D,0
 118A CD721B    	CALL	ccne
 118D CA9F11    	JZ	cc9172
 1190 2AC71C    	LHLD	ccr2
 1193 112E00    	LXI	D,46
 1196 CD721B    	CALL	ccne
 1199 CA9F11    	JZ	cc9172
 119C 210100    	LXI	H,1
 119F CAD111    cc9172:	JZ	cc9173
 11A2 2ACB1C    	LHLD	ccr4
 11A5 23        	INX	H
 11A6 22CB1C    	SHLD	ccr4
 11A9 2B        	DCX	H
 11AA CD321B    	CALL	ccgc
 11AD 22C71C    	SHLD	ccr2
 11B0 110000    	LXI	D,0
 11B3 CD721B    	CALL	ccne
 11B6 CAC811    	JZ	cc9174
 11B9 2AC71C    	LHLD	ccr2
 11BC 112E00    	LXI	D,46
 11BF CD721B    	CALL	ccne
 11C2 CAC811    	JZ	cc9174
 11C5 210100    	LXI	H,1
 11C8 CAD111    cc9174:	JZ	cc9175
 11CB 21FFFF    	LXI	H,-1
 11CE C30B13    	JMP	cc9158
                cc9175:
 11D1 2AC71C    cc9173:	LHLD	ccr2
 11D4 7C        	MOV	A,H
 11D5 B5        	ORA	L
 11D6 CAEC11    	JZ	cc9176
 11D9 2ACB1C    	LHLD	ccr4
 11DC 23        	INX	H
 11DD 22CB1C    	SHLD	ccr4
 11E0 2B        	DCX	H
 11E1 CD321B    	CALL	ccgc
 11E4 E5        	PUSH	H
 11E5 CDEE19    	CALL	chupper
 11E8 C1        	POP	B
 11E9 22C71C    	SHLD	ccr2
 11EC 212000    cc9176:	LXI	H,32
 11EF 22C91C    	SHLD	ccr3
 11F2 2AC51C    cc9178:	LHLD	ccr1
 11F5 EB        	XCHG
 11F6 210B00    	LXI	H,11
 11F9 CD8D1B    	CALL	ccle
 11FC CA6512    	JZ	cc9177
 11FF C30C12    	JMP	cc9179
 1202 2AC51C    cc9180:	LHLD	ccr1
 1205 23        	INX	H
 1206 22C51C    	SHLD	ccr1
 1209 C3F211    	JMP	cc9178
 120C 2AC71C    cc9179:	LHLD	ccr2
 120F CD061C    	CALL	ccn
 1212 CA1812    	JZ	cc9181
 1215 C36512    	JMP	cc9177
 1218 2AC71C    cc9181:	LHLD	ccr2
 121B EB        	XCHG
 121C 212000    	LXI	H,32
 121F CD821B    	CALL	cclt
 1222 CA2B12    	JZ	cc9182
 1225 21FFFF    	LXI	H,-1
 1228 C30B13    	JMP	cc9158
 122B 2AC71C    cc9182:	LHLD	ccr2
 122E 112A00    	LXI	D,42
 1231 CD671B    	CALL	cce
 1234 CA4012    	JZ	cc9183
 1237 213F00    	LXI	H,63
 123A 22C91C    	SHLD	ccr3
 123D C36512    	JMP	cc9177
 1240 2ACD1C    cc9183:	LHLD	ccr5
 1243 23        	INX	H
 1244 22CD1C    	SHLD	ccr5
 1247 2B        	DCX	H
 1248 E5        	PUSH	H
 1249 2AC71C    	LHLD	ccr2
 124C D1        	POP	D
 124D 7D        	MOV	A,L
 124E 12        	STAX	D
 124F 2ACB1C    	LHLD	ccr4
 1252 23        	INX	H
 1253 22CB1C    	SHLD	ccr4
 1256 2B        	DCX	H
 1257 CD321B    	CALL	ccgc
 125A E5        	PUSH	H
 125B CDEE19    	CALL	chupper
 125E C1        	POP	B
 125F 22C71C    	SHLD	ccr2
 1262 C30212    	JMP	cc9180
 1265 2AC71C    cc9177:	LHLD	ccr2
 1268 110000    	LXI	D,0
 126B CD721B    	CALL	ccne
 126E CA8012    	JZ	cc9184
 1271 2AC51C    	LHLD	ccr1
 1274 110B00    	LXI	D,11
 1277 CD671B    	CALL	cce
 127A CA8012    	JZ	cc9184
 127D 210100    	LXI	H,1
 1280 C28F12    cc9184:	JNZ	cc9185
 1283 2AC71C    	LHLD	ccr2
 1286 112A00    	LXI	D,42
 1289 CD671B    	CALL	cce
 128C CA9212    	JZ	cc9186
 128F 210100    cc9185:	LXI	H,1
 1292 CA9E12    cc9186:	JZ	cc9187
 1295 2ACB1C    	LHLD	ccr4
 1298 CD321B    	CALL	ccgc
 129B 22C71C    	SHLD	ccr2
 129E 2AC71C    cc9187:	LHLD	ccr2
 12A1 110000    	LXI	D,0
 12A4 CD721B    	CALL	ccne
 12A7 CAB012    	JZ	cc9188
 12AA 21FFFF    	LXI	H,-1
 12AD C30B13    	JMP	cc9158
                cc9188:
 12B0 2AC51C    cc9190:	LHLD	ccr1
 12B3 EB        	XCHG
 12B4 210B00    	LXI	H,11
 12B7 CD8D1B    	CALL	ccle
 12BA CADC12    	JZ	cc9189
 12BD C3CA12    	JMP	cc9191
 12C0 2AC51C    cc9192:	LHLD	ccr1
 12C3 23        	INX	H
 12C4 22C51C    	SHLD	ccr1
 12C7 C3B012    	JMP	cc9190
 12CA 2ACD1C    cc9191:	LHLD	ccr5
 12CD 23        	INX	H
 12CE 22CD1C    	SHLD	ccr5
 12D1 2B        	DCX	H
 12D2 E5        	PUSH	H
 12D3 2AC91C    	LHLD	ccr3
 12D6 D1        	POP	D
 12D7 7D        	MOV	A,L
 12D8 12        	STAX	D
 12D9 C3C012    	JMP	cc9192
                cc9189:
 12DC 2AC51C    cc9194:	LHLD	ccr1
 12DF EB        	XCHG
 12E0 212400    	LXI	H,36
 12E3 CD821B    	CALL	cclt
 12E6 CA0813    	JZ	cc9193
 12E9 C3F612    	JMP	cc9195
 12EC 2AC51C    cc9196:	LHLD	ccr1
 12EF 23        	INX	H
 12F0 22C51C    	SHLD	ccr1
 12F3 C3DC12    	JMP	cc9194
 12F6 2ACD1C    cc9195:	LHLD	ccr5
 12F9 23        	INX	H
 12FA 22CD1C    	SHLD	ccr5
 12FD 2B        	DCX	H
 12FE E5        	PUSH	H
 12FF 210000    	LXI	H,0
 1302 D1        	POP	D
 1303 7D        	MOV	A,L
 1304 12        	STAX	D
 1305 C3EC12    	JMP	cc9196
 1308 210100    cc9193:	LXI	H,1
 130B EB        cc9158:	XCHG
 130C E1        	POP	H
 130D 22CD1C    	SHLD	ccr5
 1310 E1        	POP	H
 1311 22CB1C    	SHLD	ccr4
 1314 E1        	POP	H
 1315 22C91C    	SHLD	ccr3
 1318 E1        	POP	H
 1319 22C71C    	SHLD	ccr2
 131C E1        	POP	H
 131D 22C51C    	SHLD	ccr1
 1320 EB        	XCHG
 1321 C9        	RET
 1322 210200    ccgfcb:	LXI	H,2
 1325 39        	DAD	SP
 1326 CD381B    	CALL	ccg
 1329 EB        	XCHG
 132A 210000    	LXI	H,0
 132D CD941B    	CALL	ccge
 1330 CA4713    	JZ	cc9197
 1333 210200    	LXI	H,2
 1336 39        	DAD	SP
 1337 CD381B    	CALL	ccg
 133A EB        	XCHG
 133B 210500    	LXI	H,5
 133E CD821B    	CALL	cclt
 1341 CA4713    	JZ	cc9197
 1344 210100    	LXI	H,1
 1347 CA6013    cc9197:	JZ	cc9198
 134A 21541D    	LXI	H,ccfcb
 134D E5        	PUSH	H
 134E 210400    	LXI	H,4
 1351 39        	DAD	SP
 1352 CD381B    	CALL	ccg
 1355 112500    	LXI	D,37
 1358 CD141C    	CALL	ccmult
 135B D1        	POP	D
 135C 19        	DAD	D
 135D C36313    	JMP	cc9199
 1360 21FFFF    cc9198:	LXI	H,-1
 1363 C9        cc9199:	RET
 1364 C5        ccgfd:	PUSH	B
 1365 2AC51C    	LHLD	ccr1
 1368 E5        	PUSH	H
 1369 210000    	LXI	H,0
 136C 22C51C    	SHLD	ccr1
 136F 210200    cc9200:	LXI	H,2
 1372 39        	DAD	SP
 1373 E5        	PUSH	H
 1374 2AC51C    	LHLD	ccr1
 1377 E5        	PUSH	H
 1378 CD2213    	CALL	ccgfcb
 137B C1        	POP	B
 137C CD3D1B    	CALL	ccp
 137F 11FFFF    	LXI	D,-1
 1382 CD721B    	CALL	ccne
 1385 CAAC13    	JZ	cc9201
 1388 210200    	LXI	H,2
 138B 39        	DAD	SP
 138C CD381B    	CALL	ccg
 138F 112400    	LXI	D,36
 1392 19        	DAD	D
 1393 CD321B    	CALL	ccgc
 1396 CD061C    	CALL	ccn
 1399 CAA213    	JZ	cc9202
 139C 2AC51C    	LHLD	ccr1
 139F C3AF13    	JMP	cc9203
 13A2 2AC51C    cc9202:	LHLD	ccr1
 13A5 23        	INX	H
 13A6 22C51C    	SHLD	ccr1
 13A9 C36F13    	JMP	cc9200
 13AC 21FFFF    cc9201:	LXI	H,-1
 13AF EB        cc9203:	XCHG
 13B0 E1        	POP	H
 13B1 22C51C    	SHLD	ccr1
 13B4 C1        	POP	B
 13B5 EB        	XCHG
 13B6 C9        	RET
 13B7 3B        alloc:	DCX	SP
 13B8 210300    	LXI	H,3
 13BB 39        	DAD	SP
 13BC CD381B    	CALL	ccg
 13BF EB        	XCHG
 13C0 210000    	LXI	H,0
 13C3 CD821B    	CALL	cclt
 13C6 C2E413    	JNZ	cc9204
 13C9 2A0D1E    	LHLD	ccfree
 13CC EB        	XCHG
 13CD 210300    	LXI	H,3
 13D0 39        	DAD	SP
 13D1 CD381B    	CALL	ccg
 13D4 19        	DAD	D
 13D5 E5        	PUSH	H
 13D6 210200    	LXI	H,2
 13D9 39        	DAD	SP
 13DA 1118FC    	LXI	D,-1000
 13DD 19        	DAD	D
 13DE CD9C1B    	CALL	ccpugt
 13E1 CAE713    	JZ	cc9205
 13E4 210100    cc9204:	LXI	H,1
 13E7 CAF013    cc9205:	JZ	cc9206
 13EA 210000    	LXI	H,0
 13ED C30D14    	JMP	cc9207
 13F0 2A0D1E    cc9206:	LHLD	ccfree
 13F3 EB        	XCHG
 13F4 210300    	LXI	H,3
 13F7 39        	DAD	SP
 13F8 CD381B    	CALL	ccg
 13FB 19        	DAD	D
 13FC 220D1E    	SHLD	ccfree
 13FF 2A0D1E    	LHLD	ccfree
 1402 EB        	XCHG
 1403 210300    	LXI	H,3
 1406 39        	DAD	SP
 1407 CD381B    	CALL	ccg
 140A CDF31B    	CALL	ccs
 140D 33        cc9207:	INX	SP
 140E C9        	RET
 140F 210C00    ctlc:	LXI	H,12
 1412 E5        	PUSH	H
 1413 210000    	LXI	H,0
 1416 E5        	PUSH	H
 1417 CDBC1C    	CALL	bdos
 141A C1        	POP	B
 141B C1        	POP	B
 141C EB        	XCHG
 141D 212000    	LXI	H,32
 1420 CD941B    	CALL	ccge
 1423 CA3F14    	JZ	cc9208
 1426 210600    	LXI	H,6
 1429 E5        	PUSH	H
 142A 21FF00    	LXI	H,255
 142D E5        	PUSH	H
 142E CDBC1C    	CALL	bdos
 1431 C1        	POP	B
 1432 C1        	POP	B
 1433 110300    	LXI	D,3
 1436 CD671B    	CALL	cce
 1439 CA3F14    	JZ	cc9208
 143C 210100    	LXI	H,1
 143F CA4A14    cc9208:	JZ	cc9209
 1442 210100    	LXI	H,1
 1445 E5        	PUSH	H
 1446 CD3F04    	CALL	exit
 1449 C1        	POP	B
 144A C9        cc9209:	RET
 144B 2AC51C    index:	LHLD	ccr1
 144E E5        	PUSH	H
 144F 210000    	LXI	H,0
 1452 22C51C    	SHLD	ccr1
 1455 210600    cc9210:	LXI	H,6
 1458 39        	DAD	SP
 1459 CD381B    	CALL	ccg
 145C CD321B    	CALL	ccgc
 145F 7C        	MOV	A,H
 1460 B5        	ORA	L
 1461 CA9214    	JZ	cc9211
 1464 210600    	LXI	H,6
 1467 39        	DAD	SP
 1468 E5        	PUSH	H
 1469 CD381B    	CALL	ccg
 146C 23        	INX	H
 146D CD3D1B    	CALL	ccp
 1470 2B        	DCX	H
 1471 CD321B    	CALL	ccgc
 1474 EB        	XCHG
 1475 210400    	LXI	H,4
 1478 39        	DAD	SP
 1479 CD321B    	CALL	ccgc
 147C CD671B    	CALL	cce
 147F CA8814    	JZ	cc9212
 1482 2AC51C    	LHLD	ccr1
 1485 C39514    	JMP	cc9213
 1488 2AC51C    cc9212:	LHLD	ccr1
 148B 23        	INX	H
 148C 22C51C    	SHLD	ccr1
 148F C35514    	JMP	cc9210
 1492 21FFFF    cc9211:	LXI	H,-1
 1495 EB        cc9213:	XCHG
 1496 E1        	POP	H
 1497 22C51C    	SHLD	ccr1
 149A EB        	XCHG
 149B C9        	RET
 149C 21F9FF    printf:	LXI	H,-7
 149F 39        	DAD	SP
 14A0 F9        	SPHL
 14A1 EB        	XCHG
 14A2 2AC51C    	LHLD	ccr1
 14A5 E5        	PUSH	H
 14A6 2AC71C    	LHLD	ccr2
 14A9 E5        	PUSH	H
 14AA 2AC91C    	LHLD	ccr3
 14AD E5        	PUSH	H
 14AE 210F00    	LXI	H,15
 14B1 39        	DAD	SP
 14B2 22C91C    	SHLD	ccr3
 14B5 2AC91C    	LHLD	ccr3
 14B8 EB        	XCHG
 14B9 210F00    	LXI	H,15
 14BC 39        	DAD	SP
 14BD CD381B    	CALL	ccg
 14C0 29        	DAD	H
 14C1 19        	DAD	D
 14C2 CD381B    	CALL	ccg
 14C5 22C51C    	SHLD	ccr1
 14C8 2AC91C    	LHLD	ccr3
 14CB E5        	PUSH	H
 14CC 211100    	LXI	H,17
 14CF 39        	DAD	SP
 14D0 CD381B    	CALL	ccg
 14D3 2B        	DCX	H
 14D4 29        	DAD	H
 14D5 D1        	POP	D
 14D6 19        	DAD	D
 14D7 22C91C    	SHLD	ccr3
 14DA 2AC51C    cc9214:	LHLD	ccr1
 14DD 23        	INX	H
 14DE 22C51C    	SHLD	ccr1
 14E1 2B        	DCX	H
 14E2 CD321B    	CALL	ccgc
 14E5 22C71C    	SHLD	ccr2
 14E8 7C        	MOV	A,H
 14E9 B5        	ORA	L
 14EA CAB115    	JZ	cc9215
 14ED 2AC71C    	LHLD	ccr2
 14F0 112500    	LXI	D,37
 14F3 CD721B    	CALL	ccne
 14F6 CA0415    	JZ	cc9216
 14F9 2AC71C    	LHLD	ccr2
 14FC E5        	PUSH	H
 14FD CDB104    	CALL	putchar
 1500 C1        	POP	B
 1501 C3DA14    	JMP	cc9214
 1504 2AC51C    cc9216:	LHLD	ccr1
 1507 23        	INX	H
 1508 22C51C    	SHLD	ccr1
 150B 2B        	DCX	H
 150C CD321B    	CALL	ccgc
 150F 22C71C    	SHLD	ccr2
 1512 C39315    	JMP	cc9217
 1515 C3B115    cc9219:	JMP	cc9220
 1518 C3DA14    	JMP	cc9214
 151B 2AC91C    cc9221:	LHLD	ccr3
 151E 2B        	DCX	H
 151F 2B        	DCX	H
 1520 22C91C    	SHLD	ccr3
 1523 23        	INX	H
 1524 23        	INX	H
 1525 CD381B    	CALL	ccg
 1528 E5        	PUSH	H
 1529 CDB104    	CALL	putchar
 152C C1        	POP	B
 152D C3DA14    	JMP	cc9214
 1530 2AC91C    cc9222:	LHLD	ccr3
 1533 2B        	DCX	H
 1534 2B        	DCX	H
 1535 22C91C    	SHLD	ccr3
 1538 23        	INX	H
 1539 23        	INX	H
 153A CD381B    	CALL	ccg
 153D E5        	PUSH	H
 153E CD9205    	CALL	puts
 1541 C1        	POP	B
 1542 C3DA14    	JMP	cc9214
 1545 2AC91C    cc9223:	LHLD	ccr3
 1548 2B        	DCX	H
 1549 2B        	DCX	H
 154A 22C91C    	SHLD	ccr3
 154D 23        	INX	H
 154E 23        	INX	H
 154F CD381B    	CALL	ccg
 1552 E5        	PUSH	H
 1553 210800    	LXI	H,8
 1556 39        	DAD	SP
 1557 E5        	PUSH	H
 1558 CDC315    	CALL	itoh
 155B C1        	POP	B
 155C C1        	POP	B
 155D E5        	PUSH	H
 155E CD9205    	CALL	puts
 1561 C1        	POP	B
 1562 C3DA14    	JMP	cc9214
 1565 2AC91C    cc9224:	LHLD	ccr3
 1568 2B        	DCX	H
 1569 2B        	DCX	H
 156A 22C91C    	SHLD	ccr3
 156D 23        	INX	H
 156E 23        	INX	H
 156F CD381B    	CALL	ccg
 1572 E5        	PUSH	H
 1573 210800    	LXI	H,8
 1576 39        	DAD	SP
 1577 E5        	PUSH	H
 1578 CD5716    	CALL	itoa
 157B C1        	POP	B
 157C C1        	POP	B
 157D E5        	PUSH	H
 157E CD9205    	CALL	puts
 1581 C1        	POP	B
 1582 C3DA14    	JMP	cc9214
 1585 2AC71C    cc9225:	LHLD	ccr2
 1588 E5        	PUSH	H
 1589 CDB104    	CALL	putchar
 158C C1        	POP	B
 158D C3DA14    	JMP	cc9214
 1590 C3AE15    	JMP	cc9218
 1593 CD9D1C    cc9217:	CALL	ccsw
 1596 0500      	DW	5
 1598 64006515  	DW	100,cc9224
 159C 78004515  	DW	120,cc9223
 15A0 73003015  	DW	115,cc9222
 15A4 63001B15  	DW	99,cc9221
 15A8 00001515  	DW	0,cc9219
 15AC 8515      	DW	cc9225
 15AE C3DA14    cc9218:	JMP	cc9214
                cc9215:
 15B1 E1        cc9220:	POP	H
 15B2 22C91C    	SHLD	ccr3
 15B5 E1        	POP	H
 15B6 22C71C    	SHLD	ccr2
 15B9 E1        	POP	H
 15BA 22C51C    	SHLD	ccr1
 15BD 210700    	LXI	H,7
 15C0 39        	DAD	SP
 15C1 F9        	SPHL
 15C2 C9        	RET
 15C3 2AC51C    itoh:	LHLD	ccr1
 15C6 E5        	PUSH	H
 15C7 2AC71C    	LHLD	ccr2
 15CA E5        	PUSH	H
 15CB 210400    	LXI	H,4
 15CE 22C71C    	SHLD	ccr2
 15D1 210600    	LXI	H,6
 15D4 39        	DAD	SP
 15D5 CD381B    	CALL	ccg
 15D8 110400    	LXI	D,4
 15DB 19        	DAD	D
 15DC E5        	PUSH	H
 15DD 210000    	LXI	H,0
 15E0 D1        	POP	D
 15E1 7D        	MOV	A,L
 15E2 12        	STAX	D
 15E3 2AC71C    cc9226:	LHLD	ccr2
 15E6 2B        	DCX	H
 15E7 22C71C    	SHLD	ccr2
 15EA 23        	INX	H
 15EB 7C        	MOV	A,H
 15EC B5        	ORA	L
 15ED CA4516    	JZ	cc9227
 15F0 210800    	LXI	H,8
 15F3 39        	DAD	SP
 15F4 CD381B    	CALL	ccg
 15F7 110F00    	LXI	D,15
 15FA CD5D1B    	CALL	cca
 15FD 22C51C    	SHLD	ccr1
 1600 210600    	LXI	H,6
 1603 39        	DAD	SP
 1604 CD381B    	CALL	ccg
 1607 EB        	XCHG
 1608 2AC71C    	LHLD	ccr2
 160B 19        	DAD	D
 160C E5        	PUSH	H
 160D 2AC51C    	LHLD	ccr1
 1610 E5        	PUSH	H
 1611 2AC51C    	LHLD	ccr1
 1614 EB        	XCHG
 1615 210A00    	LXI	H,10
 1618 CD821B    	CALL	cclt
 161B CA2416    	JZ	cc9228
 161E 213000    	LXI	H,48
 1621 C32B16    	JMP	cc9229
 1624 214100    cc9228:	LXI	H,65
 1627 11F6FF    	LXI	D,-10
 162A 19        	DAD	D
 162B D1        cc9229:	POP	D
 162C 19        	DAD	D
 162D D1        	POP	D
 162E 7D        	MOV	A,L
 162F 12        	STAX	D
 1630 210800    	LXI	H,8
 1633 39        	DAD	SP
 1634 E5        	PUSH	H
 1635 CD381B    	CALL	ccg
 1638 EB        	XCHG
 1639 210400    	LXI	H,4
 163C CDD81B    	CALL	ccasr
 163F CD3D1B    	CALL	ccp
 1642 C3E315    	JMP	cc9226
 1645 210600    cc9227:	LXI	H,6
 1648 39        	DAD	SP
 1649 CD381B    	CALL	ccg
 164C EB        	XCHG
 164D E1        	POP	H
 164E 22C71C    	SHLD	ccr2
 1651 E1        	POP	H
 1652 22C51C    	SHLD	ccr1
 1655 EB        	XCHG
 1656 C9        	RET
 1657 2AC51C    itoa:	LHLD	ccr1
 165A E5        	PUSH	H
 165B 2AC71C    	LHLD	ccr2
 165E E5        	PUSH	H
 165F 2AC91C    	LHLD	ccr3
 1662 E5        	PUSH	H
 1663 2ACB1C    	LHLD	ccr4
 1666 E5        	PUSH	H
 1667 210C00    	LXI	H,12
 166A 39        	DAD	SP
 166B CD381B    	CALL	ccg
 166E 110080    	LXI	D,-32768
 1671 CD671B    	CALL	cce
 1674 CA8B16    	JZ	cc9230
 1677 210A00    	LXI	H,10
 167A 39        	DAD	SP
 167B CD381B    	CALL	ccg
 167E E5        	PUSH	H
 167F 21091D    	LXI	H,cc9001+58
 1682 E5        	PUSH	H
 1683 CDD718    	CALL	strcpy
 1686 C1        	POP	B
 1687 C1        	POP	B
 1688 C36517    	JMP	cc9231
 168B 210C00    cc9230:	LXI	H,12
 168E 39        	DAD	SP
 168F CD381B    	CALL	ccg
 1692 22C71C    	SHLD	ccr2
 1695 EB        	XCHG
 1696 210000    	LXI	H,0
 1699 CD821B    	CALL	cclt
 169C CAB116    	JZ	cc9232
 169F 210C00    	LXI	H,12
 16A2 39        	DAD	SP
 16A3 E5        	PUSH	H
 16A4 210E00    	LXI	H,14
 16A7 39        	DAD	SP
 16A8 CD381B    	CALL	ccg
 16AB CDFA1B    	CALL	ccneg
 16AE CD3D1B    	CALL	ccp
 16B1 210A00    cc9232:	LXI	H,10
 16B4 39        	DAD	SP
 16B5 CD381B    	CALL	ccg
 16B8 22CB1C    	SHLD	ccr4
 16BB 22C91C    	SHLD	ccr3
 16BE 2AC91C    cc9235:	LHLD	ccr3
 16C1 23        	INX	H
 16C2 22C91C    	SHLD	ccr3
 16C5 2B        	DCX	H
 16C6 E5        	PUSH	H
 16C7 210E00    	LXI	H,14
 16CA 39        	DAD	SP
 16CB CD381B    	CALL	ccg
 16CE EB        	XCHG
 16CF 210A00    	LXI	H,10
 16D2 CD371C    	CALL	ccdiv
 16D5 EB        	XCHG
 16D6 113000    	LXI	D,48
 16D9 19        	DAD	D
 16DA D1        	POP	D
 16DB 7D        	MOV	A,L
 16DC 12        	STAX	D
 16DD 210C00    cc9233:	LXI	H,12
 16E0 39        	DAD	SP
 16E1 E5        	PUSH	H
 16E2 CD381B    	CALL	ccg
 16E5 EB        	XCHG
 16E6 210A00    	LXI	H,10
 16E9 CD371C    	CALL	ccdiv
 16EC CD3D1B    	CALL	ccp
 16EF EB        	XCHG
 16F0 210000    	LXI	H,0
 16F3 CD7B1B    	CALL	ccgt
 16F6 C2BE16    	JNZ	cc9235
 16F9 2AC71C    cc9234:	LHLD	ccr2
 16FC EB        	XCHG
 16FD 210000    	LXI	H,0
 1700 CD821B    	CALL	cclt
 1703 CA1517    	JZ	cc9236
 1706 2AC91C    	LHLD	ccr3
 1709 23        	INX	H
 170A 22C91C    	SHLD	ccr3
 170D 2B        	DCX	H
 170E E5        	PUSH	H
 170F 212D00    	LXI	H,45
 1712 D1        	POP	D
 1713 7D        	MOV	A,L
 1714 12        	STAX	D
 1715 2AC91C    cc9236:	LHLD	ccr3
 1718 2B        	DCX	H
 1719 22C91C    	SHLD	ccr3
 171C 23        	INX	H
 171D E5        	PUSH	H
 171E 210000    	LXI	H,0
 1721 D1        	POP	D
 1722 7D        	MOV	A,L
 1723 12        	STAX	D
 1724 2ACB1C    cc9237:	LHLD	ccr4
 1727 EB        	XCHG
 1728 2AC91C    	LHLD	ccr3
 172B CDA61B    	CALL	ccult
 172E CA5E17    	JZ	cc9238
 1731 2ACB1C    	LHLD	ccr4
 1734 CD321B    	CALL	ccgc
 1737 22C51C    	SHLD	ccr1
 173A 2ACB1C    	LHLD	ccr4
 173D 23        	INX	H
 173E 22CB1C    	SHLD	ccr4
 1741 2B        	DCX	H
 1742 E5        	PUSH	H
 1743 2AC91C    	LHLD	ccr3
 1746 CD321B    	CALL	ccgc
 1749 D1        	POP	D
 174A 7D        	MOV	A,L
 174B 12        	STAX	D
 174C 2AC91C    	LHLD	ccr3
 174F 2B        	DCX	H
 1750 22C91C    	SHLD	ccr3
 1753 23        	INX	H
 1754 E5        	PUSH	H
 1755 2AC51C    	LHLD	ccr1
 1758 D1        	POP	D
 1759 7D        	MOV	A,L
 175A 12        	STAX	D
 175B C32417    	JMP	cc9237
 175E 210A00    cc9238:	LXI	H,10
 1761 39        	DAD	SP
 1762 CD381B    	CALL	ccg
 1765 EB        cc9231:	XCHG
 1766 E1        	POP	H
 1767 22CB1C    	SHLD	ccr4
 176A E1        	POP	H
 176B 22C91C    	SHLD	ccr3
 176E E1        	POP	H
 176F 22C71C    	SHLD	ccr2
 1772 E1        	POP	H
 1773 22C51C    	SHLD	ccr1
 1776 EB        	XCHG
 1777 C9        	RET
 1778 2AC51C    atoi:	LHLD	ccr1
 177B E5        	PUSH	H
 177C 2AC71C    	LHLD	ccr2
 177F E5        	PUSH	H
 1780 210600    cc9239:	LXI	H,6
 1783 39        	DAD	SP
 1784 CD381B    	CALL	ccg
 1787 CD321B    	CALL	ccgc
 178A E5        	PUSH	H
 178B CDB01A    	CALL	isspace
 178E C1        	POP	B
 178F 7C        	MOV	A,H
 1790 B5        	ORA	L
 1791 CAA317    	JZ	cc9240
 1794 210600    	LXI	H,6
 1797 39        	DAD	SP
 1798 E5        	PUSH	H
 1799 CD381B    	CALL	ccg
 179C 23        	INX	H
 179D CD3D1B    	CALL	ccp
 17A0 C38017    	JMP	cc9239
 17A3 210100    cc9240:	LXI	H,1
 17A6 22C71C    	SHLD	ccr2
 17A9 210600    	LXI	H,6
 17AC 39        	DAD	SP
 17AD CD381B    	CALL	ccg
 17B0 CD321B    	CALL	ccgc
 17B3 112D00    	LXI	D,45
 17B6 CD671B    	CALL	cce
 17B9 C2CF17    	JNZ	cc9241
 17BC 210600    	LXI	H,6
 17BF 39        	DAD	SP
 17C0 CD381B    	CALL	ccg
 17C3 CD321B    	CALL	ccgc
 17C6 112B00    	LXI	D,43
 17C9 CD671B    	CALL	cce
 17CC CAD217    	JZ	cc9242
 17CF 210100    cc9241:	LXI	H,1
 17D2 CAFA17    cc9242:	JZ	cc9243
 17D5 210600    	LXI	H,6
 17D8 39        	DAD	SP
 17D9 E5        	PUSH	H
 17DA CD381B    	CALL	ccg
 17DD 23        	INX	H
 17DE CD3D1B    	CALL	ccp
 17E1 2B        	DCX	H
 17E2 CD321B    	CALL	ccgc
 17E5 112B00    	LXI	D,43
 17E8 CD671B    	CALL	cce
 17EB CAF417    	JZ	cc9244
 17EE 210100    	LXI	H,1
 17F1 C3F717    	JMP	cc9245
 17F4 21FFFF    cc9244:	LXI	H,-1
 17F7 22C71C    cc9245:	SHLD	ccr2
 17FA 210000    cc9243:	LXI	H,0
 17FD 22C51C    	SHLD	ccr1
 1800 210600    cc9246:	LXI	H,6
 1803 39        	DAD	SP
 1804 CD381B    	CALL	ccg
 1807 CD321B    	CALL	ccgc
 180A E5        	PUSH	H
 180B CD7C19    	CALL	isdigit
 180E C1        	POP	B
 180F 7C        	MOV	A,H
 1810 B5        	ORA	L
 1811 CA3A18    	JZ	cc9247
 1814 2AC51C    	LHLD	ccr1
 1817 110A00    	LXI	D,10
 181A CD141C    	CALL	ccmult
 181D E5        	PUSH	H
 181E 210800    	LXI	H,8
 1821 39        	DAD	SP
 1822 E5        	PUSH	H
 1823 CD381B    	CALL	ccg
 1826 23        	INX	H
 1827 CD3D1B    	CALL	ccp
 182A 2B        	DCX	H
 182B CD321B    	CALL	ccgc
 182E D1        	POP	D
 182F 19        	DAD	D
 1830 11D0FF    	LXI	D,-48
 1833 19        	DAD	D
 1834 22C51C    	SHLD	ccr1
 1837 C30018    	JMP	cc9246
 183A 2AC71C    cc9247:	LHLD	ccr2
 183D EB        	XCHG
 183E 2AC51C    	LHLD	ccr1
 1841 CD141C    	CALL	ccmult
 1844 EB        	XCHG
 1845 E1        	POP	H
 1846 22C71C    	SHLD	ccr2
 1849 E1        	POP	H
 184A 22C51C    	SHLD	ccr1
 184D EB        	XCHG
 184E C9        	RET
 184F 2AC51C    strlen:	LHLD	ccr1
 1852 E5        	PUSH	H
 1853 210000    	LXI	H,0
 1856 22C51C    	SHLD	ccr1
 1859 210400    cc9248:	LXI	H,4
 185C 39        	DAD	SP
 185D E5        	PUSH	H
 185E CD381B    	CALL	ccg
 1861 23        	INX	H
 1862 CD3D1B    	CALL	ccp
 1865 2B        	DCX	H
 1866 CD321B    	CALL	ccgc
 1869 7C        	MOV	A,H
 186A B5        	ORA	L
 186B CA7818    	JZ	cc9249
 186E 2AC51C    	LHLD	ccr1
 1871 23        	INX	H
 1872 22C51C    	SHLD	ccr1
 1875 C35918    	JMP	cc9248
 1878 2AC51C    cc9249:	LHLD	ccr1
 187B EB        	XCHG
 187C E1        	POP	H
 187D 22C51C    	SHLD	ccr1
 1880 EB        	XCHG
 1881 C9        	RET
 1882 2AC51C    strcat:	LHLD	ccr1
 1885 E5        	PUSH	H
 1886 210600    	LXI	H,6
 1889 39        	DAD	SP
 188A CD381B    	CALL	ccg
 188D 22C51C    	SHLD	ccr1
 1890 2AC51C    cc9250:	LHLD	ccr1
 1893 CD321B    	CALL	ccgc
 1896 7C        	MOV	A,H
 1897 B5        	ORA	L
 1898 CAA518    	JZ	cc9251
 189B 2AC51C    	LHLD	ccr1
 189E 23        	INX	H
 189F 22C51C    	SHLD	ccr1
 18A2 C39018    	JMP	cc9250
                cc9251:
 18A5 2AC51C    cc9252:	LHLD	ccr1
 18A8 23        	INX	H
 18A9 22C51C    	SHLD	ccr1
 18AC 2B        	DCX	H
 18AD E5        	PUSH	H
 18AE 210600    	LXI	H,6
 18B1 39        	DAD	SP
 18B2 E5        	PUSH	H
 18B3 CD381B    	CALL	ccg
 18B6 23        	INX	H
 18B7 CD3D1B    	CALL	ccp
 18BA 2B        	DCX	H
 18BB CD321B    	CALL	ccgc
 18BE D1        	POP	D
 18BF 7D        	MOV	A,L
 18C0 12        	STAX	D
 18C1 7C        	MOV	A,H
 18C2 B5        	ORA	L
 18C3 CAC918    	JZ	cc9253
 18C6 C3A518    	JMP	cc9252
 18C9 210600    cc9253:	LXI	H,6
 18CC 39        	DAD	SP
 18CD CD381B    	CALL	ccg
 18D0 EB        	XCHG
 18D1 E1        	POP	H
 18D2 22C51C    	SHLD	ccr1
 18D5 EB        	XCHG
 18D6 C9        	RET
 18D7 2AC51C    strcpy:	LHLD	ccr1
 18DA E5        	PUSH	H
 18DB 210600    	LXI	H,6
 18DE 39        	DAD	SP
 18DF CD381B    	CALL	ccg
 18E2 22C51C    	SHLD	ccr1
 18E5 2AC51C    cc9254:	LHLD	ccr1
 18E8 23        	INX	H
 18E9 22C51C    	SHLD	ccr1
 18EC 2B        	DCX	H
 18ED E5        	PUSH	H
 18EE 210600    	LXI	H,6
 18F1 39        	DAD	SP
 18F2 E5        	PUSH	H
 18F3 CD381B    	CALL	ccg
 18F6 23        	INX	H
 18F7 CD3D1B    	CALL	ccp
 18FA 2B        	DCX	H
 18FB CD321B    	CALL	ccgc
 18FE D1        	POP	D
 18FF 7D        	MOV	A,L
 1900 12        	STAX	D
 1901 7C        	MOV	A,H
 1902 B5        	ORA	L
 1903 CA0919    	JZ	cc9255
 1906 C3E518    	JMP	cc9254
 1909 210600    cc9255:	LXI	H,6
 190C 39        	DAD	SP
 190D CD381B    	CALL	ccg
 1910 EB        	XCHG
 1911 E1        	POP	H
 1912 22C51C    	SHLD	ccr1
 1915 EB        	XCHG
 1916 C9        	RET
                strcmp:
 1917 210400    cc9256:	LXI	H,4
 191A 39        	DAD	SP
 191B CD381B    	CALL	ccg
 191E CD321B    	CALL	ccgc
 1921 E5        	PUSH	H
 1922 210400    	LXI	H,4
 1925 39        	DAD	SP
 1926 CD381B    	CALL	ccg
 1929 CD321B    	CALL	ccgc
 192C CD641B    	CALL	ccpe
 192F CA6319    	JZ	cc9257
 1932 210400    	LXI	H,4
 1935 39        	DAD	SP
 1936 CD381B    	CALL	ccg
 1939 CD321B    	CALL	ccgc
 193C CD061C    	CALL	ccn
 193F CA4819    	JZ	cc9258
 1942 210000    	LXI	H,0
 1945 C37B19    	JMP	cc9259
 1948 210400    cc9258:	LXI	H,4
 194B 39        	DAD	SP
 194C E5        	PUSH	H
 194D CD381B    	CALL	ccg
 1950 23        	INX	H
 1951 CD3D1B    	CALL	ccp
 1954 210200    	LXI	H,2
 1957 39        	DAD	SP
 1958 E5        	PUSH	H
 1959 CD381B    	CALL	ccg
 195C 23        	INX	H
 195D CD3D1B    	CALL	ccp
 1960 C31719    	JMP	cc9256
 1963 210400    cc9257:	LXI	H,4
 1966 39        	DAD	SP
 1967 CD381B    	CALL	ccg
 196A CD321B    	CALL	ccgc
 196D E5        	PUSH	H
 196E 210400    	LXI	H,4
 1971 39        	DAD	SP
 1972 CD381B    	CALL	ccg
 1975 CD321B    	CALL	ccgc
 1978 CDF01B    	CALL	ccps
 197B C9        cc9259:	RET
 197C 210200    isdigit:	LXI	H,2
 197F 39        	DAD	SP
 1980 CD321B    	CALL	ccgc
 1983 EB        	XCHG
 1984 213000    	LXI	H,48
 1987 CD941B    	CALL	ccge
 198A CAA119    	JZ	cc9260
 198D 210200    	LXI	H,2
 1990 39        	DAD	SP
 1991 CD321B    	CALL	ccgc
 1994 EB        	XCHG
 1995 213900    	LXI	H,57
 1998 CD8D1B    	CALL	ccle
 199B CAA119    	JZ	cc9260
 199E 210100    	LXI	H,1
 19A1 C9        cc9260:	RET
 19A2 210200    isupper:	LXI	H,2
 19A5 39        	DAD	SP
 19A6 CD321B    	CALL	ccgc
 19A9 EB        	XCHG
 19AA 214100    	LXI	H,65
 19AD CD941B    	CALL	ccge
 19B0 CAC719    	JZ	cc9261
 19B3 210200    	LXI	H,2
 19B6 39        	DAD	SP
 19B7 CD321B    	CALL	ccgc
 19BA EB        	XCHG
 19BB 215A00    	LXI	H,90
 19BE CD8D1B    	CALL	ccle
 19C1 CAC719    	JZ	cc9261
 19C4 210100    	LXI	H,1
 19C7 C9        cc9261:	RET
 19C8 210200    islower:	LXI	H,2
 19CB 39        	DAD	SP
 19CC CD321B    	CALL	ccgc
 19CF EB        	XCHG
 19D0 216100    	LXI	H,97
 19D3 CD941B    	CALL	ccge
 19D6 CAED19    	JZ	cc9262
 19D9 210200    	LXI	H,2
 19DC 39        	DAD	SP
 19DD CD321B    	CALL	ccgc
 19E0 EB        	XCHG
 19E1 217A00    	LXI	H,122
 19E4 CD8D1B    	CALL	ccle
 19E7 CAED19    	JZ	cc9262
 19EA 210100    	LXI	H,1
 19ED C9        cc9262:	RET
 19EE 210200    chupper:	LXI	H,2
 19F1 39        	DAD	SP
 19F2 CD321B    	CALL	ccgc
 19F5 E5        	PUSH	H
 19F6 CDC819    	CALL	islower
 19F9 C1        	POP	B
 19FA 7C        	MOV	A,H
 19FB B5        	ORA	L
 19FC CA111A    	JZ	cc9263
 19FF 210200    	LXI	H,2
 1A02 39        	DAD	SP
 1A03 CD321B    	CALL	ccgc
 1A06 119FFF    	LXI	D,-97
 1A09 19        	DAD	D
 1A0A 114100    	LXI	D,65
 1A0D 19        	DAD	D
 1A0E C3181A    	JMP	cc9264
 1A11 210200    cc9263:	LXI	H,2
 1A14 39        	DAD	SP
 1A15 CD321B    	CALL	ccgc
 1A18 C9        cc9264:	RET
 1A19 210200    chlower:	LXI	H,2
 1A1C 39        	DAD	SP
 1A1D CD321B    	CALL	ccgc
 1A20 E5        	PUSH	H
 1A21 CDA219    	CALL	isupper
 1A24 C1        	POP	B
 1A25 7C        	MOV	A,H
 1A26 B5        	ORA	L
 1A27 CA3C1A    	JZ	cc9265
 1A2A 210200    	LXI	H,2
 1A2D 39        	DAD	SP
 1A2E CD321B    	CALL	ccgc
 1A31 11BFFF    	LXI	D,-65
 1A34 19        	DAD	D
 1A35 116100    	LXI	D,97
 1A38 19        	DAD	D
 1A39 C3431A    	JMP	cc9266
 1A3C 210200    cc9265:	LXI	H,2
 1A3F 39        	DAD	SP
 1A40 CD321B    	CALL	ccgc
 1A43 C9        cc9266:	RET
 1A44 210200    toupper:	LXI	H,2
 1A47 39        	DAD	SP
 1A48 CD321B    	CALL	ccgc
 1A4B 119FFF    	LXI	D,-97
 1A4E 19        	DAD	D
 1A4F 114100    	LXI	D,65
 1A52 19        	DAD	D
 1A53 C9        	RET
 1A54 210200    tolower:	LXI	H,2
 1A57 39        	DAD	SP
 1A58 CD321B    	CALL	ccgc
 1A5B 11BFFF    	LXI	D,-65
 1A5E 19        	DAD	D
 1A5F 116100    	LXI	D,97
 1A62 19        	DAD	D
 1A63 C9        	RET
 1A64 210200    isalpha:	LXI	H,2
 1A67 39        	DAD	SP
 1A68 CD321B    	CALL	ccgc
 1A6B E5        	PUSH	H
 1A6C CDA219    	CALL	isupper
 1A6F C1        	POP	B
 1A70 7C        	MOV	A,H
 1A71 B5        	ORA	L
 1A72 C2861A    	JNZ	cc9267
 1A75 210200    	LXI	H,2
 1A78 39        	DAD	SP
 1A79 CD321B    	CALL	ccgc
 1A7C E5        	PUSH	H
 1A7D CDC819    	CALL	islower
 1A80 C1        	POP	B
 1A81 7C        	MOV	A,H
 1A82 B5        	ORA	L
 1A83 CA891A    	JZ	cc9268
 1A86 210100    cc9267:	LXI	H,1
 1A89 C9        cc9268:	RET
 1A8A 210200    isalnum:	LXI	H,2
 1A8D 39        	DAD	SP
 1A8E CD321B    	CALL	ccgc
 1A91 E5        	PUSH	H
 1A92 CD641A    	CALL	isalpha
 1A95 C1        	POP	B
 1A96 7C        	MOV	A,H
 1A97 B5        	ORA	L
 1A98 C2AC1A    	JNZ	cc9269
 1A9B 210200    	LXI	H,2
 1A9E 39        	DAD	SP
 1A9F CD321B    	CALL	ccgc
 1AA2 E5        	PUSH	H
 1AA3 CD7C19    	CALL	isdigit
 1AA6 C1        	POP	B
 1AA7 7C        	MOV	A,H
 1AA8 B5        	ORA	L
 1AA9 CAAF1A    	JZ	cc9270
 1AAC 210100    cc9269:	LXI	H,1
 1AAF C9        cc9270:	RET
 1AB0 210200    isspace:	LXI	H,2
 1AB3 39        	DAD	SP
 1AB4 CD321B    	CALL	ccgc
 1AB7 112000    	LXI	D,32
 1ABA CD671B    	CALL	cce
 1ABD C2E01A    	JNZ	cc9271
 1AC0 210200    	LXI	H,2
 1AC3 39        	DAD	SP
 1AC4 CD321B    	CALL	ccgc
 1AC7 110900    	LXI	D,9
 1ACA CD671B    	CALL	cce
 1ACD C2E01A    	JNZ	cc9271
 1AD0 210200    	LXI	H,2
 1AD3 39        	DAD	SP
 1AD4 CD321B    	CALL	ccgc
 1AD7 110A00    	LXI	D,10
 1ADA CD671B    	CALL	cce
 1ADD CAE31A    	JZ	cc9272
 1AE0 210100    cc9271:	LXI	H,1
 1AE3 C9        cc9272:	RET
 1AE4 210400    min:	LXI	H,4
 1AE7 39        	DAD	SP
 1AE8 CD381B    	CALL	ccg
 1AEB EB        	XCHG
 1AEC 210200    	LXI	H,2
 1AEF 39        	DAD	SP
 1AF0 CD381B    	CALL	ccg
 1AF3 CD821B    	CALL	cclt
 1AF6 CA031B    	JZ	cc9273
 1AF9 210400    	LXI	H,4
 1AFC 39        	DAD	SP
 1AFD CD381B    	CALL	ccg
 1B00 C30A1B    	JMP	cc9274
 1B03 210200    cc9273:	LXI	H,2
 1B06 39        	DAD	SP
 1B07 CD381B    	CALL	ccg
 1B0A C9        cc9274:	RET
 1B0B 210400    max:	LXI	H,4
 1B0E 39        	DAD	SP
 1B0F CD381B    	CALL	ccg
 1B12 EB        	XCHG
 1B13 210200    	LXI	H,2
 1B16 39        	DAD	SP
 1B17 CD381B    	CALL	ccg
 1B1A CD7B1B    	CALL	ccgt
 1B1D CA2A1B    	JZ	cc9275
 1B20 210400    	LXI	H,4
 1B23 39        	DAD	SP
 1B24 CD381B    	CALL	ccg
 1B27 C3311B    	JMP	cc9276
 1B2A 210200    cc9275:	LXI	H,2
 1B2D 39        	DAD	SP
 1B2E CD381B    	CALL	ccg
 1B31 C9        cc9276:	RET
 1B32 7E        ccgc:	MOV	A,M
 1B33 6F        ccsxt:	MOV	L,A
 1B34 07        	RLC
 1B35 9F        	SBB	A
 1B36 67        	MOV	H,A
 1B37 C9        	RET
 1B38 7E        ccg:	MOV	A,M
 1B39 23        	INX	H
 1B3A 66        	MOV	H,M
 1B3B 6F        	MOV	L,A
 1B3C C9        	RET
 1B3D C1        ccp:	POP	B
 1B3E D1        	POP	D
 1B3F C5        	PUSH	B
 1B40 7D        	MOV	A,L
 1B41 12        	STAX	D
 1B42 13        	INX	D
 1B43 7C        	MOV	A,H
 1B44 12        	STAX	D
 1B45 C9        	RET
 1B46 C1        ccpo:	POP	B
 1B47 D1        	POP	D
 1B48 C5        	PUSH	B
 1B49 7D        cco:	MOV	A,L
 1B4A B3        	ORA	E
 1B4B 6F        	MOV	L,A
 1B4C 7C        	MOV	A,H
 1B4D B2        	ORA	D
 1B4E 67        	MOV	H,A
 1B4F C9        	RET
 1B50 C1        ccpx:	POP	B
 1B51 D1        	POP	D
 1B52 C5        	PUSH	B
 1B53 7D        ccx:	MOV	A,L
 1B54 AB        	XRA	E
 1B55 6F        	MOV	L,A
 1B56 7C        	MOV	A,H
 1B57 AA        	XRA	D
 1B58 67        	MOV	H,A
 1B59 C9        	RET
 1B5A C1        ccpa:	POP	B
 1B5B D1        	POP	D
 1B5C C5        	PUSH	B
 1B5D 7D        cca:	MOV	A,L
 1B5E A3        	ANA	E
 1B5F 6F        	MOV	L,A
 1B60 7C        	MOV	A,H
 1B61 A2        	ANA	D
 1B62 67        	MOV	H,A
 1B63 C9        	RET
 1B64 C1        ccpe:	POP	B
 1B65 D1        	POP	D
 1B66 C5        	PUSH	B
 1B67 CDCA1B    cce:	CALL	ccucmp
 1B6A C2C01B    	JNZ	ccfalse
 1B6D B5        	ORA	L
 1B6E C9        	RET
 1B6F C1        ccpne:	POP	B
 1B70 D1        	POP	D
 1B71 C5        	PUSH	B
 1B72 CDCA1B    ccne:	CALL	ccucmp
 1B75 C0        	RNZ	
 1B76 2D        	DCR	L
 1B77 C9        	RET
 1B78 C1        ccpgt:	POP	B
 1B79 D1        	POP	D
 1B7A C5        	PUSH	B
 1B7B EB        ccgt:	XCHG
 1B7C C3821B    	JMP	cclt
 1B7F C1        ccplt:	POP	B
 1B80 D1        	POP	D
 1B81 C5        	PUSH	B
 1B82 CDC21B    cclt:	CALL	cccmp
 1B85 D2C01B    	JNC	ccfalse
 1B88 B5        	ORA	L
 1B89 C9        	RET
 1B8A C1        ccple:	POP	B
 1B8B D1        	POP	D
 1B8C C5        	PUSH	B
 1B8D EB        ccle:	XCHG
 1B8E C3941B    	JMP	ccge
 1B91 C1        ccpge:	POP	B
 1B92 D1        	POP	D
 1B93 C5        	PUSH	B
 1B94 CDC21B    ccge:	CALL	cccmp
 1B97 DAC01B    	JC	ccfalse
 1B9A B5        	ORA	L
 1B9B C9        	RET
 1B9C C1        ccpugt: POP	B
 1B9D D1        	POP	D
 1B9E C5        	PUSH	B
 1B9F EB        ccugt:	XCHG
 1BA0 C3A61B    	JMP	ccult
 1BA3 C1        ccpult: POP	B
 1BA4 D1        	POP	D
 1BA5 C5        	PUSH	B
 1BA6 CDCA1B    ccult:	CALL	ccucmp
 1BA9 D2C01B    	JNC	ccfalse
 1BAC B5        	ORA	L
 1BAD C9        	RET
 1BAE C1        ccpule: POP	B
 1BAF D1        	POP	D
 1BB0 C5        	PUSH	B
 1BB1 EB        ccule:	XCHG
 1BB2 C3B81B    	JMP	ccuge
 1BB5 C1        ccpuge: POP	B
 1BB6 D1        	POP	D
 1BB7 C5        	PUSH	B
 1BB8 CDCA1B    ccuge:	CALL	ccucmp
 1BBB DAC01B    	JC	ccfalse
 1BBE B5        	ORA	L
 1BBF C9        	RET
 1BC0 2D        ccfalse: DCR	L
 1BC1 C9        	RET
 1BC2 7A        cccmp:	MOV	A,D
 1BC3 EE80      	XRI	80H
 1BC5 57        	MOV	D,A
 1BC6 7C        	MOV	A,H
 1BC7 EE80      	XRI	80H
 1BC9 67        	MOV	H,A
 1BCA 7A        ccucmp: MOV	A,D
 1BCB BC        	CMP	H
 1BCC C2D11B    	JNZ	ccucm1
 1BCF 7B        	MOV	A,E
 1BD0 BD        	CMP	L
 1BD1 210100    ccucm1: LXI	H,1
 1BD4 C9        	RET
 1BD5 C1        ccpasr: POP	B
 1BD6 D1        	POP	D
 1BD7 C5        	PUSH	B
 1BD8 EB        ccasr:	XCHG
 1BD9 1D        ccasr1: DCR	E
 1BDA F8        	RM
 1BDB 7C        	MOV	A,H
 1BDC 17        	RAL
 1BDD 7C        	MOV	A,H
 1BDE 1F        	RAR
 1BDF 67        	MOV	H,A
 1BE0 7D        	MOV	A,L
 1BE1 1F        	RAR
 1BE2 6F        	MOV	L,A
 1BE3 C3D91B    	JMP	ccasr1
 1BE6 C1        ccpasl: POP	B
 1BE7 D1        	POP	D
 1BE8 C5        	PUSH	B
 1BE9 EB        ccasl:	XCHG
 1BEA 1D        ccasl1: DCR	E
 1BEB F8        	RM
 1BEC 29        	DAD	H
 1BED C3EA1B    	JMP	ccasl1
 1BF0 C1        ccps:	POP	B
 1BF1 D1        	POP	D
 1BF2 C5        	PUSH	B
 1BF3 7B        ccs:	MOV	A,E
 1BF4 95        	SUB	L
 1BF5 6F        	MOV	L,A
 1BF6 7A        	MOV	A,D
 1BF7 9C        	SBB	H
 1BF8 67        	MOV	H,A
 1BF9 C9        	RET
 1BFA CDFF1B    ccneg:	CALL	cccom
 1BFD 23        	INX	H
 1BFE C9        	RET
 1BFF 7C        cccom:	MOV	A,H
 1C00 2F        	CMA
 1C01 67        	MOV	H,A
 1C02 7D        	MOV	A,L
 1C03 2F        	CMA
 1C04 6F        	MOV	L,A
 1C05 C9        	RET
 1C06 7C        ccn:	MOV	A,H
 1C07 B5        	ORA	L
 1C08 CA0F1C    	JZ	ccnot1
 1C0B AF        	XRA	A
 1C0C 67        	MOV	H,A
 1C0D 6F        	MOV	L,A
 1C0E C9        	RET
 1C0F 2C        ccnot1: INR	L
 1C10 C9        	RET
 1C11 C1        ccpmult: POP	 B
 1C12 D1        	POP	D
 1C13 C5        	PUSH	B
 1C14 44        ccmult: MOV	B,H
 1C15 4D        	MOV	C,L
 1C16 210000    	LXI	H,0
 1C19 79        ccmul1: MOV	A,C
 1C1A 0F        	RRC
 1C1B D21F1C    	JNC	ccmul2
 1C1E 19        	DAD	D
 1C1F AF        ccmul2: XRA	A
 1C20 78        	MOV	A,B
 1C21 1F        	RAR
 1C22 47        	MOV	B,A
 1C23 79        	MOV	A,C
 1C24 1F        	RAR
 1C25 4F        	MOV	C,A
 1C26 B0        	ORA	B
 1C27 C8        	RZ
 1C28 AF        	XRA	A
 1C29 7B        	MOV	A,E
 1C2A 17        	RAL
 1C2B 5F        	MOV	E,A
 1C2C 7A        	MOV	A,D
 1C2D 17        	RAL
 1C2E 57        	MOV	D,A
 1C2F B3        	ORA	E
 1C30 C8        	RZ
 1C31 C3191C    	JMP	ccmul1
 1C34 C1        ccpdiv: POP	B
 1C35 D1        	POP	D
 1C36 C5        	PUSH	B
 1C37 7C        ccdiv:	MOV	A,H
 1C38 B5        	ORA	L
 1C39 C23F1C    	JNZ	ccdiv0
 1C3C 5D        	MOV	E,L
 1C3D 54        	MOV	D,H
 1C3E C9        	RET
 1C3F 44        ccdiv0: MOV	B,H
 1C40 4D        	MOV	C,L
 1C41 7A        	MOV	A,D
 1C42 A8        	XRA	B
 1C43 F5        	PUSH	PSW
 1C44 7A        	MOV	A,D
 1C45 B7        	ORA	A
 1C46 FC801C    	CM	ccdeneg
 1C49 78        	MOV	A,B
 1C4A B7        	ORA	A
 1C4B FC881C    	CM	ccbcneg
 1C4E 3E10      	MVI	A,16
 1C50 F5        	PUSH	PSW
 1C51 EB        	XCHG
 1C52 110000    	LXI	D,0
 1C55 29        ccdiv1: DAD	H
 1C56 CD901C    	CALL	ccrdel
 1C59 CA6C1C    	JZ	ccdiv2
 1C5C CD981C    	CALL	cccmpbcde
 1C5F FA6C1C    	JM	ccdiv2
 1C62 7D        	MOV	A,L
 1C63 F601      	ORI	1
 1C65 6F        	MOV	L,A
 1C66 7B        	MOV	A,E
 1C67 91        	SUB	C
 1C68 5F        	MOV	E,A
 1C69 7A        	MOV	A,D
 1C6A 98        	SBB	B
 1C6B 57        	MOV	D,A
 1C6C F1        ccdiv2: POP	PSW
 1C6D 3D        	DCR	A
 1C6E CA751C    	JZ	ccdiv3
 1C71 F5        	PUSH	PSW
 1C72 C3551C    	JMP	ccdiv1
 1C75 F1        ccdiv3: POP	PSW
 1C76 F0        	RP
 1C77 CD801C    	CALL	ccdeneg
 1C7A EB        	XCHG
 1C7B CD801C    	CALL	ccdeneg
 1C7E EB        	XCHG
 1C7F C9        	RET
 1C80 7A        ccdeneg: MOV	A,D
 1C81 2F        	CMA
 1C82 57        	MOV	D,A
 1C83 7B        	MOV	A,E
 1C84 2F        	CMA
 1C85 5F        	MOV	E,A
 1C86 13        	INX	D
 1C87 C9        	RET
 1C88 78        ccbcneg: MOV	A,B
 1C89 2F        	CMA
 1C8A 47        	MOV	B,A
 1C8B 79        	MOV	A,C
 1C8C 2F        	CMA
 1C8D 4F        	MOV	C,A
 1C8E 03        	INX	B
 1C8F C9        	RET
 1C90 7B        ccrdel: MOV	A,E
 1C91 17        	RAL
 1C92 5F        	MOV	E,A
 1C93 7A        	MOV	A,D
 1C94 17        	RAL
 1C95 57        	MOV	D,A
 1C96 B3        	ORA	E
 1C97 C9        	RET
 1C98 7B        cccmpbcde: MOV	A,E
 1C99 91        	SUB	C
 1C9A 7A        	MOV	A,D
 1C9B 98        	SBB	B
 1C9C C9        	RET
 1C9D EB        ccsw:	XCHG	
 1C9E E1        	POP	H
 1C9F 4E        	MOV	C,M
 1CA0 23        	INX	H
 1CA1 0D        ccsw1:	DCR	C
 1CA2 FAB61C    	JM	ccsw3
 1CA5 23        	INX	H
 1CA6 7E        	MOV	A,M
 1CA7 BB        	CMP	E
 1CA8 23        	INX	H
 1CA9 C2B11C    	JNZ	ccsw2
 1CAC 7E        	MOV	A,M
 1CAD BA        	CMP	D
 1CAE CAB61C    	JZ	ccsw3
 1CB1 23        ccsw2:	INX	H
 1CB2 23        	INX	H
 1CB3 C3A11C    	JMP	ccsw1
 1CB6 23        ccsw3:	INX	H
 1CB7 7E        	MOV	A,M
 1CB8 23        	INX	H
 1CB9 66        	MOV	H,M
 1CBA 6F        	MOV	L,A
 1CBB E9        	PCHL	
 1CBC E1        bdos:	POP	H
 1CBD D1        	POP	D
 1CBE C1        	POP	B
 1CBF C5        	PUSH	B
 1CC0 D5        	PUSH	D
 1CC1 E5        	PUSH	H
 1CC2 C30500    	JMP	5H
 1CC5           ccr1:	DS	2
 1CC7           ccr2:	DS	2
 1CC9           ccr3:	DS	2
 1CCB           ccr4:	DS	2
 1CCD           ccr5:	DS	2
 1CCF 546F6F206Dcc9001:	DB	84,111,111,32,109,97,110,121,32,99,111,109
 1CDB 6D616E6420	DB	109,97,110,100,32,108,105,110,101,32,97,114
 1CE7 67730A0072	DB	103,115,10,0,114,0,76,83,84,58,0,119
 1CF3 0043616E27	DB	0,67,97,110,39,116,32,111,112,101,110,58
 1CFF 2000242424	DB	32,0,36,36,36,46,83,85,66,0,45,51
 1D0B 3237363800	DB	50,55,54,56,0
 1D10           stdin:	DS	2
 1D12           stdout:	DS	2
 1D14           stderr:	DS	2
 1D16           stdlst:	DS	2
 1D18           cciob:	DS	60
 1D54           ccfcb:	DS	185
 1E0D 0F1E      ccfree:	DW	$+2
